# file opened: /Users/random/zx-engine/parts.asm
   1  0000              include "defines.asm"
# file opened: /Users/random/zx-engine/defines.asm
   1+ 0000              DEVICE zxspectrum48
   2+ 0000              PROG_ADDR equ #6000 ; уся память в наших руках c собственным IM 2!!!
   3+ 0000
# file closed: /Users/random/zx-engine/defines.asm
   2  0000              ORG PROG_ADDR
   3  6000
   4  6000              define LANG_FILE "data/lang/lang_ru.asm"
   5  6000
   6  6000              include "main.asm"
# file opened: /Users/random/zx-engine/main.asm
   1+ 6000
   2+ 6000              code:
   3+ 6000                include "code.asm"
# file opened: /Users/random/zx-engine/code.asm
   1++6000 C3 67 61       jp zxengine.init
   2++6003
   3++6003                include "core/defines.asm"
# file opened: /Users/random/zx-engine/core/defines.asm
   1++6003              ; файл определений,
   2++6003              ; никаких данных только дефайны и макросы!
   3++6003
   4++6003              INT_VECTOR equ #E000
   5++6003
   6++6003              PEN_BLACK     equ %000
   7++6003              PEN_BLUE      equ %001
   8++6003              PEN_RED       equ %010
   9++6003              PEN_PURPLE    equ %011
  10++6003              PEN_GREEN     equ %100
  11++6003              PEN_CYAN      equ %101
  12++6003              PEN_YELLOW    equ %110
  13++6003              PEN_WHITE     equ %111
  14++6003
  15++6003              PAPER_BLACK   equ %000000
  16++6003              PAPER_BLUE    equ %001000
  17++6003              PAPER_RED     equ %010000
  18++6003              PAPER_PURPLE  equ %011000
  19++6003              PAPER_GREEN   equ %100000
  20++6003              PAPER_CYAN    equ %101000
  21++6003              PAPER_YELLOW  equ %110000
  22++6003              PAPER_WHITE   equ %111000
  23++6003
  24++6003              _endByte equ 0
  25++6003
  26++6003              scrHeight equ 12-1
  27++6003              scrWidth equ 16
  28++6003              mapSize equ 32
  29++6003
  30++6003              SCREEN_ADDR equ #4000
  31++6003              ATTR_ADDR EQU SCREEN_ADDR+#1800
  32++6003
  33++6003              STRUCT Point; LD DE, (Point) получаем в D - x, в E - y
  34++6003 ~            y db 0
  35++6003 ~            x db 0
  36++6003              ENDS
  37++6003
  38++6003              MACRO mLDA
  39++6003 ~              LD A, (HL)
  40++6003 ~              INC HL
  41++6003              ENDM
  42++6003
  43++6003              MACRO mLDB
  44++6003 ~              LD B, (HL)
  45++6003 ~              INC HL
  46++6003              ENDM
  47++6003
  48++6003              MACRO mLDE ;LD DE, (HL)
  49++6003 ~              LD E, (HL)
  50++6003 ~              INC HL
  51++6003 ~              LD D, (HL)
  52++6003 ~              INC HL
  53++6003              ENDM
  54++6003
  55++6003              MACRO mLBC ;LD BC, (HL)
  56++6003 ~              LD C, (HL)
  57++6003 ~              INC HL
  58++6003 ~              LD B, (HL)
  59++6003 ~              INC HL
  60++6003              ENDM
  61++6003
  62++6003              MACRO mADDA hr,lr ; прибавляем A к регистровой паре hrlr
  63++6003 ~            	add a,lr;  a = a + lr
  64++6003 ~            	ld lr,a ; lr = a + lr
  65++6003 ~            	adc a,hr ; a = a + lr + hr + (carry )
  66++6003 ~            	sub lr; a = a + hr
  67++6003 ~            	ld hr,a
  68++6003              ENDM
  69++6003
  70++6003              ; MACRO interrupt.init vec_
  71++6003              ;   DI
  72++6003              ;   LD   A,vec_
  73++6003              ;   LD   I,A
  74++6003              ;   IM   2
  75++6003              ;   EI
  76++6003              ; ENDM
  77++6003
  78++6003              MACRO ret_true
  79++6003 ~              SCF ; устанавливаем бит переноса ( Carry = 1 )
  80++6003 ~              RET
  81++6003              ENDM
  82++6003
  83++6003              MACRO ret_false
  84++6003 ~              SCF ; устанавливаем бит переноса и инвертируем его ))
  85++6003 ~              CCF
  86++6003 ~              RET
  87++6003              ENDM
  88++6003
# file closed: /Users/random/zx-engine/core/defines.asm
   4++6003                include "middlware/defines.asm"
# file opened: /Users/random/zx-engine/middlware/defines.asm
   1++6003              ;указатели направления
   2++6003
   3++6003              ; dir_up   EQU 0
   4++6003              ; dir_up_right EQU 1
   5++6003              ; dir_right  EQU 2
   6++6003              ; dir_down_right EQU 3
   7++6003
   8++6003              ; dir_down EQU 4
   9++6003              ; dir_down_left EQU 5
  10++6003              ; dir_left  EQU 6
  11++6003              ; dir_up_left EQU 7
  12++6003              ; dir_center EQU 8; никуда не двигаем =)
  13++6003
  14++6003              dir_down EQU 0
  15++6003              dir_down_left EQU 1
  16++6003              dir_left  EQU 2
  17++6003              dir_up_left EQU 3
  18++6003              dir_up   EQU 4
  19++6003              dir_up_right EQU 5
  20++6003              dir_right  EQU 6
  21++6003              dir_down_right EQU 7
  22++6003              dir_center EQU 8; никуда не двигаем =)
  23++6003
  24++6003              ; действия
  25++6003              do_end   EQU #00
  26++6003              do_stand EQU #01
  27++6003              do_get EQU #02
  28++6003              do_drop EQU #3
  29++6003              do_look  EQU #02
  30++6003              do_use   EQU #04
  31++6003              do_smach EQU #05
  32++6003
  33++6003              ; вызываем действие с интерфейса,
  34++6003              ; код в Entities определяет берем ли мы предмет с карты (если руки свободны)
  35++6003              ; или бросаем ( если руки заняты а ячейка свободна :P )
  36++6003              ; и вызывает скрипт либо с do_get либо с do_drop
  37++6003              do_get_drop  EQU #10
# file closed: /Users/random/zx-engine/middlware/defines.asm
   5++6003                include "middlware/defines/CellType.asm"
# file opened: /Users/random/zx-engine/middlware/defines/CellType.asm
   1++6003              ; тип ячейки на карте или предмета
   2++6003              STRUCT CellType
   3++6003 ~            name_ptr dw 00; указатель на имя типа
   4++6003 ~            script_ptr dw 00; указатель на скрипт обработки действий
   5++6003 ~            material db 00; разные битовые флаги материала - [7][6][5][4][3][2][горит][непрозрачен] etc...
   6++6003 ~            ;--- разные части
   7++6003 ~            ;prot db 00; проницаемость для предметов, 00 - полностью проницаем
   8++6003 ~            ;force_destr db 00; сила для уничтожения
   9++6003              ENDS
# file closed: /Users/random/zx-engine/middlware/defines/CellType.asm
   6++6003                include "middlware/defines/ItemType.asm"
# file opened: /Users/random/zx-engine/middlware/defines/ItemType.asm
   1++6003              STRUCT ItemType
   2++6003 ~            spr_num db 00; номер спрайта предмета, должен идти первым
   3++6003 ~            ; чтобы после вызова функции calcItemType
   4++6003 ~            ; можно было получать номер спрайта как LD A, (HL)
   5++6003 ~            ; а не через PUSH HL/POP IX/LD A,(IX+ItemType.spr_num)
   6++6003 ~            ;--- прочие части
   7++6003 ~            ; name_ptr dw 00; не нужно, у нас показывается по name_ptr в спрайте
   8++6003 ~            round db 00; скажем, заряд
   9++6003 ~            weight db 00; скажем, вес
  10++6003 ~                db 00
  11++6003 ~            ; script_ptr dw 00; указатель на скрипт обработки действий
  12++6003              ENDS
  13++6003
# file closed: /Users/random/zx-engine/middlware/defines/ItemType.asm
   7++6003                include "middlware/defines/Item.asm"
# file opened: /Users/random/zx-engine/middlware/defines/Item.asm
   1++6003              STRUCT Item
   2++6003 ~            itemID db 00; номер типа предмета
   3++6003 ~            pos Point 0,0 ; позиция на карте
   4++6003 ~            ground db 00; что оказалось на земле когда бросили предмет
   5++6003 ~            owner db 00; номер героя в инвентаре которого находится предмет, если #ff то лежит на карте
   6++6003 ~            ;--- типа заряд :)
   7++6003 ~            rounds db 00;
   8++6003 ~            ; parent_ptr dw 0; у кого лежит, если 0000 то лежит на карте, иначе указатель на hero
   9++6003              ENDS
# file closed: /Users/random/zx-engine/middlware/defines/Item.asm
   8++6003                include "middlware/defines/Hero.asm"
# file opened: /Users/random/zx-engine/middlware/defines/Hero.asm
   1++6003              STRUCT Hero
   2++6003 ~            pos Point 0,0 ; позиция на карте
   3++6003 ~            dir db 00; направление
   4++6003 ~            sprite db 00; текущий спрайт
   5++6003 ~            base_spr db 00; базовый спрайт ( текущий спрайт = базовый спрайт + dir)
   6++6003 ~            ground db 00; на чем стоит
   7++6003 ~            flags db 00; признаки-флаги
   8++6003 ~            name_p dw #0000
   9++6003 ~            ; указатели на предметы в правой и левой руке, hand_right_p_1 00 - в руке пусто
  10++6003 ~            hand_right_p db 00
  11++6003 ~            hand_right_p_1 db 00
  12++6003 ~            ; hand_left_p dw 00
  13++6003 ~            ; --- одежда
  14++6003 ~            ; head dw 00
  15++6003 ~            ; mask dw 00
  16++6003 ~            ; torse dw 00
  17++6003 ~            ; boot dw 00
  18++6003              ENDS
# file closed: /Users/random/zx-engine/middlware/defines/Hero.asm
   9++6003
  10++6003                include "core/scankeys.asm"
# file opened: /Users/random/zx-engine/core/scankeys.asm
   1++6003
   2++6003              ; $7F - B, N, M, Symbol Shift, Space
   3++6003              DEFINE KEY_B dw 0x107f
   4++6003              DEFINE KEY_N dw 0x087f
   5++6003              DEFINE KEY_M dw 0x047f
   6++6003              DEFINE KEY_SYMBOL_SHIFT dw 0x027f
   7++6003              DEFINE KEY_SPACE dw 0x017f
   8++6003
   9++6003              ; $BF - H, J, K, L, Enter
  10++6003              DEFINE KEY_H dw 0x10bf
  11++6003              DEFINE KEY_J dw 0x08bf
  12++6003              DEFINE KEY_K dw 0x04bf
  13++6003              DEFINE KEY_L dw 0x02bf
  14++6003              DEFINE KEY_ENTER dw 0x01bf
  15++6003
  16++6003              ; $DF - Y, U, I, O, P
  17++6003              DEFINE KEY_Y dw 0x10df
  18++6003              DEFINE KEY_U dw 0x08df
  19++6003              DEFINE KEY_I dw 0x04df
  20++6003              DEFINE KEY_O dw 0x02df
  21++6003              DEFINE KEY_P dw 0x01df
  22++6003
  23++6003              ; $EF - 6, 7, 8, 9, 0
  24++6003              DEFINE KEY_6 dw 0x10ef
  25++6003              DEFINE KEY_7 dw 0x08ef
  26++6003              DEFINE KEY_8 dw 0x04ef
  27++6003              DEFINE KEY_9 dw 0x02ef
  28++6003              DEFINE KEY_0 dw 0x01ef
  29++6003
  30++6003              ; $F7 - 5, 4, 3, 2, 1
  31++6003              DEFINE KEY_5 dw 0x10f7
  32++6003              DEFINE KEY_4 dw 0x08f7
  33++6003              DEFINE KEY_3 dw 0x04f7
  34++6003              DEFINE KEY_2 dw 0x02f7
  35++6003              DEFINE KEY_1 dw 0x01f7
  36++6003
  37++6003              ; $FB - T, R, E, W, Q
  38++6003              DEFINE KEY_T dw 0x10fb
  39++6003              DEFINE KEY_R dw 0x08fb
  40++6003              DEFINE KEY_E dw 0x04fb
  41++6003              DEFINE KEY_W dw 0x02fb
  42++6003              DEFINE KEY_Q dw 0x01fb
  43++6003
  44++6003              ; $FD - G, F, D, S, A
  45++6003              DEFINE KEY_G dw 0x10fd
  46++6003              DEFINE KEY_F dw 0x08fd
  47++6003              DEFINE KEY_D dw 0x04fd
  48++6003              DEFINE KEY_S dw 0x02fd
  49++6003              DEFINE KEY_A dw 0x01fd
  50++6003
  51++6003              ; $FE - V, C, X, Z, Caps Shift
  52++6003              DEFINE KEY_V dw 0x10fe
  53++6003              DEFINE KEY_C dw 0x08fe
  54++6003              DEFINE KEY_X dw 0x04fe
  55++6003              DEFINE KEY_Z dw 0x02fe
  56++6003              DEFINE KEY_CAPS_SHIFT dw 0x01fe
  57++6003
# file closed: /Users/random/zx-engine/core/scankeys.asm
  11++6003                include "core/engine.asm"
# file opened: /Users/random/zx-engine/core/engine.asm
   1++6003              MODULE zxengine
   2++6003
   3++6003                MACRO stop
   4++6003 ~                defw zxengine.stop_me
   5++6003                ENDM
   6++6003
   7++6003                MACRO goto addr
   8++6003 ~                defw zxengine.goto_me
   9++6003 ~                defw addr
  10++6003                ENDM
  11++6003
  12++6003                MACRO wait num
  13++6003 ~                defw zxengine.wait_me
  14++6003 ~                defb num
  15++6003                ENDM
  16++6003
  17++6003                MACRO wait_halt num
  18++6003 ~                defw zxengine.halt_me
  19++6003 ~                defb num
  20++6003                ENDM
  21++6003
  22++6003                MACRO CallCode ptr
  23++6003 ~                defw zxengine.call_code_me
  24++6003 ~                defw ptr
  25++6003                ENDM
  26++6003
  27++6003                MACRO CallScript ptr
  28++6003 ~                defw zxengine.call_script_me
  29++6003 ~                defw ptr
  30++6003                ENDM
  31++6003
  32++6003              ; сканировать таблицу в зависимости от нажатой клавиши
  33++6003                MACRO ScanKeyTable ptr
  34++6003 ~                defw zxengine.scan_keys_me
  35++6003 ~                defw ptr
  36++6003                ENDM
  37++6003
  38++6003              ; сканировать таблицу в зависимости от нажатой клавиши
  39++6003                MACRO ScanPosTable ptr
  40++6003 ~                defw zxengine.scan_pos_table_me
  41++6003 ~                defw ptr
  42++6003                ENDM
  43++6003
  44++6003              ; сканировать таблицу в зависимости от номера переменной ( не значения!!! )
  45++6003                MACRO SkanVarTable var_num, ptr
  46++6003 ~                defw zxengine.scan_var_me
  47++6003 ~                defw ptr
  48++6003 ~                defw var_num
  49++6003                ENDM
  50++6003
  51++6003                MACRO SetVar var, value
  52++6003 ~                defw zxengine.set_var_me
  53++6003 ~                defb var
  54++6003 ~                defb value
  55++6003                ENDM
  56++6003
  57++6003              	MACRO IfVar var_num, value_, code_ptr; переход
  58++6003 ~            	  defw zxengine.if_var_me
  59++6003 ~            	  defb var_num
  60++6003 ~            	  defb value_
  61++6003 ~            	  defw code_ptr
  62++6003              	ENDM
  63++6003
  64++6003                MACRO IfVarN var_num, value_, code_ptr; переход
  65++6003 ~            	  defw zxengine.if_var_not_me
  66++6003 ~            	  defb var_num
  67++6003 ~            	  defb value_
  68++6003 ~            	  defw code_ptr
  69++6003              	ENDM
  70++6003
  71++6003                MACRO IncVar var_num
  72++6003 ~            	  defw zxengine.inc_var_me
  73++6003 ~                defb var_num
  74++6003                ENDM
  75++6003
  76++6003              ; для использования внутри ассемблера
  77++6003
  78++6003                MACRO setVar var; заносим значение из A в переменную движка
  79++6003 ~                LD ( zxengine.varsTab + var ), A
  80++6003                ENDM
  81++6003
  82++6003              	MACRO getVar var; в A заносим значение переменной движка
  83++6003 ~                LD A, ( zxengine.varsTab + var )
  84++6003                ENDM
  85++6003
  86++6003              cur_addr equ $
  87++6003
  88++6003              ; org #f000
  89++6003
  90++6003              ; различные переменные для скриптов
  91++6003              varsTab:
  92++6003                DUP 256
  93++6003 00          >    defb 00
  93++6004 00          >    defb 00
  93++6005 00          >    defb 00
  93++6006 00          >    defb 00
  93++6007 00          >    defb 00
  93++6008 00          >    defb 00
  93++6009 00          >    defb 00
  93++600A 00          >    defb 00
  93++600B 00          >    defb 00
  93++600C 00          >    defb 00
  93++600D 00          >    defb 00
  93++600E 00          >    defb 00
  93++600F 00          >    defb 00
  93++6010 00          >    defb 00
  93++6011 00          >    defb 00
  93++6012 00          >    defb 00
  93++6013 00          >    defb 00
  93++6014 00          >    defb 00
  93++6015 00          >    defb 00
  93++6016 00          >    defb 00
  93++6017 00          >    defb 00
  93++6018 00          >    defb 00
  93++6019 00          >    defb 00
  93++601A 00          >    defb 00
  93++601B 00          >    defb 00
  93++601C 00          >    defb 00
  93++601D 00          >    defb 00
  93++601E 00          >    defb 00
  93++601F 00          >    defb 00
  93++6020 00          >    defb 00
  93++6021 00          >    defb 00
  93++6022 00          >    defb 00
  93++6023 00          >    defb 00
  93++6024 00          >    defb 00
  93++6025 00          >    defb 00
  93++6026 00          >    defb 00
  93++6027 00          >    defb 00
  93++6028 00          >    defb 00
  93++6029 00          >    defb 00
  93++602A 00          >    defb 00
  93++602B 00          >    defb 00
  93++602C 00          >    defb 00
  93++602D 00          >    defb 00
  93++602E 00          >    defb 00
  93++602F 00          >    defb 00
  93++6030 00          >    defb 00
  93++6031 00          >    defb 00
  93++6032 00          >    defb 00
  93++6033 00          >    defb 00
  93++6034 00          >    defb 00
  93++6035 00          >    defb 00
  93++6036 00          >    defb 00
  93++6037 00          >    defb 00
  93++6038 00          >    defb 00
  93++6039 00          >    defb 00
  93++603A 00          >    defb 00
  93++603B 00          >    defb 00
  93++603C 00          >    defb 00
  93++603D 00          >    defb 00
  93++603E 00          >    defb 00
  93++603F 00          >    defb 00
  93++6040 00          >    defb 00
  93++6041 00          >    defb 00
  93++6042 00          >    defb 00
  93++6043 00          >    defb 00
  93++6044 00          >    defb 00
  93++6045 00          >    defb 00
  93++6046 00          >    defb 00
  93++6047 00          >    defb 00
  93++6048 00          >    defb 00
  93++6049 00          >    defb 00
  93++604A 00          >    defb 00
  93++604B 00          >    defb 00
  93++604C 00          >    defb 00
  93++604D 00          >    defb 00
  93++604E 00          >    defb 00
  93++604F 00          >    defb 00
  93++6050 00          >    defb 00
  93++6051 00          >    defb 00
  93++6052 00          >    defb 00
  93++6053 00          >    defb 00
  93++6054 00          >    defb 00
  93++6055 00          >    defb 00
  93++6056 00          >    defb 00
  93++6057 00          >    defb 00
  93++6058 00          >    defb 00
  93++6059 00          >    defb 00
  93++605A 00          >    defb 00
  93++605B 00          >    defb 00
  93++605C 00          >    defb 00
  93++605D 00          >    defb 00
  93++605E 00          >    defb 00
  93++605F 00          >    defb 00
  93++6060 00          >    defb 00
  93++6061 00          >    defb 00
  93++6062 00          >    defb 00
  93++6063 00          >    defb 00
  93++6064 00          >    defb 00
  93++6065 00          >    defb 00
  93++6066 00          >    defb 00
  93++6067 00          >    defb 00
  93++6068 00          >    defb 00
  93++6069 00          >    defb 00
  93++606A 00          >    defb 00
  93++606B 00          >    defb 00
  93++606C 00          >    defb 00
  93++606D 00          >    defb 00
  93++606E 00          >    defb 00
  93++606F 00          >    defb 00
  93++6070 00          >    defb 00
  93++6071 00          >    defb 00
  93++6072 00          >    defb 00
  93++6073 00          >    defb 00
  93++6074 00          >    defb 00
  93++6075 00          >    defb 00
  93++6076 00          >    defb 00
  93++6077 00          >    defb 00
  93++6078 00          >    defb 00
  93++6079 00          >    defb 00
  93++607A 00          >    defb 00
  93++607B 00          >    defb 00
  93++607C 00          >    defb 00
  93++607D 00          >    defb 00
  93++607E 00          >    defb 00
  93++607F 00          >    defb 00
  93++6080 00          >    defb 00
  93++6081 00          >    defb 00
  93++6082 00          >    defb 00
  93++6083 00          >    defb 00
  93++6084 00          >    defb 00
  93++6085 00          >    defb 00
  93++6086 00          >    defb 00
  93++6087 00          >    defb 00
  93++6088 00          >    defb 00
  93++6089 00          >    defb 00
  93++608A 00          >    defb 00
  93++608B 00          >    defb 00
  93++608C 00          >    defb 00
  93++608D 00          >    defb 00
  93++608E 00          >    defb 00
  93++608F 00          >    defb 00
  93++6090 00          >    defb 00
  93++6091 00          >    defb 00
  93++6092 00          >    defb 00
  93++6093 00          >    defb 00
  93++6094 00          >    defb 00
  93++6095 00          >    defb 00
  93++6096 00          >    defb 00
  93++6097 00          >    defb 00
  93++6098 00          >    defb 00
  93++6099 00          >    defb 00
  93++609A 00          >    defb 00
  93++609B 00          >    defb 00
  93++609C 00          >    defb 00
  93++609D 00          >    defb 00
  93++609E 00          >    defb 00
  93++609F 00          >    defb 00
  93++60A0 00          >    defb 00
  93++60A1 00          >    defb 00
  93++60A2 00          >    defb 00
  93++60A3 00          >    defb 00
  93++60A4 00          >    defb 00
  93++60A5 00          >    defb 00
  93++60A6 00          >    defb 00
  93++60A7 00          >    defb 00
  93++60A8 00          >    defb 00
  93++60A9 00          >    defb 00
  93++60AA 00          >    defb 00
  93++60AB 00          >    defb 00
  93++60AC 00          >    defb 00
  93++60AD 00          >    defb 00
  93++60AE 00          >    defb 00
  93++60AF 00          >    defb 00
  93++60B0 00          >    defb 00
  93++60B1 00          >    defb 00
  93++60B2 00          >    defb 00
  93++60B3 00          >    defb 00
  93++60B4 00          >    defb 00
  93++60B5 00          >    defb 00
  93++60B6 00          >    defb 00
  93++60B7 00          >    defb 00
  93++60B8 00          >    defb 00
  93++60B9 00          >    defb 00
  93++60BA 00          >    defb 00
  93++60BB 00          >    defb 00
  93++60BC 00          >    defb 00
  93++60BD 00          >    defb 00
  93++60BE 00          >    defb 00
  93++60BF 00          >    defb 00
  93++60C0 00          >    defb 00
  93++60C1 00          >    defb 00
  93++60C2 00          >    defb 00
  93++60C3 00          >    defb 00
  93++60C4 00          >    defb 00
  93++60C5 00          >    defb 00
  93++60C6 00          >    defb 00
  93++60C7 00          >    defb 00
  93++60C8 00          >    defb 00
  93++60C9 00          >    defb 00
  93++60CA 00          >    defb 00
  93++60CB 00          >    defb 00
  93++60CC 00          >    defb 00
  93++60CD 00          >    defb 00
  93++60CE 00          >    defb 00
  93++60CF 00          >    defb 00
  93++60D0 00          >    defb 00
  93++60D1 00          >    defb 00
  93++60D2 00          >    defb 00
  93++60D3 00          >    defb 00
  93++60D4 00          >    defb 00
  93++60D5 00          >    defb 00
  93++60D6 00          >    defb 00
  93++60D7 00          >    defb 00
  93++60D8 00          >    defb 00
  93++60D9 00          >    defb 00
  93++60DA 00          >    defb 00
  93++60DB 00          >    defb 00
  93++60DC 00          >    defb 00
  93++60DD 00          >    defb 00
  93++60DE 00          >    defb 00
  93++60DF 00          >    defb 00
  93++60E0 00          >    defb 00
  93++60E1 00          >    defb 00
  93++60E2 00          >    defb 00
  93++60E3 00          >    defb 00
  93++60E4 00          >    defb 00
  93++60E5 00          >    defb 00
  93++60E6 00          >    defb 00
  93++60E7 00          >    defb 00
  93++60E8 00          >    defb 00
  93++60E9 00          >    defb 00
  93++60EA 00          >    defb 00
  93++60EB 00          >    defb 00
  93++60EC 00          >    defb 00
  93++60ED 00          >    defb 00
  93++60EE 00          >    defb 00
  93++60EF 00          >    defb 00
  93++60F0 00          >    defb 00
  93++60F1 00          >    defb 00
  93++60F2 00          >    defb 00
  93++60F3 00          >    defb 00
  93++60F4 00          >    defb 00
  93++60F5 00          >    defb 00
  93++60F6 00          >    defb 00
  93++60F7 00          >    defb 00
  93++60F8 00          >    defb 00
  93++60F9 00          >    defb 00
  93++60FA 00          >    defb 00
  93++60FB 00          >    defb 00
  93++60FC 00          >    defb 00
  93++60FD 00          >    defb 00
  93++60FE 00          >    defb 00
  93++60FF 00          >    defb 00
  93++6100 00          >    defb 00
  93++6101 00          >    defb 00
  93++6102 00          >    defb 00
  94++6103                EDUP
  95++6103
  96++6103              ; наш внутренний стек
  97++6103              my_stack:
  98++6103 00 00 00...    DEFS 100, 00
  99++6167              my_stack_end:
 100++6167
 101++6167              ; org cur_addr
 102++6167
 103++6167              init:
 104++6167 F3             DI
 105++6168
 106++6168 21 0A DA       LD HL,pack_dynamic
 107++616B 11 13 D0       LD DE, dynamic
 108++616E CD EF 64       CALL dzx7_standard
 109++6171
 110++6171 CD 5A 62       CALL clearVars
 111++6174
 112++6174 31 67 61       LD SP, my_stack_end
 113++6177 CD 58 6C       CALL interrupt.init
 114++617A
 115++617A              start:
 116++617A FB             EI
 117++617B 21 00 AD       LD HL, START_SCRIPT
 118++617E              process:
 119++617E 7E             LD A, (HL)
 120++617F A7             AND A; _endByte -> 0
 121++6180 C8             RET Z
 122++6181 5F             LD E,A
 123++6182 23             INC HL
 124++6183 56             LD D,(HL)
 125++6184 23             INC HL
 126++6185 ED 53 8A 61    LD (process_goto+1), DE
 127++6189              process_goto:
 128++6189 C3 00 00       JP #0000 // в DE - указатель на данные
 129++618C
 130++618C              clear_data:
 131++618C 21 0A DA       LD HL,pack_dynamic
 132++618F 11 13 D0       LD DE, dynamic
 133++6192 CD EF 64       CALL dzx7_standard
 134++6195 CD 5A 62       CALL clearVars
 135++6198 C9             RET
 136++6199
 137++6199              call_code_me:
 138++6199                mLDE
 138++6199 5E          >  LD E, (HL)
 138++619A 23          >  INC HL
 138++619B 56          >  LD D, (HL)
 138++619C 23          >  INC HL
 139++619D E5             PUSH HL
 140++619E EB             EX HL,DE
 141++619F CD A6 61       CALL callHL
 142++61A2 E1             POP HL
 143++61A3 C3 7E 61       JP process
 144++61A6
 145++61A6 E9           callHL  JP (hl)
 146++61A7
 147++61A7              goto_me:
 148++61A7                ; LD DE, (HL)
 149++61A7                mLDE
 149++61A7 5E          >  LD E, (HL)
 149++61A8 23          >  INC HL
 149++61A9 56          >  LD D, (HL)
 149++61AA 23          >  INC HL
 150++61AB EB             EX HL, DE
 151++61AC C3 7E 61       JP process
 152++61AF
 153++61AF              halt_me:
 154++61AF                mLDB
 154++61AF 46          >  LD B, (HL)
 154++61B0 23          >  INC HL
 155++61B1              wait_halt_loop:
 156++61B1 76             HALT
 157++61B2 10 FD          DJNZ wait_halt_loop
 158++61B4 C3 7E 61       JP process
 159++61B7
 160++61B7              wait_me:
 161++61B7 46             LD B, (HL)
 162++61B8 23             INC HL
 163++61B9              wait_me_loop:
 164++61B9 00             NOP
 165++61BA 10 FD          DJNZ wait_me_loop
 166++61BC C3 7E 61       JP process
 167++61BF
 168++61BF              ; scan_var_me:
 169++61BF              ; 	mLDE; table_ptr
 170++61BF              ;   mLDA; A - var num
 171++61BF              ;   PUSH HL; script_pointer
 172++61BF
 173++61BF              ;   PUSH DE
 174++61BF
 175++61BF              ;   call getVar ; A - значение var
 176++61BF              ;   LD B,A
 177++61BF
 178++61BF              ;   POP HL
 179++61BF              ;   call scan_sctipt_table
 180++61BF              ;   JR NZ, call_script_call; если флаг не 0 то переменная найдена
 181++61BF              ;   POP HL
 182++61BF              ;   JP process
 183++61BF
 184++61BF              scan_pos_table_me: ; ================ сканируем позицию
 185++61BF              	mLDE
 185++61BF 5E          >  LD E, (HL)
 185++61C0 23          >  INC HL
 185++61C1 56          >  LD D, (HL)
 185++61C2 23          >  INC HL
 186++61C3 E5           	PUSH HL
 187++61C4 21 05 60       LD HL,Vars.MapCell_xy
 188++61C7 46             LD B,(HL)
 189++61C8 23             INC HL
 190++61C9 4E             LD C,(HL)
 191++61CA EB             EX DE, HL
 192++61CB CD E8 61       CALL scan_table_xy; в HL адрес
 193++61CE 5E             LD E, (HL)
 194++61CF 23             INC HL
 195++61D0 56             LD D, (HL)
 196++61D1                ; LD DE, (HL)
 197++61D1              	; EX DE, HL
 198++61D1 C2 16 62       JP NZ, call_script_call; если флаг не 0 то есть координаты
 199++61D4 E1             POP HL
 200++61D5 C3 7E 61     	JP process
 201++61D8
 202++61D8              scan_keys_me: ; ================ scan keys
 203++61D8              	mLDE
 203++61D8 5E          >  LD E, (HL)
 203++61D9 23          >  INC HL
 203++61DA 56          >  LD D, (HL)
 203++61DB 23          >  INC HL
 204++61DC E5           	PUSH HL
 205++61DD EB           	EX DE, HL
 206++61DE CD 00 62     	call scanKeys; возвратились из scankeys, в DE - указатель на процедуру
 207++61E1 C2 16 62     	JP NZ, call_script_call; если флаг не 0 то клавиша есть
 208++61E4 E1           	POP HL
 209++61E5 C3 7E 61     	JP process
 210++61E8
 211++61E8              ; вход:
 212++61E8              ;   в B - значение переменной
 213++61E8              ;   в HL указатель на таблицу вида [ptr],[value]
 214++61E8              ; выход:
 215++61E8              ; z=1 если найдено, в DE указатель на скрипт
 216++61E8              ; scan_sctipt_table:
 217++61E8              ;   LD A,(HL) ;//  загружаем первый байт
 218++61E8              ;   AND A
 219++61E8              ;   RET Z ; возвращаем если конец таблицы
 220++61E8              ;   LD E,A
 221++61E8              ;   INC HL
 222++61E8              ;   LD D,(HL)
 223++61E8              ;   INC HL
 224++61E8              ;   LD A,(HL) ;//  загружаем value
 225++61E8              ;   INC HL
 226++61E8              ;   CP B
 227++61E8              ;   JR NZ,scan_sctipt_table
 228++61E8              ; 	OR 2
 229++61E8              ; 	RET
 230++61E8
 231++61E8              ; вход:
 232++61E8              ;   в B,C - значения переменной
 233++61E8              ;   в HL указатель на таблицу вида [value_b][value_c][ptr]
 234++61E8              ; выход:
 235++61E8              ; Z=1 если найдено, в HL указатель на скрипт
 236++61E8              scan_table_xy:
 237++61E8 7E             LD A,(HL) ;//  загружаем первый байт
 238++61E9 A7             AND A
 239++61EA C8             RET Z
 240++61EB 5F             LD E,A
 241++61EC 23             INC HL
 242++61ED 7E             LD A,(HL)
 243++61EE 23             INC HL
 244++61EF B8             CP B
 245++61F0 C2 FB 61       JP NZ, scan_table_xy_next
 246++61F3 7B             LD A,E
 247++61F4 B9             CP C
 248++61F5 C2 FB 61       JP NZ, scan_table_xy_next
 249++61F8 F6 02          OR 2
 250++61FA C9             RET
 251++61FB              scan_table_xy_next:
 252++61FB 23             INC HL
 253++61FC 23             INC HL
 254++61FD C3 E8 61       JP scan_table_xy
 255++6200                ; LD E,A
 256++6200                ; INC HL
 257++6200                ; LD D,(HL)
 258++6200                ; INC HL
 259++6200                ; LD A,(HL) ;//  загружаем value
 260++6200                ; INC HL
 261++6200                ; CP B
 262++6200              	; RET
 263++6200
 264++6200              	; честно стырено из движка Wanderers
 265++6200              scanKeys:
 266++6200 7E           	ld a,(HL) ;//  загружаем первый байт
 267++6201 A7           	and a  ;проверяем на 0
 268++6202 C8           	ret z ; возвращаем если 0
 269++6203 23           	inc hl ; увеличиваем HL
 270++6204 DB FE        	in a,(0xfe) ; читаем значение
 271++6206 A6           	and (hl) ; сравниваем со вторым байтом
 272++6207 23           	inc hl   ; увеличиваем указатель
 273++6208 5E           	ld e,(hl)
 274++6209 23           	inc hl
 275++620A 56           	ld d,(hl) ; запоминаем в DE указатель на процедуру
 276++620B 23           	inc hl    ; увеличиваем HL
 277++620C 20 F2        	jr nz,scanKeys
 278++620E F6 02        	or 2
 279++6210 C9           	ret
 280++6211
 281++6211              call_script_me:
 282++6211                mLDE
 282++6211 5E          >  LD E, (HL)
 282++6212 23          >  INC HL
 282++6213 56          >  LD D, (HL)
 282++6214 23          >  INC HL
 283++6215 E5           	PUSH HL
 284++6216              call_script_call:
 285++6216 EB           	EX DE, HL
 286++6217 CD 7E 61     	CALL process
 287++621A              call_script_ret:
 288++621A E1           	POP HL
 289++621B C3 7E 61     	JP process
 290++621E
 291++621E              ; rIfVar var_num,value,code_ptr
 292++621E              if_var_me:
 293++621E              	mLDA
 293++621E 7E          >  LD A, (HL)
 293++621F 23          >  INC HL
 294++6220 CD 50 62     	CALL getVar
 295++6223 BE           	CP (HL)
 296++6224 23           	INC HL
 297++6225 CA A7 61     	JP Z, goto_me; переход по GOTO
 298++6228              if_var_me_no_goto:
 299++6228 23           	INC HL
 300++6229 23           	INC HL
 301++622A C3 7E 61     	JP process
 302++622D
 303++622D              ; rIfVar var_num,value,code_ptr
 304++622D              if_var_not_me
 305++622D              	mLDA
 305++622D 7E          >  LD A, (HL)
 305++622E 23          >  INC HL
 306++622F CD 50 62     	CALL getVar
 307++6232 BE           	CP (HL)
 308++6233 23           	INC HL
 309++6234 C2 A7 61     	JP NZ, goto_me; переход по GOTO
 310++6237 C3 28 62     	JP if_var_me_no_goto
 311++623A
 312++623A              set_var_me:
 313++623A              	mLDA
 313++623A 7E          >  LD A, (HL)
 313++623B 23          >  INC HL
 314++623C CD 50 62     	CALL getVar
 315++623F 7E           	LD A,(HL)
 316++6240 23           	INC HL
 317++6241 12           	LD (DE),A
 318++6242 C3 7E 61     	JP process
 319++6245
 320++6245              inc_var_me:
 321++6245              	mLDA
 321++6245 7E          >  LD A, (HL)
 321++6246 23          >  INC HL
 322++6247 CD 50 62     	CALL getVar
 323++624A 1A           	LD A, (DE)
 324++624B 3C             INC A
 325++624C 12             LD (DE),A
 326++624D C3 7E 61     	JP process
 327++6250
 328++6250              ; --- получить значение переменной
 329++6250              ; на входе A - номер переменной
 330++6250              ; на выходе
 331++6250              ;   в DE - указатель на переменную
 332++6250              ;   в A - значение переменной
 333++6250              getVar:
 334++6250 11 03 60     	ld de,varsTab
 335++6253              	mADDA D,E
 335++6253 83          >	add a,E;  a = a + lr
 335++6254 5F          >	ld E,a ; lr = a + lr
 335++6255 8A          >	adc a,D ; a = a + lr + hr + (carry )
 335++6256 93          >	sub E; a = a + hr
 335++6257 57          >	ld D,a
 336++6258 1A           	ld A,(DE)
 337++6259 C9           	ret
 338++625A
 339++625A              ; --- обнулить массив переменных
 340++625A              clearVars:
 341++625A 21 03 60       LD HL, varsTab
 342++625D 3E 00          LD A, 0
 343++625F 06 FF          LD B, 255
 344++6261 C3 7D 62       JP math.memset
 345++6264
 346++6264 00 00        frames_cnt: dw 0000;
 347++6266 00 00        frames_measured: dw 0000;
 348++6268
 349++6268              start_measure:
 350++6268 2A 93 6C       LD HL, (interrupt.frame_counter)
 351++626B 22 64 62       LD (frames_cnt), HL
 352++626E C9             RET
 353++626F
 354++626F              stop_measure:
 355++626F 2A 93 6C       LD HL, (interrupt.frame_counter)
 356++6272 ED 5B 64 62    LD DE, (frames_cnt)
 357++6276 AF             XOR A
 358++6277 ED 52          SBC HL, DE
 359++6279 22 66 62       LD (frames_measured), HL
 360++627C C9             RET
 361++627D
 362++627D              ENDMODULE
 363++627D
 364++627D              ; display "zxengine.scan_table_xy", zxengine.scan_table_xy
# file closed: /Users/random/zx-engine/core/engine.asm
  12++627D                ; include "core/cursor.asm"
  13++627D                include "core/routines/math.asm"
# file opened: /Users/random/zx-engine/core/routines/math.asm
   1++627D              MODULE math
   2++627D
   3++627D
   4++627D              ; в HL указатель на область памяти
   5++627D              ; в B - сколько ячеек надо заполнить
   6++627D              ; в A - чем заполняем
   7++627D              memset:
   8++627D 77             LD (HL),A
   9++627E 23             INC HL
  10++627F 10 FC          DJNZ memset
  11++6281 C9             RET
  12++6282
  13++6282              ;   процедура перевода числа из А в десятичное представление в регистрах BCD
  14++6282              ;   често стырена из сорцов демки SancheZ Survivesection
  15++6282              ;   убрано последующее умножение на 8
  16++6282              decbcd
  17++6282 01 00 00     	LD BC,0
  18++6285              _decbcd_1
  19++6285 D6 64        	SUB 100
  20++6287 38 03        	JR C, _decbcd_2
  21++6289 04           	INC B
  22++628A 18 F9        	JR _decbcd_1
  23++628C              _decbcd_2
  24++628C C6 64        	ADD A,100
  25++628E              _decbcd_3
  26++628E D6 0A        	SUB 10
  27++6290 38 03        	JR C, _decbcd_4
  28++6292 0C           	INC C
  29++6293 18 F9        	JR _decbcd_3
  30++6295              _decbcd_4
  31++6295 C6 0A        	ADD A,10
  32++6297 57           	LD D,A
  33++6298 C9           	RET
  34++6299
  35++6299              ; А - индекс
  36++6299              ; DE - размер данных
  37++6299              ; на выходе HL = A*DE
  38++6299              mul_ADE:
  39++6299 21 00 00     	LD HL, #0000
  40++629C B7           	OR A
  41++629D C8           	RET Z
  42++629E 47           	LD B,A
  43++629F              mul_ADE_loop:
  44++629F 19           	ADD HL, DE
  45++62A0 10 FD        	DJNZ mul_ADE_loop
  46++62A2 C9           	RET
  47++62A3
  48++62A3              ;	процедура деления H/L = B ( C - остаток)
  49++62A3              ;	често стырена из сорцов демки SancheZ Survivesection
  50++62A3              div_byte
  51++62A3 01 00 08     	LD BC, #0800
  52++62A6 16 00        	LD D,0
  53++62A8              _div_byte_1
  54++62A8 CB 14        	RL H
  55++62AA 79           	LD A,C
  56++62AB 17           	RLA
  57++62AC 95           	SUB L
  58++62AD 30 01        	JR NC,_div_byte_2
  59++62AF 85           	ADD A,L
  60++62B0              _div_byte_2
  61++62B0 4F           	LD C,A
  62++62B1 3F           	CCF
  63++62B2 CB 12        	RL D
  64++62B4 10 F2        	DJNZ _div_byte_1
  65++62B6 42           	LD B,D
  66++62B7 C9           	RET
  67++62B8
  68++62B8              ; вычисляем адрес по позиции знакоместа
  69++62B8              ; DE - D-x, E-y
  70++62B8              pos_scr:
  71++62B8 7B           		LD A,E
  72++62B9 E6 07        		AND  7
  73++62BB 0F           		RRCA
  74++62BC 0F           		RRCA
  75++62BD 0F           		RRCA
  76++62BE 82           		ADD  A,D
  77++62BF 53           		LD   D,E
  78++62C0 5F           		LD   E,A
  79++62C1 7A           		LD   A,D
  80++62C2 E6 18        		AND  #18
  81++62C4 F6 40        		OR   high SCREEN_ADDR
  82++62C6 57           		LD   D,A
  83++62C7 C9           		RET
  84++62C8
  85++62C8              ; вычисляем адрес в памяти по номеру строчки экрана
  86++62C8              ; Вход: A - номер строчки
  87++62C8              ; Выход - DE - адрес экрана
  88++62C8              str_scr: //E-y
  89++62C8 F5           	PUSH AF
  90++62C9 E6 18        	AND #18
  91++62CB F6 40        	OR high SCREEN_ADDR
  92++62CD 57           	LD D,A
  93++62CE F1           	POP AF
  94++62CF E6 07        	AND 7
  95++62D1 0F           	RRCA
  96++62D2 0F           	RRCA
  97++62D3 0F           	RRCA
  98++62D4 5F           	LD E,A
  99++62D5 C9           	RET
 100++62D6
 101++62D6              ; процедура пересчета адреса в экранной области
 102++62D6              ; в адрес в области атрибутов
 103++62D6              ; Вход: DE - адрес в экранной области
 104++62D6              ; Выход: DE - адрес в области атрибутов
 105++62D6              addr_to_attr:
 106++62D6 7A           	LD A,D
 107++62D7 E6 18        	AND #18
 108++62D9 0F           	RRCA
 109++62DA 0F           	RRCA
 110++62DB 0F           	RRCA
 111++62DC C6 58        	ADD A,ATTR_ADDR/#100
 112++62DE 57           	LD D,A
 113++62DF C9           	RET
 114++62E0
 115++62E0              ; перемещаемся на 1 линию в знакоместе ниже
 116++62E0              ; Вход: DE- экранный адрес
 117++62E0              ; Выход: DE - экранный адрес
 118++62E0              down_line:
 119++62E0 14               INC D
 120++62E1 7A               LD A,D
 121++62E2 E6 07            AND 7
 122++62E4 C0               RET NZ
 123++62E5 7B               LD A,E
 124++62E6 C6 20            ADD A,#20
 125++62E8 5F               LD E,A
 126++62E9 D8               RET C
 127++62EA 7A               LD A,D
 128++62EB D6 08            SUB 8
 129++62ED                  ;ADD A,-8
 130++62ED 57               LD D,A
 131++62EE C9               RET
 132++62EF
 133++62EF              ; перемещаемся вниз на одно знакоместо
 134++62EF              ; Вход: DE- экранный адрес
 135++62EF              ; Выход: DE - экранный адрес
 136++62EF              down_pos:
 137++62EF 7B           	LD A,E
 138++62F0 C6 20        	ADD A,#20
 139++62F2 5F           	LD E,A
 140++62F3 D0           	RET NC
 141++62F4 7A           	LD A,D
 142++62F5 C6 08        	ADD A,8
 143++62F7 57           	LD D,A
 144++62F8 C9           	RET
 145++62F9
 146++62F9 ~            /* ;взято из процедуры Wanderers
 147++62F9 ~            ; in: A = bit num
 148++62F9 ~            ; out: HL = bit adr, C = bit mask, A = bit state (0,1), Z/NZ = bit state
 149++62F9 ~            bitAdr	ld hl,bitsTab
 150++62F9 ~            badr0	ld c,a
 151++62F9 ~            	rra
 152++62F9 ~            	rra
 153++62F9 ~            	rra
 154++62F9 ~            	and 0x3f
 155++62F9 ~            	ADDA h,l
 156++62F9 ~            	ld a,c
 157++62F9 ~            	and 7
 158++62F9 ~            	ld c,0x01
 159++62F9 ~            	jr z,badr2
 160++62F9 ~            badr1	rlc c
 161++62F9 ~            	dec a
 162++62F9 ~            	jr nz,badr1
 163++62F9 ~            badr2	ld a,(hl)
 164++62F9 ~            	and c
 165++62F9 ~            	ret z
 166++62F9 ~            	inc a
 167++62F9 ~            	ret */
 168++62F9
 169++62F9              ; стырено из Wanderers SamStyle
 170++62F9              ; в a - rnd
 171++62F9 E5           getRnd	push hl
 172++62FA 21 00 00     radr	ld hl,0
 173++62FD 23           		inc hl
 174++62FE 7C           		ld a,h
 175++62FF E6 3F        		and 0x3f
 176++6301 67           		ld h,a
 177++6302 22 FB 62     		ld (radr+1),hl
 178++6305 ED 5F        		ld a,r
 179++6307 AE           		xor (hl)
 180++6308 E1           		pop hl
 181++6309 C9           		ret
 182++630A
 183++630A              ENDMODULE
 184++630A
# file closed: /Users/random/zx-engine/core/routines/math.asm
  14++630A                include "core/routines/tiles16.asm"
# file opened: /Users/random/zx-engine/core/routines/tiles16.asm
   1++630A              ; модуль вывода тайлов 2x2 знакоместа ( 16 x16 пикселов  )
   2++630A              ; для работы надо установить sprArray - указатель на массив тайлов
   3++630A                MODULE Tiles16
   4++630A
   5++630A              ; переводим индекс карты в указатель на начало данных спрайта
   6++630A              ; A - номер спрайта
   7++630A              ; на выходе HL - указатель на данные спрайта
   8++630A              ; затрагивается регистр BC!!!
   9++630A              spr_index_to_addr:
  10++630A 6F             LD L, A
  11++630B 26 00          LD H, 0; загружаем номер спрайта в HL
  12++630D 29             ADD HL,HL; x2
  13++630E 29             ADD HL,HL; x4
  14++630F E5             PUSH HL; // запоминаем x4
  15++6310 29             ADD HL,HL; x8
  16++6311 29             ADD HL,HL; x16
  17++6312 29             ADD HL,HL; x32
  18++6313 C1             POP BC; // снимаем со стека x4 - еще 4 байта цветности
  19++6314 09             ADD HL, BC
  20++6315 01 96 6C       LD BC, TILE_SET; указатель на начало спрайтов
  21++6318 09             ADD HL, BC
  22++6319 C9             RET
  23++631A
  24++631A              ;показываем 1 тайл на карте
  25++631A              ;HL - указатель на спрайт
  26++631A              ;DE - экранный адрес
  27++631A              show_tile_on_map:
  28++631A D5              PUSH DE
  29++631B               ; // thanks to Alone Coder!
  30++631B 01 08 08        LD BC,#0808
  31++631E                 ;LD C,0 ; 0E 00
  32++631E              _my_spr_loop_1:
  33++631E ED A0           LDI ; LD (DE),(HL)  DE+1, HL+1, BC-1
  34++6320 7E              LD A,(HL)
  35++6321 12              LD (DE),A
  36++6322 1D              DEC E
  37++6323 14              INC D
  38++6324 23              INC HL
  39++6325 10 F7           DJNZ _my_spr_loop_1
  40++6327
  41++6327 D1              POP DE
  42++6328 D5              PUSH DE
  43++6329
  44++6329 01 20 00        LD BC, 32
  45++632C EB              EX HL, DE
  46++632D 09              ADD HL, BC
  47++632E EB              EX HL, DE; DE = DE + 32
  48++632F
  49++632F 01 08 08        LD BC,#0808
  50++6332              _my_spr_loop_2:
  51++6332 ED A0             LDI ; LD (DE),(HL)  DE+1, HL+1
  52++6334 7E                LD A,(HL)
  53++6335 12                LD (DE),A
  54++6336 1D                DEC E
  55++6337 14                INC D
  56++6338 23                INC HL
  57++6339 10 F7             DJNZ _my_spr_loop_2
  58++633B
  59++633B D1                POP DE; // original screen position
  60++633C
  61++633C E5                PUSH HL
  62++633D CD D6 62          call math.addr_to_attr
  63++6340 ED A0             LDI
  64++6342 ED A0             LDI
  65++6344 E1                POP HL
  66++6345 7B                LD A,E
  67++6346 C6 1E             ADD A,30; нижний ряд ( 30 а не 32 так как 2 уже прибавили выше )
  68++6348 5F                LD E,A
  69++6349 ED A0             LDI
  70++634B ED A0             LDI
  71++634D C9                RET
  72++634E
  73++634E              ; LDI - ED
  74++634E
  75++634E               ; по текущему адресу тайла на экране получаем адрес тайла справа от него
  76++634E               ; в DE - адрес тайла на экране
  77++634E               ; на выходе в DE адрес следующего справа тайла на экране
  78++634E               MACRO Tiles16.NEXT_TILE_POS_RIGHT
  79++634E ~              INC E
  80++634E ~              INC E
  81++634E               ENDM
  82++634E
  83++634E               MACRO Tiles16.NEXT_TITLE_POS_DOWN
  84++634E ~              LD A, #20+#20 ; 64
  85++634E ~              ADD A,E
  86++634E ~              LD E,A
  87++634E ~              JR NC, .next_tile_pos_down_exit
  88++634E ~              ; переполнение - значит мы перешли на другую треть, прибавляем 8 к D
  89++634E ~              LD E,00
  90++634E ~              LD A, #8
  91++634E ~              ADD A,D
  92++634E ~              LD D,A
  93++634E ~            .next_tile_pos_down_exit:
  94++634E ~              ;LD E,A
  95++634E ~            ; если есть переполнение - значит мы вышли за границу трети экрана, смотрим куда попали
  96++634E               ENDM
  97++634E
  98++634E              ; ; дикий оверхед!!! %)
  99++634E              ; ; на входе HL - адрес тайла на карте
 100++634E              ; ; на выходе отрисовывать ли спрайт или нет
 101++634E              ; check_tile:
 102++634E              ;   LD DE, MAP_MASK-MAP_SET; сдвигаем адрес на маску
 103++634E              ;   ADD HL, DE
 104++634E              ;   LD A, (HL)
 105++634E              ;   ret_false
 106++634E              ;   ret_true
 107++634E
 108++634E              ; программа показывает на экране карту тайлов
 109++634E              ; в HL - адрес первого тайла на карте
 110++634E              show_tile_map:
 111++634E
 112++634E 11 00 40       LD DE, SCREEN_ADDR ; current pos draw variable
 113++6351 06 0B          LD B, scrHeight
 114++6353              show_tile_map_loop2: ; цикл по столбцам
 115++6353 C5             PUSH BC
 116++6354 E5             PUSH HL; ---- запоминаем все в стек
 117++6355 D5             PUSH DE
 118++6356
 119++6356              ; ------------ рисуем строку тайлов -------------
 120++6356 06 10          LD B, scrWidth
 121++6358              show_tile_map_loop1: ; цикл по строкам
 122++6358 C5             PUSH BC
 123++6359 E5             PUSH HL; ---- запоминаем все в стек
 124++635A D5             PUSH DE
 125++635B
 126++635B 7E             LD A,(HL)
 127++635C CD 0A 63       call spr_index_to_addr
 128++635F CD 1A 63       call show_tile_on_map
 129++6362
 130++6362 D1             POP DE; ---- снимаем все со стека
 131++6363                Tiles16.NEXT_TILE_POS_RIGHT
 131++6363 1C          >  INC E
 131++6364 1C          >  INC E
 132++6365
 133++6365 E1             POP HL
 134++6366 23             INC HL; сдвигаем указатель на ячейку карты влево
 135++6367 C1             POP BC
 136++6368 10 EE          DJNZ show_tile_map_loop1
 137++636A              ; ------------ закончили рисовать строку тайлов -------------
 138++636A
 139++636A D1             POP DE
 140++636B                Tiles16.NEXT_TITLE_POS_DOWN
 140++636B 3E 40       >  LD A, #20+#20 ; 64
 140++636D 83          >  ADD A,E
 140++636E 5F          >  LD E,A
 140++636F 30 06       >  JR NC, .next_tile_pos_down_exit
 140++6371             >  ; переполнение - значит мы перешли на другую треть, прибавляем 8 к D
 140++6371 1E 00       >  LD E,00
 140++6373 3E 08       >  LD A, #8
 140++6375 82          >  ADD A,D
 140++6376 57          >  LD D,A
 140++6377             >.next_tile_pos_down_exit:
 140++6377             >  ;LD E,A
 140++6377             >; если есть переполнение - значит мы вышли за границу трети экрана, смотрим куда попали
 141++6377 E1             POP HL; ---- снимаем все со стека
 142++6378 01 20 00       LD BC, mapSize
 143++637B 09             ADD HL, BC; прибавляем к указателю на начало тайлов ширину - сдвигаем указатель вниз на 1 тайл
 144++637C C1             POP BC
 145++637D 10 D4          DJNZ show_tile_map_loop2
 146++637F C9             RET
 147++6380
 148++6380              ; sprArray dw 00 ;EQU p_sprArray+1
 149++6380
 150++6380                ENDMODULE
 151++6380
# file closed: /Users/random/zx-engine/core/routines/tiles16.asm
  15++6380                include "core/routines/view.asm"
# file opened: /Users/random/zx-engine/core/routines/view.asm
   1++6380              ; модуль отрисовываемого "окна"
   2++6380              MODULE View
   3++6380
   4++6380                MACRO m_look_dir _dir
   5++6380 ~                PUSH DE
   6++6380 ~                LD A, _dir
   7++6380 ~                CALL look_dir
   8++6380 ~                POP DE
   9++6380                ENDM
  10++6380
  11++6380              ; вход:
  12++6380              ; D - x, E - y,
  13++6380              ; A - dir
  14++6380              look:
  15++6380                  m_look_dir dir_down
  15++6380 D5          >    PUSH DE
  15++6381 3E 00       >    LD A, dir_down
  15++6383 CD C6 63    >    CALL look_dir
  15++6386 D1          >    POP DE
  16++6387
  17++6387                  m_look_dir dir_down_left
  17++6387 D5          >    PUSH DE
  17++6388 3E 01       >    LD A, dir_down_left
  17++638A CD C6 63    >    CALL look_dir
  17++638D D1          >    POP DE
  18++638E
  19++638E                  m_look_dir dir_left
  19++638E D5          >    PUSH DE
  19++638F 3E 02       >    LD A, dir_left
  19++6391 CD C6 63    >    CALL look_dir
  19++6394 D1          >    POP DE
  20++6395
  21++6395                  m_look_dir dir_up_left
  21++6395 D5          >    PUSH DE
  21++6396 3E 03       >    LD A, dir_up_left
  21++6398 CD C6 63    >    CALL look_dir
  21++639B D1          >    POP DE
  22++639C
  23++639C                  m_look_dir dir_up
  23++639C D5          >    PUSH DE
  23++639D 3E 04       >    LD A, dir_up
  23++639F CD C6 63    >    CALL look_dir
  23++63A2 D1          >    POP DE
  24++63A3
  25++63A3                  m_look_dir dir_up_right
  25++63A3 D5          >    PUSH DE
  25++63A4 3E 05       >    LD A, dir_up_right
  25++63A6 CD C6 63    >    CALL look_dir
  25++63A9 D1          >    POP DE
  26++63AA
  27++63AA                  m_look_dir dir_right
  27++63AA D5          >    PUSH DE
  27++63AB 3E 06       >    LD A, dir_right
  27++63AD CD C6 63    >    CALL look_dir
  27++63B0 D1          >    POP DE
  28++63B1
  29++63B1                  m_look_dir dir_down_right
  29++63B1 D5          >    PUSH DE
  29++63B2 3E 07       >    LD A, dir_down_right
  29++63B4 CD C6 63    >    CALL look_dir
  29++63B7 D1          >    POP DE
  30++63B8
  31++63B8                  m_look_dir dir_center
  31++63B8 D5          >    PUSH DE
  31++63B9 3E 08       >    LD A, dir_center
  31++63BB CD C6 63    >    CALL look_dir
  31++63BE D1          >    POP DE
  32++63BF
  33++63BF CD 3C 67         CALL map.center_map
  34++63C2 CD D2 63         CALL View.copy
  35++63C5
  36++63C5 C9               RET
  37++63C6
  38++63C6              look_dir:
  39++63C6 CD 29 6A         CALL Entities.calc_action_pos
  40++63C9 D0               RET NC;  возвратили false - неправильное направление или действие
  41++63CA
  42++63CA              update_mask_hl:
  43++63CA 11 00 FC         LD DE, MAP_MASK-MAP_SET ; так как у нас в процедуре вернулась позиция на MAP_SET
  44++63CD 19               ADD HL, DE
  45++63CE 3E 01            LD A, 1
  46++63D0 77               LD (HL), A
  47++63D1 C9               RET
  48++63D2
  49++63D2              ; копируем тайлы из карты в массив отрисовки
  50++63D2              ; в HL адрес первого тайла карты
  51++63D2              copy:
  52++63D2 11 00 FC         LD DE, MAP_MASK-MAP_SET ; так как у нас в процедуре вернулась позиция на MAP_SET
  53++63D5 19               ADD HL, DE
  54++63D6
  55++63D6 11 00 04         LD DE, MAP_SET-MAP_MASK; для использования в цикле
  56++63D9
  57++63D9 DD 21 2D 64      LD IX, View.buffer
  58++63DD 06 0B            LD B, scrHeight
  59++63DF              copy_loop2:
  60++63DF C5               PUSH BC
  61++63E0 E5               PUSH HL
  62++63E1
  63++63E1 06 10            LD B,scrWidth
  64++63E3              copy_loop1:
  65++63E3 C5               PUSH BC
  66++63E4
  67++63E4 7E               LD A, (HL)
  68++63E5 A7               AND A
  69++63E6 28 04            JR Z, no_copy_cell
  70++63E8
  71++63E8 E5               PUSH HL
  72++63E9 19               ADD HL, DE
  73++63EA 7E               LD A, (HL)
  74++63EB E1               POP HL
  75++63EC
  76++63EC              no_copy_cell:
  77++63EC DD 77 00         LD (IX), A
  78++63EF
  79++63EF DD 23            INC IX
  80++63F1 23               INC HL
  81++63F2
  82++63F2 C1               POP BC
  83++63F3 10 EE            DJNZ copy_loop1
  84++63F5
  85++63F5 E1               POP HL
  86++63F6 01 20 00         LD BC, mapSize
  87++63F9 09               ADD HL, BC; прибавляем к указателю на начало тайлов ширину - сдвигаем указатель вниз на 1 тайл
  88++63FA
  89++63FA C1               POP BC
  90++63FB 10 E2            DJNZ copy_loop2
  91++63FD C9               RET
  92++63FE
  93++63FE              ; отрисовываем тайлы на экране
  94++63FE              draw:
  95++63FE 21 2D 64         LD HL, View.buffer
  96++6401 11 00 40         LD DE, SCREEN_ADDR ; current pos draw variable
  97++6404 06 0B            LD B, scrHeight
  98++6406              draw_loop2:
  99++6406 C5               PUSH BC
 100++6407 D5               PUSH DE
 101++6408
 102++6408 06 10            LD B, scrWidth
 103++640A              draw_loop1:
 104++640A C5               PUSH BC
 105++640B E5               PUSH HL
 106++640C
 107++640C D5               PUSH DE
 108++640D 7E               LD A,(HL)
 109++640E CD 0A 63         call Tiles16.spr_index_to_addr
 110++6411 CD 1A 63         call Tiles16.show_tile_on_map
 111++6414 D1               POP DE
 112++6415                  Tiles16.NEXT_TILE_POS_RIGHT
 112++6415 1C          >  INC E
 112++6416 1C          >  INC E
 113++6417
 114++6417 E1               POP HL
 115++6418 23               INC HL
 116++6419 C1               POP BC
 117++641A 10 EE            DJNZ draw_loop1
 118++641C
 119++641C D1               POP DE
 120++641D                  Tiles16.NEXT_TITLE_POS_DOWN
 120++641D 3E 40       >  LD A, #20+#20 ; 64
 120++641F 83          >  ADD A,E
 120++6420 5F          >  LD E,A
 120++6421 30 06       >  JR NC, .next_tile_pos_down_exit
 120++6423             >  ; переполнение - значит мы перешли на другую треть, прибавляем 8 к D
 120++6423 1E 00       >  LD E,00
 120++6425 3E 08       >  LD A, #8
 120++6427 82          >  ADD A,D
 120++6428 57          >  LD D,A
 120++6429             >.next_tile_pos_down_exit:
 120++6429             >  ;LD E,A
 120++6429             >; если есть переполнение - значит мы вышли за границу трети экрана, смотрим куда попали
 121++6429 C1               POP BC
 122++642A 10 DA            DJNZ draw_loop2
 123++642C
 124++642C C9               RET
 125++642D
 126++642D              ; буфер тайлов
 127++642D              buffer:
 128++642D                  DUP scrHeight*scrWidth
 129++642D 01          >    defb #01
 129++642E 01          >    defb #01
 129++642F 01          >    defb #01
 129++6430 01          >    defb #01
 129++6431 01          >    defb #01
 129++6432 01          >    defb #01
 129++6433 01          >    defb #01
 129++6434 01          >    defb #01
 129++6435 01          >    defb #01
 129++6436 01          >    defb #01
 129++6437 01          >    defb #01
 129++6438 01          >    defb #01
 129++6439 01          >    defb #01
 129++643A 01          >    defb #01
 129++643B 01          >    defb #01
 129++643C 01          >    defb #01
 129++643D 01          >    defb #01
 129++643E 01          >    defb #01
 129++643F 01          >    defb #01
 129++6440 01          >    defb #01
 129++6441 01          >    defb #01
 129++6442 01          >    defb #01
 129++6443 01          >    defb #01
 129++6444 01          >    defb #01
 129++6445 01          >    defb #01
 129++6446 01          >    defb #01
 129++6447 01          >    defb #01
 129++6448 01          >    defb #01
 129++6449 01          >    defb #01
 129++644A 01          >    defb #01
 129++644B 01          >    defb #01
 129++644C 01          >    defb #01
 129++644D 01          >    defb #01
 129++644E 01          >    defb #01
 129++644F 01          >    defb #01
 129++6450 01          >    defb #01
 129++6451 01          >    defb #01
 129++6452 01          >    defb #01
 129++6453 01          >    defb #01
 129++6454 01          >    defb #01
 129++6455 01          >    defb #01
 129++6456 01          >    defb #01
 129++6457 01          >    defb #01
 129++6458 01          >    defb #01
 129++6459 01          >    defb #01
 129++645A 01          >    defb #01
 129++645B 01          >    defb #01
 129++645C 01          >    defb #01
 129++645D 01          >    defb #01
 129++645E 01          >    defb #01
 129++645F 01          >    defb #01
 129++6460 01          >    defb #01
 129++6461 01          >    defb #01
 129++6462 01          >    defb #01
 129++6463 01          >    defb #01
 129++6464 01          >    defb #01
 129++6465 01          >    defb #01
 129++6466 01          >    defb #01
 129++6467 01          >    defb #01
 129++6468 01          >    defb #01
 129++6469 01          >    defb #01
 129++646A 01          >    defb #01
 129++646B 01          >    defb #01
 129++646C 01          >    defb #01
 129++646D 01          >    defb #01
 129++646E 01          >    defb #01
 129++646F 01          >    defb #01
 129++6470 01          >    defb #01
 129++6471 01          >    defb #01
 129++6472 01          >    defb #01
 129++6473 01          >    defb #01
 129++6474 01          >    defb #01
 129++6475 01          >    defb #01
 129++6476 01          >    defb #01
 129++6477 01          >    defb #01
 129++6478 01          >    defb #01
 129++6479 01          >    defb #01
 129++647A 01          >    defb #01
 129++647B 01          >    defb #01
 129++647C 01          >    defb #01
 129++647D 01          >    defb #01
 129++647E 01          >    defb #01
 129++647F 01          >    defb #01
 129++6480 01          >    defb #01
 129++6481 01          >    defb #01
 129++6482 01          >    defb #01
 129++6483 01          >    defb #01
 129++6484 01          >    defb #01
 129++6485 01          >    defb #01
 129++6486 01          >    defb #01
 129++6487 01          >    defb #01
 129++6488 01          >    defb #01
 129++6489 01          >    defb #01
 129++648A 01          >    defb #01
 129++648B 01          >    defb #01
 129++648C 01          >    defb #01
 129++648D 01          >    defb #01
 129++648E 01          >    defb #01
 129++648F 01          >    defb #01
 129++6490 01          >    defb #01
 129++6491 01          >    defb #01
 129++6492 01          >    defb #01
 129++6493 01          >    defb #01
 129++6494 01          >    defb #01
 129++6495 01          >    defb #01
 129++6496 01          >    defb #01
 129++6497 01          >    defb #01
 129++6498 01          >    defb #01
 129++6499 01          >    defb #01
 129++649A 01          >    defb #01
 129++649B 01          >    defb #01
 129++649C 01          >    defb #01
 129++649D 01          >    defb #01
 129++649E 01          >    defb #01
 129++649F 01          >    defb #01
 129++64A0 01          >    defb #01
 129++64A1 01          >    defb #01
 129++64A2 01          >    defb #01
 129++64A3 01          >    defb #01
 129++64A4 01          >    defb #01
 129++64A5 01          >    defb #01
 129++64A6 01          >    defb #01
 129++64A7 01          >    defb #01
 129++64A8 01          >    defb #01
 129++64A9 01          >    defb #01
 129++64AA 01          >    defb #01
 129++64AB 01          >    defb #01
 129++64AC 01          >    defb #01
 129++64AD 01          >    defb #01
 129++64AE 01          >    defb #01
 129++64AF 01          >    defb #01
 129++64B0 01          >    defb #01
 129++64B1 01          >    defb #01
 129++64B2 01          >    defb #01
 129++64B3 01          >    defb #01
 129++64B4 01          >    defb #01
 129++64B5 01          >    defb #01
 129++64B6 01          >    defb #01
 129++64B7 01          >    defb #01
 129++64B8 01          >    defb #01
 129++64B9 01          >    defb #01
 129++64BA 01          >    defb #01
 129++64BB 01          >    defb #01
 129++64BC 01          >    defb #01
 129++64BD 01          >    defb #01
 129++64BE 01          >    defb #01
 129++64BF 01          >    defb #01
 129++64C0 01          >    defb #01
 129++64C1 01          >    defb #01
 129++64C2 01          >    defb #01
 129++64C3 01          >    defb #01
 129++64C4 01          >    defb #01
 129++64C5 01          >    defb #01
 129++64C6 01          >    defb #01
 129++64C7 01          >    defb #01
 129++64C8 01          >    defb #01
 129++64C9 01          >    defb #01
 129++64CA 01          >    defb #01
 129++64CB 01          >    defb #01
 129++64CC 01          >    defb #01
 129++64CD 01          >    defb #01
 129++64CE 01          >    defb #01
 129++64CF 01          >    defb #01
 129++64D0 01          >    defb #01
 129++64D1 01          >    defb #01
 129++64D2 01          >    defb #01
 129++64D3 01          >    defb #01
 129++64D4 01          >    defb #01
 129++64D5 01          >    defb #01
 129++64D6 01          >    defb #01
 129++64D7 01          >    defb #01
 129++64D8 01          >    defb #01
 129++64D9 01          >    defb #01
 129++64DA 01          >    defb #01
 129++64DB 01          >    defb #01
 129++64DC 01          >    defb #01
 130++64DD                  EDUP
 131++64DD
 132++64DD              ENDMODULE
# file closed: /Users/random/zx-engine/core/routines/view.asm
  16++64DD                include "core/routines/input.asm"
# file opened: /Users/random/zx-engine/core/routines/input.asm
   1++64DD              MODULE input
   2++64DD
   3++64DD              waitKey:
   4++64DD AF           	xor a
   5++64DE DB FE        	in a,(0xfe)
   6++64E0 2F           	cpl
   7++64E1 E6 1F        	and 31
   8++64E3 28 F8        	jr z,waitKey
   9++64E5 C9           	ret
  10++64E6
  11++64E6              ; waitGKey:
  12++64E6              ; 	HALT
  13++64E6              ; 	XOR A
  14++64E6              ; 	LD A,#FD
  15++64E6              ; 	IN A,(#FE)
  16++64E6              ; 	BIT 4,A
  17++64E6              ; 	RET Z
  18++64E6              ; 	JR waitGKey
  19++64E6
  20++64E6              noKey:
  21++64E6 AF           	xor a
  22++64E7 DB FE        	in a,(0xfe)
  23++64E9 2F           	cpl
  24++64EA E6 1F        	and 31
  25++64EC 20 F8        	jr nz,noKey
  26++64EE C9           	ret
  27++64EF
  28++64EF              ENDMODULE
# file closed: /Users/random/zx-engine/core/routines/input.asm
  17++64EF                include "core/routines/zx7.a80"
# file opened: /Users/random/zx-engine/core/routines/zx7.a80
   1++64EF              ; -----------------------------------------------------------------------------
   2++64EF              ; ZX7 decoder by Einar Saukas, Antonio Villena & Metalbrain
   3++64EF              ; "Standard" version (69 bytes only)
   4++64EF              ; -----------------------------------------------------------------------------
   5++64EF              ; Parameters:
   6++64EF              ;   HL: source address (compressed data)
   7++64EF              ;   DE: destination address (decompressing)
   8++64EF              ; -----------------------------------------------------------------------------
   9++64EF
  10++64EF              dzx7_standard:
  11++64EF 3E 80                ld      a, $80
  12++64F1              dzx7s_copy_byte_loop:
  13++64F1 ED A0                ldi                             ; copy literal byte
  14++64F3              dzx7s_main_loop:
  15++64F3 CD 2E 65             call    dzx7s_next_bit
  16++64F6 30 F9                jr      nc, dzx7s_copy_byte_loop ; next bit indicates either literal or sequence
  17++64F8
  18++64F8              ; determine number of bits used for length (Elias gamma coding)
  19++64F8 D5                   push    de
  20++64F9 01 00 00             ld      bc, 0
  21++64FC 50                   ld      d, b
  22++64FD              dzx7s_len_size_loop:
  23++64FD 14                   inc     d
  24++64FE CD 2E 65             call    dzx7s_next_bit
  25++6501 30 FA                jr      nc, dzx7s_len_size_loop
  26++6503
  27++6503              ; determine length
  28++6503              dzx7s_len_value_loop:
  29++6503 D4 2E 65             call    nc, dzx7s_next_bit
  30++6506 CB 11                rl      c
  31++6508 CB 10                rl      b
  32++650A 38 1F                jr      c, dzx7s_exit           ; check end marker
  33++650C 15                   dec     d
  34++650D 20 F4                jr      nz, dzx7s_len_value_loop
  35++650F 03                   inc     bc                      ; adjust length
  36++6510
  37++6510              ; determine offset
  38++6510 5E                   ld      e, (hl)                 ; load offset flag (1 bit) + offset value (7 bits)
  39++6511 23                   inc     hl
  40++6512 CB 33                defb    $cb, $33                ; opcode for undocumented instruction "SLL E" aka "SLS E"
  41++6514 30 0C                jr      nc, dzx7s_offset_end    ; if offset flag is set, load 4 extra bits
  42++6516 16 10                ld      d, $10                  ; bit marker to load 4 bits
  43++6518              dzx7s_rld_next_bit:
  44++6518 CD 2E 65             call    dzx7s_next_bit
  45++651B CB 12                rl      d                       ; insert next bit into D
  46++651D 30 F9                jr      nc, dzx7s_rld_next_bit  ; repeat 4 times, until bit marker is out
  47++651F 14                   inc     d                       ; add 128 to DE
  48++6520 CB 3A                srl	d			; retrieve fourth bit from D
  49++6522              dzx7s_offset_end:
  50++6522 CB 1B                rr      e                       ; insert fourth bit into E
  51++6524
  52++6524              ; copy previous sequence
  53++6524 E3                   ex      (sp), hl                ; store source, restore destination
  54++6525 E5                   push    hl                      ; store destination
  55++6526 ED 52                sbc     hl, de                  ; HL = destination - offset - 1
  56++6528 D1                   pop     de                      ; DE = destination
  57++6529 ED B0                ldir
  58++652B              dzx7s_exit:
  59++652B E1                   pop     hl                      ; restore source address (compressed data)
  60++652C 30 C5                jr      nc, dzx7s_main_loop
  61++652E              dzx7s_next_bit:
  62++652E 87                   add     a, a                    ; check next bit
  63++652F C0                   ret     nz                      ; no more bits left?
  64++6530 7E                   ld      a, (hl)                 ; load another group of 8 bits
  65++6531 23                   inc     hl
  66++6532 17                   rla
  67++6533 C9                   ret
  68++6534              ; -----------------------------------------------------------------------------
  69++6534
# file closed: /Users/random/zx-engine/core/routines/zx7.a80
  18++6534                include "middlware/beeper.asm"
# file opened: /Users/random/zx-engine/middlware/beeper.asm
   1++6534              MODULE beeper
   2++6534
   3++6534                MACRO setBorder color
   4++6534 ~                defw beeper.set_border
   5++6534 ~                defb color
   6++6534                ENDM
   7++6534
   8++6534                MACRO laserFX
   9++6534 ~                defw beeper.laser_me
  10++6534 ~                ; defb num
  11++6534                ENDM
  12++6534
  13++6534                MACRO shiruFX num
  14++6534 ~                defw beeper.shiru_me
  15++6534 ~                defb num
  16++6534                ENDM
  17++6534
  18++6534                MACRO noise
  19++6534 ~                defw beeper.noise_me
  20++6534                ENDM
  21++6534
  22++6534                MACRO vibrFX
  23++6534 ~                defw beeper.vibr_me
  24++6534 ~                ; defb num
  25++6534                ENDM
  26++6534
  27++6534                MACRO explosFX
  28++6534 ~                defw beeper.explos_me
  29++6534 ~                ; defb num
  30++6534                ENDM
  31++6534
  32++6534              set_border:
  33++6534 7E             LD A,(HL)
  34++6535 23             INC HL
  35++6536 D3 FE          OUT (#FE), A
  36++6538 C3 7E 61       JP zxengine.process
  37++653B
  38++653B              vibr_me:
  39++653B E5             PUSH HL
  40++653C CD 64 65       CALL vibr
  41++653F E1             POP hl
  42++6540 C3 7E 61       JP zxengine.process
  43++6543
  44++6543              laser_me:
  45++6543 E5             PUSH HL
  46++6544 CD 85 65       CALL laser
  47++6547 E1             POP HL
  48++6548 C3 7E 61       JP zxengine.process
  49++654B
  50++654B              explos_me:
  51++654B E5             PUSH HL
  52++654C CD 9F 65       CALL explos
  53++654F E1             POP HL
  54++6550 C3 7E 61       JP zxengine.process
  55++6553
  56++6553              noise_me
  57++6553 ED 5F          LD A,r
  58++6555 D3 FE          OUT (#FE), A
  59++6557 C3 7E 61       JP zxengine.process
  60++655A
  61++655A              shiru_me:
  62++655A                mLDA
  62++655A 7E          >  LD A, (HL)
  62++655B 23          >  INC HL
  63++655C E5             PUSH HL
  64++655D CD 4C BD       CALL FX_SET
  65++6560 E1             POP HL
  66++6561 C3 7E 61       JP zxengine.process
  67++6564
  68++6564 26 64        vibr:  LD    H,100
  69++6566 1E 0A               LD    E,10
  70++6568 06 04               LD    B,4
  71++656A 2E 01               LD    L,1
  72++656C
  73++656C                      ;LD    A,(23624)
  74++656C                      ;AND   #38
  75++656C                      ;RRA
  76++656C                      ;RRA
  77++656C                      ;RRA
  78++656C                      ;LD    C,A
  79++656C 53           VIBR1  LD    D,E         ;продолжительность цикла спада (подъема)
  80++656D 79           VIBR2  LD    A,C
  81++656E EE 10                XOR   16
  82++6570 4F                   LD    C,A
  83++6571 E6 F8        				AND 11111000b
  84++6573 D3 FE                OUT   (254),A
  85++6575 7C                   LD    A,H         ;изменение частоты звука
  86++6576 85                   ADD   A,L
  87++6577 67                   LD    H,A
  88++6578 3D           VIBR3  DEC   A           ;цикл задержки
  89++6579 20 FD                JR    NZ,VIBR3
  90++657B 15                   DEC   D
  91++657C 20 EF                JR    NZ,VIBR2
  92++657E 7D                   LD    A,L         ;смена направления изменения частоты
  93++657F ED 44                NEG
  94++6581 6F                   LD    L,A
  95++6582 10 E8                DJNZ  VIBR1
  96++6584 C9                   RET
  97++6585
  98++6585              laser:
  99++6585 06 01          LD   B,1
 100++6587 0E C8               LD    C,200
 101++6589 26 32               LD    H,50
 102++658B                     ;LD    A,(23624)
 103++658B                     ;AND   #38
 104++658B                     ;RRA
 105++658B                     ;RRA
 106++658B                     ;RRA
 107++658B                    ;  DI
 108++658B C5           LASER1 PUSH  BC
 109++658C 6C                  LD    L,H
 110++658D              LASER2
 111++658D EE 10        			 XOR   16
 112++658F E6 F8        			 AND 11111000b
 113++6591 D3 FE               OUT   (254),A
 114++6593 44                  LD    B,H
 115++6594 10 FE               DJNZ  $
 116++6596 24                  INC   H           ;другой вариант - DEC H
 117++6597 0D                  DEC   C
 118++6598 20 F3               JR    NZ,LASER2
 119++659A 65                  LD    H,L
 120++659B C1                  POP   BC
 121++659C 10 ED               DJNZ  LASER1
 122++659E                    ;  EI
 123++659E C9                  RET
 124++659F
 125++659F              explos
 126++659F                ; B - количество повторений эффекта
 127++659F                ; D - задается длительность звучания
 128++659F                ; E начальную среднюю частоту.
 129++659F 06 01              LD    B,1
 130++65A1 16 32              LD    D,50
 131++65A3 1E FF              LD    E,-1
 132++65A5
 133++65A5 ~            			/* LD    B,1
 134++65A5 ~                  LD    D,10
 135++65A5 ~                  LD    E,200 */
 136++65A5
 137++65A5                    ;LD    B,2
 138++65A5                    ;LD    D,35
 139++65A5                    ;LD    E,100
 140++65A5
 141++65A5               ;LD    A,(23624)
 142++65A5                      ;AND   #38
 143++65A5                      ;RRA
 144++65A5                      ;RRA
 145++65A5                      ;RRA
 146++65A5                      ;LD    L,A
 147++65A5                      ; DI
 148++65A5 C5           EXPL1  PUSH  BC
 149++65A6 D5                 	PUSH  DE
 150++65A7 D5           EXPL2  PUSH  DE
 151++65A8 43           EXPL3  LD    B,E
 152++65A9 10 FE                DJNZ  $           ;задержка
 153++65AB 0A                   LD    A,(BC)      ;в паре BC один из первых 256 адресов ПЗУ
 154++65AC                      ;AND   16
 155++65AC                      ;OR    L
 156++65AC D3 FE                OUT   (254),A
 157++65AE 0C                   INC   C
 158++65AF 15                   DEC   D
 159++65B0 20 F6                JR    NZ,EXPL3
 160++65B2 D1                   POP   DE
 161++65B3                     ; Изменение высоты шума (понижение среднего тона;
 162++65B3                     ;  если заменить на DEC E, тон будет наоборот повышаться)
 163++65B3 1C                  INC   E
 164++65B4 15                  DEC   D
 165++65B5 20 F0               JR    NZ,EXPL2
 166++65B7 D1                  POP   DE
 167++65B8 C1                  POP   BC
 168++65B9 10 EA               DJNZ  EXPL1       ;повторение всего эффекта
 169++65BB                    ;  EI
 170++65BB C9                  RET
 171++65BC
 172++65BC              ENDMODULE
 173++65BC
# file closed: /Users/random/zx-engine/middlware/beeper.asm
  19++65BC                include "middlware/screenfx.asm"
# file opened: /Users/random/zx-engine/middlware/screenfx.asm
   1++65BC              MODULE screenfx
   2++65BC
   3++65BC                  MACRO FxActionCell spr_num
   4++65BC ~                    dw screenfx.fx_action_cell_me
   5++65BC ~                    db spr_num
   6++65BC                  ENDM
   7++65BC
   8++65BC                  MACRO ShowSprite pos_x, pos_y, spr_num
   9++65BC ~                    dw screenfx.show_sprite_me
  10++65BC ~                    db pos_y
  11++65BC ~                    db pos_x
  12++65BC ~                    db spr_num
  13++65BC                  ENDM
  14++65BC
  15++65BC                  MACRO ShowText msg_p
  16++65BC ~                    dw screenfx.show_info_message_me
  17++65BC ~                    dw msg_p
  18++65BC                  ENDM
  19++65BC
  20++65BC              ; ----- показать спрайт на месте действия ( например удар об стенку)
  21++65BC              fx_action_cell_me:
  22++65BC E5               PUSH HL
  23++65BD 3A 05 60         LD A, ( Vars.MapCell_xy+Point.y )
  24++65C0 21 3A 67         LD HL, map.mapPos
  25++65C3 96               SUB (HL)
  26++65C4 87               ADD A,A ; так как у нас тайлы в 2 ячейки то умножаем результат на два
  27++65C5 5F               LD E,A
  28++65C6 23               INC HL
  29++65C7 3A 06 60         LD A, ( Vars.MapCell_xy+Point.x )
  30++65CA 96               SUB (HL)
  31++65CB 87               ADD A,A ; так как у нас тайлы в 2 ячейки то умножаем результат на два
  32++65CC 57               LD D,A ; в DE - экранная позиция
  33++65CD E1               POP HL
  34++65CE                  mLDA
  34++65CE 7E          >  LD A, (HL)
  34++65CF 23          >  INC HL
  35++65D0 E5               PUSH HL
  36++65D1 CD E7 65         CALL show_sprite
  37++65D4 E1               POP HL
  38++65D5 C3 7E 61         JP zxengine.process
  39++65D8
  40++65D8              ; fx_action_cell:
  41++65D8 C9               RET
  42++65D9
  43++65D9
  44++65D9              show_sprite_me:
  45++65D9                  mLDE; в DE позиция
  45++65D9 5E          >  LD E, (HL)
  45++65DA 23          >  INC HL
  45++65DB 56          >  LD D, (HL)
  45++65DC 23          >  INC HL
  46++65DD                  mLDA
  46++65DD 7E          >  LD A, (HL)
  46++65DE 23          >  INC HL
  47++65DF E5               PUSH HL
  48++65E0 CD E7 65         CALL show_sprite
  49++65E3 E1               POP HL
  50++65E4 C3 7E 61         JP zxengine.process
  51++65E7
  52++65E7              ; ----- показать один спрайт на экране ( для эффектов )
  53++65E7              ; в DE - экранная позиция
  54++65E7              ; в A - номер спрайта
  55++65E7              show_sprite:
  56++65E7 CD 0A 63         CALL Tiles16.spr_index_to_addr; в HL у нас указатель на спрайт
  57++65EA CD B8 62         CALL math.pos_scr
  58++65ED C3 1A 63         JP Tiles16.show_tile_on_map
  59++65F0 C9               RET
  60++65F1
  61++65F1              ; ( нужна для стирания информации для подготовки текста )
  62++65F1              ; процедура очистки строчек экрана
  63++65F1              ; на входе:
  64++65F1              ; в D - начальная строка
  65++65F1              ; в E - число строчек
  66++65F1              clear_window:
  67++65F1 7B               LD A, E
  68++65F2 32 FD 65         LD (clear_window_row_num+1), A
  69++65F5 5A               LD E, D
  70++65F6 16 00            LD D, 0
  71++65F8 CD B8 62         CALL math.pos_scr; в DE - экранный адрес
  72++65FB D5               PUSH DE; он еще нам пригодится
  73++65FC
  74++65FC              clear_window_row_num:
  75++65FC 06 00            LD B, #00
  76++65FE              next_row_loop:
  77++65FE C5               PUSH BC
  78++65FF D5               PUSH DE
  79++6600
  80++6600              ; цикл по заполнению одной строки
  81++6600 AF               XOR A
  82++6601 06 20            LD B, 32; экранчик шириной 32 знакоместа
  83++6603              clean_row_loop:
  84++6603 D5               PUSH DE
  85++6604                  DUP 8
  86++6604 12          >    LD (DE),A
  87++6605 14          >    INC D
  86++6606 12          >    LD (DE),A
  87++6607 14          >    INC D
  86++6608 12          >    LD (DE),A
  87++6609 14          >    INC D
  86++660A 12          >    LD (DE),A
  87++660B 14          >    INC D
  86++660C 12          >    LD (DE),A
  87++660D 14          >    INC D
  86++660E 12          >    LD (DE),A
  87++660F 14          >    INC D
  86++6610 12          >    LD (DE),A
  87++6611 14          >    INC D
  86++6612 12          >    LD (DE),A
  87++6613 14          >    INC D
  88++6614                  EDUP
  89++6614 D1               POP DE
  90++6615 13               INC DE
  91++6616 10 EB            DJNZ clean_row_loop ;  цикл по одной строке
  92++6618
  93++6618 D1               POP DE; сняли со стека экранный адрес
  94++6619 CD EF 62         CALL math.down_pos; перешли на следующую строчку
  95++661C C1               POP BC
  96++661D 10 DF            DJNZ next_row_loop
  97++661F
  98++661F                  ;очистили все данные, теперь цвет
  99++661F D1               POP DE
 100++6620 CD D6 62         CALL math.addr_to_attr
 101++6623 3A FD 65         LD A, (clear_window_row_num+1)
 102++6626 47               LD B,A
 103++6627              clean_row_loop2:
 104++6627 C5               PUSH BC
 105++6628 06 20            LD B, 32; экранчик
 106++662A 3E 04            LD A, %00000100
 107++662C              clean_row_loop22:
 108++662C 12               LD (DE), A
 109++662D 13               INC DE
 110++662E 10 FC            DJNZ clean_row_loop22
 111++6630
 112++6630 C1               POP BC
 113++6631 10 F4            DJNZ clean_row_loop2
 114++6633
 115++6633 C9               RET
 116++6634
 117++6634
 118++6634              ; Из журнала Deja Vu #04, Кемерово, 01.04.98
 119++6634              ;  (c)Колотов Сеpгей, г.Шадpинск, SerzhSoft
 120++6634
 121++6634 00 00        str_frames_ptr: dw 00; указатель на строку куда впечатывать символы
 122++6636
 123++6636              PDEC_W ;Печать десятичного числа в HL (00000..65535)
 124++6636 ED 53 34 66      LD (str_frames_ptr), DE
 125++663A E5               PUSH    HL            ;закинули печатаемое число на стек
 126++663B 21 5D 66         LD      HL,DECTB_W    ;адрес таблицы степеней десятки
 127++663E 06 05            LD      B,#05         ;макс. возможное количество цифр
 128++6640
 129++6640              LP_PDW1
 130++6640 AF               XOR     A             ;обнулили счетчик и флаг C для SBC
 131++6641 5E               LD      E,(HL)        ;взяли текущую степень
 132++6642 23               INC     HL            ; десятки из таблицы
 133++6643 56               LD      D,(HL)        ; и поместили в DE
 134++6644 23               INC     HL            ;перешли к след. элементу таблицы
 135++6645 E3               EX      (SP),HL       ;адрес эл-та <-> печатаемое число
 136++6646
 137++6646              LP_PDW2:
 138++6646 3C               INC     A             ;увеличиваем счетчик
 139++6647 ED 52            SBC     HL,DE         ;вычитаем текущую степень десятки
 140++6649 30 FB            JR      NC,LP_PDW2    ;повторяем пока HL>=0
 141++664B 19               ADD     HL,DE         ;HL=HL mod DE; A=HL div DE
 142++664C C6 2F            ADD     A,"0"-1       ;перевод A в ASCII-код ("0".."9")
 143++664E E5               PUSH HL
 144++664F 2A 34 66         LD HL, (str_frames_ptr)
 145++6652 77               LD (HL), A
 146++6653 23               INC HL
 147++6654 22 34 66         LD (str_frames_ptr), HL
 148++6657 E1               POP HL
 149++6658                  ; RST     #10           ;печать десятичной цифры
 150++6658 E3               EX      (SP),HL       ;HL=адрес эл-та, число -> на стек
 151++6659 10 E5            DJNZ    LP_PDW1       ;цикл по цифрам
 152++665B E1               POP     HL            ;убрали оставшийся ноль со стека
 153++665C C9               RET                   ;выход из процедуры
 154++665D
 155++665D              DECTB_W  ;Таблица степеней десятки;
 156++665D 10 27            dw 10000
 157++665F E8 03            dw 1000
 158++6661 64 00            dw 100
 159++6663 0A 00            dw 10
 160++6665 01 00            dw 1
 161++6667
 162++6667              show_frames:
 163++6667
 164++6667 16 17            LD D, 23
 165++6669 1E 01            LD E, 1
 166++666B CD F1 65         CALL screenfx.clear_window
 167++666E
 168++666E 11 9D 66         LD DE, str_frames
 169++6671 2A 93 6C         LD HL, (interrupt.frame_counter)
 170++6674                  ; LD HL, (zxengine.frames_cnt)
 171++6674                  ; LD HL, (zxengine.frames_measured)
 172++6674 CD 36 66         CALL PDEC_W
 173++6677 21 9D 66         LD HL, str_frames
 174++667A 11 17 00         LD DE, #0017
 175++667D CD 26 67         CALL text.print_at
 176++6680
 177++6680 C9               RET
 178++6681
 179++6681              show_info_message_me:
 180++6681                  mLDE
 180++6681 5E          >  LD E, (HL)
 180++6682 23          >  INC HL
 180++6683 56          >  LD D, (HL)
 180++6684 23          >  INC HL
 181++6685 E5               PUSH HL
 182++6686
 183++6686 D5               PUSH DE
 184++6687 E1               POP HL
 185++6688 CD 8F 66         CALL show_info_message
 186++668B
 187++668B                  ; CALL input.noKey
 188++668B                  ; CALL input.waitKey
 189++668B
 190++668B E1               POP HL
 191++668C C3 7E 61         JP zxengine.process
 192++668F
 193++668F              ; в HL указатель на сообщение;
 194++668F              ; хорошо бы проверять сверху или снизу выводить сообщение
 195++668F              show_info_message:
 196++668F 16 16            LD D, 22
 197++6691 1E 02            LD E, 2
 198++6693 CD F1 65         CALL screenfx.clear_window
 199++6696
 200++6696                  ; CALL input.noKey
 201++6696                  ; CALL input.waitKey
 202++6696
 203++6696 11 16 00         LD DE, #0016
 204++6699 CD 26 67         CALL text.print_at
 205++669C C9               RET
 206++669D
 207++669D 30 30 30 30  str_frames: defb "00000",0
 207++66A1 30 00
 208++66A3
 209++66A3              ENDMODULE
# file closed: /Users/random/zx-engine/middlware/screenfx.asm
  20++66A3                include "middlware/text.asm"
# file opened: /Users/random/zx-engine/middlware/text.asm
   1++66A3              MODULE text
   2++66A3
   3++66A3                ; MACRO printAt posx,posy,ptext
   4++66A3                ;   defw text.print_at_me
   5++66A3                ;   defb posx, posy
   6++66A3                ;   defw ptext
   7++66A3                ; ENDM
   8++66A3
   9++66A3              ; печать текста сверху экрана
  10++66A3                MACRO printScreen color, text
  11++66A3 ~                  dw text.print_screen_me
  12++66A3 ~                  db color
  13++66A3 ~                  dw text
  14++66A3                ENDM
  15++66A3
  16++66A3              include "../core/routines/text68.asm"
# file opened: /Users/random/zx-engine/middlware/../core/routines/text68.asm
   1++66A3                MODULE Text68
   2++66A3
   3++66A3              ; переводим при печати на одну строчку вниз
   4++66A3              ; внутренняя служебная процедура
   5++66A3              make_down_
   6++66A3 7B             LD A, E
   7++66A4 E6 E0          AND 11100000b
   8++66A6 5F             LD E, A
   9++66A7 CD EF 62       call math.down_pos
  10++66AA 0E 07          LD C,7
  11++66AC 23             INC HL
  12++66AD C3 B2 66       JP LOOP
  13++66B0
  14++66B0              ; НЕ УЧИТЫВАЕТ DOWN_HL !!!!!!
  15++66B0              ; ВСЕ В ПРЕДЕЛАХ ОДНОЙ ТРЕТИ ЭКРАНА!!!! :E
  16++66B0              ; DE - screen pointer
  17++66B0              ; HL - text pointer
  18++66B0              print_68at:
  19++66B0 0E 07          LD C, 7
  20++66B2              LOOP:
  21++66B2              ;-----
  22++66B2 7E             LD A,(HL)
  23++66B3 B7             OR A
  24++66B4 CA DD 66       JP Z, EXIT
  25++66B7 FE 0D          CP 13
  26++66B9 CA A3 66       JP Z, make_down_
  27++66BC
  28++66BC E5             PUSH HL
  29++66BD CD DE 66       CALL PRINT_68
  30++66C0
  31++66C0              ; ----- CALC_CE ----
  32++66C0 79             LD A,C
  33++66C1 D6 06          SUB 6
  34++66C3 30 03          JR NC, $+5;calc_ce_end
  35++66C5 1C             INC E
  36++66C6 E6 07          AND 7
  37++66C8              calc_ce_end:
  38++66C8 4F             LD C,A
  39++66C9
  40++66C9 7B             LD A, E
  41++66CA E6 1F          AND 31
  42++66CC FE 1F          CP 31
  43++66CE 20 09          JR NZ, no_next_pos
  44++66D0
  45++66D0 7B             LD A, E
  46++66D1 E6 E0          AND 11100000b
  47++66D3 5F             LD E, A
  48++66D4 CD EF 62       call math.down_pos
  49++66D7 0E 07          LD C,7
  50++66D9              no_next_pos:
  51++66D9
  52++66D9              ;------
  53++66D9 E1             POP HL
  54++66DA 23             INC HL
  55++66DB 18 D5          JR LOOP
  56++66DD              EXIT:
  57++66DD
  58++66DD                ;LD DE, #4000
  59++66DD                ;LD HL, TEXT
  60++66DD
  61++66DD C9             RET
  62++66DE
  63++66DE              PRINT_68:
  64++66DE D5             PUSH DE
  65++66DF 6F             LD L,A
  66++66E0 41             LD B,C
  67++66E1 3E 80          LD A,#80 ; ( 10000000 )
  68++66E3 0F             RRCA
  69++66E4 10 FD          DJNZ $-1
  70++66E6 32 F0 66       LD (PRN+1),A
  71++66E9 26 A5          LD H, HIGH p68_font
  72++66EB 06 08          LD B,8
  73++66ED              PRGO:
  74++66ED E5             PUSH HL
  75++66EE 6E             LD L,(HL)
  76++66EF              PRN:
  77++66EF 26 01          LD H,1
  78++66F1              PR1:
  79++66F1 29             ADD HL,HL
  80++66F2 29             ADD HL,HL
  81++66F3 30 FC          JR NC,PR1
  82++66F5 1A             LD A,(DE)
  83++66F6 B4             OR H
  84++66F7 12             LD (DE),A
  85++66F8                ; out(#fe),a
  86++66F8                ; halt
  87++66F8 1C             INC E
  88++66F9 7D             LD A,L
  89++66FA 12             LD (DE),A
  90++66FB                ; out(#fe),a
  91++66FB 1D             DEC E
  92++66FC 14             INC D
  93++66FD E1             POP HL
  94++66FE 24             INC H
  95++66FF 10 EC          DJNZ PRGO
  96++6701 D1             POP DE
  97++6702 C9             RET
  98++6703
  99++6703                ENDMODULE
 100++6703
# file closed: /Users/random/zx-engine/middlware/../core/routines/text68.asm
  17++6703
  18++6703              print_screen_me:
  19++6703 E5               PUSH HL
  20++6704 CD E6 64         CALL input.noKey
  21++6707 16 00            LD D, 0
  22++6709 1E 18            LD E, 24
  23++670B CD F1 65         CALL screenfx.clear_window; очищаем экран
  24++670E E1               POP HL
  25++670F                  mLDA; загрузили цвет
  25++670F 7E          >  LD A, (HL)
  25++6710 23          >  INC HL
  26++6711 E5               PUSH HL
  27++6712 CD 2D 67         CALL screen.set_colors
  28++6715 E1               POP HL
  29++6716                  mLDE
  29++6716 5E          >  LD E, (HL)
  29++6717 23          >  INC HL
  29++6718 56          >  LD D, (HL)
  29++6719 23          >  INC HL
  30++671A E5               PUSH HL
  31++671B 21 00 40         LD HL, SCREEN_ADDR
  32++671E EB               EX HL, DE
  33++671F CD B0 66         CALL Text68.print_68at
  34++6722 E1               POP HL
  35++6723 C3 7E 61         JP zxengine.process
  36++6726
  37++6726              ; print_at_me:
  38++6726              ;   mLDE
  39++6726              ;   mLBC
  40++6726              ;   PUSH HL ; запомнили указатель скрипта
  41++6726              ;   PUSH BC
  42++6726              ;   POP HL
  43++6726              ;   CALL print_at
  44++6726              ;   POP HL
  45++6726              ;   JP zxengine.process
  46++6726
  47++6726                ; На входе
  48++6726                ; в DE координаты XY
  49++6726                ; в HL - указатель на текст
  50++6726              print_at:
  51++6726 CD B8 62       CALL math.pos_scr; рассчитали адрес на экране по координатам
  52++6729 CD B0 66       CALL Text68.print_68at
  53++672C C9             RET
  54++672D
  55++672D              ENDMODULE
  56++672D
# file closed: /Users/random/zx-engine/middlware/text.asm
  21++672D                include "middlware/screen.asm"
# file opened: /Users/random/zx-engine/middlware/screen.asm
   1++672D              MODULE screen
   2++672D
   3++672D                ; MACRO setScreen inc_
   4++672D                ;   defw screen.set_colors_me
   5++672D                ;   defb inc_
   6++672D                ; ENDM
   7++672D ~            /*
   8++672D ~              MACRO setStatic
   9++672D ~                defw screen.statica
  10++672D ~              ENDM
  11++672D ~            */
  12++672D              ; set_colors_me:
  13++672D              ;   mLDA
  14++672D              ;   PUSH HL
  15++672D              ;   CALL set_colors
  16++672D              ;   POP HL
  17++672D              ;   JP zxengine.process
  18++672D
  19++672D              set_colors:
  20++672D 21 00 58       LD HL,ATTR_ADDR
  21++6730 77             LD (HL),A
  22++6731 11 01 58       LD DE,ATTR_ADDR+1
  23++6734 01 00 03       LD BC,768
  24++6737 ED B0          LDIR
  25++6739 C9             RET
  26++673A ~              /* LD (set_colors_loop+1),A
  27++673A ~              LD HL,ATTR_ADDR
  28++673A ~            set_colors_loop:
  29++673A ~              LD (HL), 0
  30++673A ~              INC HL
  31++673A ~              LD A,H
  32++673A ~              CP #5B
  33++673A ~              JR NZ,set_colors_loop */
  34++673A
  35++673A
  36++673A ~            /*
  37++673A ~            statica:
  38++673A ~              PUSH HL
  39++673A ~              XOR A
  40++673A ~              LD C,A
  41++673A ~              LD E,A
  42++673A ~              LD H,#18
  43++673A ~              LD B,H
  44++673A ~              LD H,E
  45++673A ~              LD D,#40
  46++673A ~              LD L,A
  47++673A ~              ADD A
  48++673A ~              ADD A
  49++673A ~              ADD L
  50++673A ~              INC A
  51++673A ~              LDIR
  52++673A ~              POP HL
  53++673A ~              JP zxengine.process
  54++673A ~            */
  55++673A              ENDMODULE
  56++673A
  57++673A ~            /*
  58++673A ~              ld HL,ATTR_ADDR
  59++673A ~              LD C,24
  60++673A ~            set_colors_loop:
  61++673A ~              LD B,32:
  62++673A ~            set_colors_loop_2:
  63++673A ~              LD (HL),A
  64++673A ~              INC HL
  65++673A ~              DJNZ set_colors_loop_2     ;столбцы
  66++673A ~              // sub 8
  67++673A ~              // and 56 // если включить то будет радуга %)
  68++673A ~              DEC C
  69++673A ~              JR NZ,set_colors_loop                        ;строки
  70++673A ~            */
  71++673A
# file closed: /Users/random/zx-engine/middlware/screen.asm
  22++673A                include "middlware/map.asm"
# file opened: /Users/random/zx-engine/middlware/map.asm
   1++673A                  MODULE map
   2++673A
   3++673A              mapPos:
   4++673A 00 00            Point 0,0; координаты верхнего левого спрайта карты для текущего отображения
   5++673C
   6++673C              scrWindowMaxX equ mapSize-scrWidth+1  ; максимальная позиция окна отображения карты, иначе выходим за границу
   7++673C              scrWindowMaxY equ mapSize-scrHeight+1 ; максимальная позиция окна отображения карты, иначе выходим за границу
   8++673C              scrWidthHalf equ scrWidth/2;  8
   9++673C              scrHeightHalf equ scrHeight/2; 6
  10++673C
  11++673C              ; На входе координаты ячейки которую хотим поместить в центр вывода на экране
  12++673C              ; На выходе: изменяем mapPos
  13++673C              ; Вход: DE - pos,  D - x, E - y
  14++673C              center_map:
  15++673C              centr_X:
  16++673C 7A             LD A,D; проверяем X на минимальность
  17++673D D6 08          SUB scrWidthHalf; вычитаем из A половину ширины экрана
  18++673F 30 04          JR NC, centr_X_max
  19++6741 16 00          LD D, #00; обнуляем X
  20++6743 18 09          JR centr_Y
  21++6745              centr_X_max:
  22++6745 FE 11          CP scrWindowMaxX
  23++6747 38 04          JR C,set_x
  24++6749 16 10          LD D, scrWindowMaxX-1
  25++674B 18 01          JR centr_Y
  26++674D              set_x:
  27++674D 57             LD D, A
  28++674E                ;JR centr_Y
  29++674E              centr_Y:
  30++674E 7B             LD A, E; проверяем X на минимальность
  31++674F D6 05          SUB scrHeightHalf
  32++6751 30 05          JR NC, centr_Y_max
  33++6753 1E 00          LD E, #00; обнуляем X
  34++6755 C3 62 67       JP center_map_end
  35++6758              centr_Y_max:
  36++6758 FE 16          CP scrWindowMaxY
  37++675A 38 05          JR C,set_y
  38++675C 1E 15          LD E, scrWindowMaxY-1
  39++675E C3 62 67       JP center_map_end
  40++6761              set_y:
  41++6761 5F             LD E, A
  42++6762              center_map_end:
  43++6762 ED 53 3A 67    LD (mapPos),DE
  44++6766
  45++6766              look_at_map:
  46++6766 ED 5B 3A 67    LD DE, (mapPos)
  47++676A
  48++676A              ; переводим pos в указатель на ячейку в массиве карты
  49++676A              ; Вход: DE - pos,  D - x, E - y
  50++676A              ; Выход: HL - указатель
  51++676A              calc_pos:
  52++676A 21 00 00       LD HL, #0000
  53++676D D5             PUSH DE
  54++676E 4A             LD C,D; запоминаем posX в C
  55++676F 7B             LD A,E
  56++6770 FE 00          CP 00
  57++6772 28 08          JR Z, no_mul; если ноль по Y то не будем прибавлять ничего
  58++6774 43             LD B,E; кидаем posY в B - по B будет автодекрементный цикл
  59++6775 16 00          LD D,0
  60++6777 1E 20          LD E, mapSize
  61++6779              mul_loop
  62++6779 19             ADD HL,DE
  63++677A 10 FD          DJNZ mul_loop
  64++677C              no_mul
  65++677C D1             POP DE
  66++677D 5A             LD E,D
  67++677E 16 00          LD D,0
  68++6780 19             ADD HL,DE; в HL у нас
  69++6781              ;mapArray_ptr:
  70++6781 11 13 D4       LD DE, MAP_SET
  71++6784 19             ADD HL, DE
  72++6785 C9             RET; нельзя отказаться от RET здесь!! - эта процедура используется еще для добавления спрайтов на карту!!!
  73++6786
  74++6786              ; ; ставим на карту новый спрайт
  75++6786              ; ; Вход: DE - pos,  D - x, E - y
  76++6786              ; ; A - спрайт
  77++6786              ; set_cell:
  78++6786              ;   PUSH AF
  79++6786              ;   call calc_pos
  80++6786
  81++6786                  ENDMODULE
# file closed: /Users/random/zx-engine/middlware/map.asm
  23++6786                include "middlware/defines/Vars.asm" ; если разместить в начале, то тупой компилятор ругается на forvard reference из-за ссылки на zxengine.varsTab несмотря на два прохода
# file opened: /Users/random/zx-engine/middlware/defines/Vars.asm
   1++6786              MODULE Vars
   2++6786
   3++6786              MAX_BIOCONTAINERS_FOR_POWER_ON equ 6; максимальное кол-во биоконтейнеров для запуска энергии
   4++6786
   5++6786              ; системные переменные в Engine для использования
   6++6786              var_act equ 0; // переменная 0 - действие
   7++6786              var_ret equ 1; // переменная 1 - что возвратили из скрипта
   8++6786              var_pos_y equ 2
   9++6786              var_pos_x equ 3
  10++6786              MapCell_xy equ zxengine.varsTab+var_pos_y; положение воздействия автоматом доступно из скриптов если пишется в переменные Engine =)
  11++6786              var_item_id equ 4; id активного предмета
  12++6786              game_over equ 5; вариант окончания игры
  13++6786              cursor_pos_y equ 6
  14++6786              cursor_pos_x equ 7
  15++6786              Cursor_pos equ zxengine.varsTab+cursor_pos_y; позиция курсора на экране
  16++6786              Cursor_pos_y equ zxengine.varsTab+cursor_pos_y; позиция курсора на экране
  17++6786              Cursor_pos_x equ zxengine.varsTab+cursor_pos_x; позиция курсора на экране
  18++6786              var_mode equ 8; текущий режим игры: 0 - игрок двигается, 1 - курсор двигается
  19++6786              power_on equ 9; сколько контейнеров подключено в энергостанции
  20++6786              alert_code_found: equ 10; найдены коды активации протокола
  21++6786              ENDMODULE
  22++6786
# file closed: /Users/random/zx-engine/middlware/defines/Vars.asm
  24++6786                include "middlware/entities.asm"
# file opened: /Users/random/zx-engine/middlware/entities.asm
   1++6786              MODULE Entities
   2++6786
   3++6786                MACRO SetMapCell value_p
   4++6786 ~                defw Entities.set_map_cell_me
   5++6786 ~                defb value_p
   6++6786                ENDM
   7++6786
   8++6786                MACRO SetMapCellOnHero value_p
   9++6786 ~                defw Entities.set_map_cell_on_hero_me
  10++6786 ~                defb value_p
  11++6786                ENDM
  12++6786
  13++6786              ; одеваем ячейку карты на героя - item_id то что становится на герое,
  14++6786              ; cell_id - что становится на земле вместо надетой вещи
  15++6786              ; пока будет так потом надо где-то хранить "исходный" спрайт игрока чтобы
  16++6786              ; автоматом его возвращать, но потом
  17++6786              ; "Снять" здесь нет, просто одеваем спрайт игрока без скафандра )
  18++6786                MACRO WearItem item_, cell_
  19++6786 ~                defw Entities.wear_item_me
  20++6786 ~                defb cell_
  21++6786 ~                defb item_
  22++6786                ENDM
  23++6786
  24++6786                ; ; в var_ret возвращаем спрайт в который одет герой
  25++6786                MACRO GetWearItem
  26++6786 ~                defw Entities.get_wear_item_me
  27++6786                ENDM
  28++6786
  29++6786              ; для корректного вызова скрипта обработки предмета
  30++6786              ; нужно знать откуда брать его id -
  31++6786              ;       предмет может быть в руках персонажа
  32++6786              ;       предмет может лежать на карте
  33++6786              ;       или это может быть просто ячейка карты
  34++6786              ; поэтому все это придется закодировать в CharDo
  35++6786              ; а все богатство возможных последствий придется закодировать в
  36++6786              ; скриптах
  37++6786
  38++6786                MACRO CharRotMove dir_p
  39++6786 ~                defw Entities.char_rot_move_me
  40++6786 ~                defb dir_p
  41++6786                ENDM
  42++6786
  43++6786                MACRO CharDoDir action_p
  44++6786 ~                defw Entities.char_do_dir_me
  45++6786 ~                defb action_p
  46++6786                ENDM
  47++6786
  48++6786                ; MACRO CharDo action_p, dir_p
  49++6786                ;   defw Entities.char_do_me
  50++6786                ;   defb dir_p
  51++6786                ;   defb action_p
  52++6786                ; ENDM
  53++6786
  54++6786                ; MACRO CharDoForward dir_p
  55++6786                ;   defw Entities.char_do_forward_me
  56++6786                ;   defb dir_p
  57++6786                ; ENDM
  58++6786
  59++6786                ; MACRO CharRotLeft
  60++6786                ;   defw Entities.char_rot_left_me
  61++6786                ; ENDM
  62++6786
  63++6786                ; MACRO CharRotRight
  64++6786                ;   defw Entities.char_rot_right_me
  65++6786                ; ENDM
  66++6786
  67++6786              activePersonage_ptr:
  68++6786 00 00          dw #0000 ; указатель на текущего персонажа
  69++6788              CurPersonageNum:
  70++6788 00             db #00 ; текущий номер персонажа ( от 0 до PersonagesNum )
  71++6789              MapCell_ptr:
  72++6789 00 00          dw #0000 ;указатель на ячейку карты на которую воздействует персонаж ( заполняется в процедуре charCheckAction )
  73++678B              ActiveItem_ptr:
  74++678B 00 00          dw #0000 ; указатель на используемый предмет
  75++678D              ActiveItem_ptr_ground:
  76++678D 00 00          dw #0000 ; указатель на используемый предмет на земле
  77++678F              ; ActiveItemType_ptr:
  78++678F                ; dw #0000 ; указатель на тип используемого предмета
  79++678F
  80++678F              char_rot_move_me:
  81++678F                mLDB
  81++678F 46          >  LD B, (HL)
  81++6790 23          >  INC HL
  82++6791 E5             PUSH HL
  83++6792 CD B4 68       CALL char_rot_move
  84++6795 E1             POP HL
  85++6796 C3 7E 61       JP zxengine.process
  86++6799
  87++6799              ; char_do_me:
  88++6799              ;   mLBC
  89++6799              ;   PUSH HL
  90++6799              ;   CALL char_do
  91++6799              ;   POP HL
  92++6799              ;   JP zxengine.process
  93++6799
  94++6799              char_do_dir_me:
  95++6799                mLDB
  95++6799 46          >  LD B, (HL)
  95++679A 23          >  INC HL
  96++679B E5             PUSH HL
  97++679C CD CE 68       CALL char_do_dir
  98++679F E1             POP HL
  99++67A0 C3 7E 61       JP zxengine.process
 100++67A3
 101++67A3              ; char_do_forward_me:
 102++67A3              ;   mLDB
 103++67A3              ;   PUSH HL
 104++67A3              ;   LD IX, (activePersonage_ptr)
 105++67A3              ;   ; CALL char_do
 106++67A3              ;   LD C, (IX+Hero.dir)
 107++67A3              ;   CALL char_do
 108++67A3              ;   POP HL
 109++67A3              ;   JP zxengine.process
 110++67A3
 111++67A3              wear_item_me:
 112++67A3                mLBC
 112++67A3 4E          >  LD C, (HL)
 112++67A4 23          >  INC HL
 112++67A5 46          >  LD B, (HL)
 112++67A6 23          >  INC HL
 113++67A7 E5             PUSH HL
 114++67A8 CD AF 67       CALL wear_item
 115++67AB                ; CALL Entities.lookChar
 116++67AB E1             POP HL
 117++67AC C3 7E 61       JP zxengine.process
 118++67AF
 119++67AF              ; на входе в B - что одеваем
 120++67AF              ; , C - что остается на земле
 121++67AF              wear_item
 122++67AF C5             PUSH BC
 123++67B0 C5             PUSH BC
 124++67B1 79             LD A, C
 125++67B2 CD CA 6A       CALL set_map_cell
 126++67B5 C1             POP BC
 127++67B6 DD 2A 86 67    LD IX, (Entities.activePersonage_ptr)
 128++67BA 78             LD A, B
 129++67BB DD 77 03       LD ( IX + Hero.sprite ), A
 130++67BE DD 77 04       LD ( IX + Hero.base_spr), A
 131++67C1 CD 81 68       CALL Entities.lookChar
 132++67C4 C1             POP BC
 133++67C5 78             LD A, B
 134++67C6 CD CA 6A       CALL set_map_cell
 135++67C9 C9             RET
 136++67CA
 137++67CA              get_wear_item_me:
 138++67CA                ; INC HL
 139++67CA E5             PUSH HL
 140++67CB DD 2A 86 67    LD IX, (Entities.activePersonage_ptr)
 141++67CF DD 7E 04       LD A, ( IX+Hero.base_spr ) ; запомнили одежду
 142++67D2                setVar Vars.var_ret
 142++67D2 32 04 60    >    LD ( zxengine.varsTab + Vars.var_ret ), A
 143++67D5 E1             POP HL
 144++67D6 C3 7E 61       JP zxengine.process
 145++67D9
 146++67D9              set_map_cell_me:
 147++67D9                mLDA
 147++67D9 7E          >  LD A, (HL)
 147++67DA 23          >  INC HL
 148++67DB E5             PUSH HL
 149++67DC CD CA 6A       CALL set_map_cell
 150++67DF E1             POP HL
 151++67E0 C3 7E 61       JP zxengine.process
 152++67E3
 153++67E3              set_map_cell_on_hero_me
 154++67E3                mLDA
 154++67E3 7E          >  LD A, (HL)
 154++67E4 23          >  INC HL
 155++67E5 E5             PUSH HL
 156++67E6 CD ED 67       CALL set_map_cell_on_hero
 157++67E9 E1             POP HL
 158++67EA C3 7E 61       JP zxengine.process
 159++67ED
 160++67ED              ; устанавливаем землю под ноги героя
 161++67ED              ; в A - индекс типа ячейки
 162++67ED              set_map_cell_on_hero:
 163++67ED                ; PUSH AF
 164++67ED DD 2A 86 67    LD IX, (Entities.activePersonage_ptr)
 165++67F1 DD 77 05       LD (IX+Hero.ground), A
 166++67F4 C9             RET
 167++67F5                ; LD D, (IX+Hero.pos.x)
 168++67F5                ; LD E, (IX+Hero.pos.y)
 169++67F5                ; POP AF
 170++67F5                ; JP set_map_cell_DE
 171++67F5
 172++67F5              ; на входе в A - индекс типа ячейки
 173++67F5              ; на выходе - в HL указатель на массив с ячейкой
 174++67F5              calc_cell_type:
 175++67F5 11 05 00       LD DE, CellType
 176++67F8 CD 99 62       CALL math.mul_ADE
 177++67FB 11 3C AE       LD DE, CELL_TYPES
 178++67FE 19             ADD HL, DE
 179++67FF C9             RET
 180++6800
 181++6800              ; по номеру ячейки вызываем скрипт обработки
 182++6800              ; на входе в A - номер ячейки
 183++6800              ; на выходе хм.. должен быть результат в Vars.var_ret = 1 то успешно
 184++6800              ; .... гадит в HL, IY
 185++6800              call_cell_script:
 186++6800 CD F5 67       CALL calc_cell_type; получили в HL указатель на описание ячейки
 187++6803 E5             PUSH HL
 188++6804 FD E1          POP IY
 189++6806 3E 01          LD A, 1
 190++6808                setVar Vars.var_ret; возвращаем по умолчанию 1
 190++6808 32 04 60    >    LD ( zxengine.varsTab + Vars.var_ret ), A
 191++680B FD 6E 02       LD L, (IY+CellType.script_ptr)
 192++680E FD 66 03       LD H, (IY+CellType.script_ptr+1)
 193++6811 CD 7E 61       CALL zxengine.process
 194++6814 C9             RET
 195++6815
 196++6815              ; ------- инициализация на карте всех персонажей из CHAR_SET
 197++6815              initHeroes:
 198++6815 21 13 D8       LD HL, CHARS_SET
 199++6818              PersonagesNum_ptr:
 200++6818 06 01          LD B, PersonagesNum
 201++681A              init_loop: ; пробегаемся по всем персонажам и размещаем их на карте
 202++681A 11 0B 00       LD DE, Hero
 203++681D C5             PUSH BC
 204++681E D5             PUSH DE
 205++681F E5             PUSH HL
 206++6820
 207++6820 E5             PUSH HL
 208++6821 DD E1          POP IX
 209++6823
 210++6823 DD 56 01       LD D, (IX+Hero.pos.x)
 211++6826 DD 5E 00       LD E, (IX+Hero.pos.y)
 212++6829 CD 6A 67       call map.calc_pos
 213++682C 7E             LD A,(HL)
 214++682D DD 77 05       LD (IX+Hero.ground),A; ячейку карты ставим на пол персонажа
 215++6830 DD 7E 03       LD A,(IX+Hero.sprite)
 216++6833 77             LD (HL),A ; ставим спрайт персонажа на карту
 217++6834 E1             POP HL
 218++6835 D1             POP DE
 219++6836 C1             POP BC
 220++6837 19             ADD HL, DE
 221++6838 10 E0          DJNZ init_loop
 222++683A C3 41 68       JP firstChar
 223++683D
 224++683D              ; ------- циклический переход на следующего героя ( если был последний то на первого )
 225++683D              loopNextChar:
 226++683D CD 4D 68       CALL nextChar
 227++6840 C0             RET NZ
 228++6841              firstChar:
 229++6841 11 13 D8       LD DE, CHARS_SET
 230++6844 ED 53 86 67    ld (activePersonage_ptr), DE
 231++6848 AF             XOR A
 232++6849 32 88 67       LD (CurPersonageNum), A
 233++684C C9             RET
 234++684D
 235++684D              ; ------- переход на следующего героя
 236++684D              ; на выходе если у нас признак Z в 1 значит достилги конца массива
 237++684D              nextChar:
 238++684D 3A 88 67       LD A, (CurPersonageNum)
 239++6850 3C             INC A
 240++6851 FE 01          CP PersonagesNum
 241++6853 C8             RET Z; если у нас обнулился счетчик - возвращаемся
 242++6854 32 88 67       LD (CurPersonageNum), A
 243++6857 ED 5B 86 67    LD DE, (activePersonage_ptr)
 244++685B 21 0B 00       LD HL, Hero
 245++685E 19             ADD HL, DE
 246++685F 22 86 67       LD (activePersonage_ptr), HL
 247++6862 F6 02          OR 2
 248++6864 C9             RET
 249++6865
 250++6865              ; ------- вычислить координаты курсора на экране который указывает на текущего героя
 251++6865              ; на выходе в HL позиция на экране где находится наш герой
 252++6865              ; calc_hero_cursor_pos:
 253++6865                ; LD IX, (activePersonage_ptr)
 254++6865                ; LD BC, (map.mapPos)
 255++6865                ; LD A, (IX+Hero.pos.x)
 256++6865                ; SUB B
 257++6865                ; LD H,A
 258++6865                ; LD A, (IX+Hero.pos.y)
 259++6865                ; SUB C
 260++6865                ; LD L,A
 261++6865                ; RET
 262++6865
 263++6865              ; ------- показать информацию о ячейке на которую смотрит персонаж
 264++6865              ; TODO на данный момент учитывает только спрайты с карты
 265++6865              lookCharSeeCellInfo:
 266++6865 DD 2A 86 67    LD IX, (activePersonage_ptr)
 267++6869 DD 7E 02       LD A, (IX+Hero.dir)
 268++686C CD 29 6A       CALL calc_action_pos; в MapCell_ptr получили указатель на ячейку карты
 269++686F D0             RET NC
 270++6870 2A 89 67       LD HL, (MapCell_ptr)
 271++6873 7E             LD A, (HL)
 272++6874 CD F5 67       CALL calc_cell_type
 273++6877 22 7B 68       LD (lookCharSeeCellInfo_p+1), HL
 274++687A              lookCharSeeCellInfo_p:
/Users/random/zx-engine/middlware/entities.asm(275): warning: Accessing low memory address 0x0000, is it ok?: LD HL, (#0000)
 275++687A 2A 00 00       LD HL, (#0000)
 276++687D CD 8F 66       CALL screenfx.show_info_message
 277++6880 C9             RET
 278++6881
 279++6881              ; ------- показать карту с текущим персонажем на экране
 280++6881              lookChar:
 281++6881 DD 2A 86 67    LD IX, (activePersonage_ptr)
 282++6885 DD 56 01       LD D, (IX+Hero.pos.x)
 283++6888 DD 5E 00       LD E, (IX+Hero.pos.y)
 284++688B DD 7E 02       LD A, (IX+Hero.dir)
 285++688E CD 80 63       CALL View.look
 286++6891                ; CALL map.center_map
 287++6891                ; CALL View.copy
 288++6891 C3 FE 63       JP View.draw
 289++6894                ; JP Tiles16.show_tile_map
 290++6894                ; RET
 291++6894
 292++6894              ; найти персонажа по адресу DE
 293++6894              ; на выходе
 294++6894              ;  если есть персожан на этой позиции
 295++6894              ;  то установлен признак  NZ
 296++6894              ;   и IX - указатель на него
 297++6894              is_char_on_map:
 298++6894 DD 21 13 D8      LD IX, CHARS_SET; указатель на массив чаров
 299++6898 06 01            LD B, PersonagesNum; число чаров
 300++689A              ; проверяем совпадают ли координаты
 301++689A              check_char:
 302++689A DD 7E 00         LD A, (IX+Hero.pos.y)
 303++689D BB               CP E
 304++689E 20 08            JR NZ, next_char
 305++68A0 DD 7E 01         LD A, (IX+Hero.pos.x)
 306++68A3 BA               CP D
 307++68A4 20 02            JR NZ, next_char
 308++68A6                  ; LD A, (IX+Hero.itemID)
 309++68A6                  ; CP #FF; пустая запись
 310++68A6                  ; JR Z, next_item
 311++68A6              ; нашли!
 312++68A6                  ret_true
 312++68A6 37          >  SCF ; устанавливаем бит переноса ( Carry = 1 )
 312++68A7 C9          >  RET
 313++68A8              next_char:
 314++68A8 C5               PUSH BC
 315++68A9 01 0B 00         LD BC, Hero
 316++68AC DD 09            ADD IX, BC
 317++68AE C1               POP BC
 318++68AF 10 E9            DJNZ check_char
 319++68B1                  ; JP Entities.check_no
 320++68B1                  ret_false
 320++68B1 37          >  SCF ; устанавливаем бит переноса и инвертируем его ))
 320++68B2 3F          >  CCF
 320++68B3 C9          >  RET
 321++68B4
 322++68B4              ; вертим героя в нужном направлении или двигаем если уже смотрим в этом направлении
 323++68B4              ; в B - направление
 324++68B4              char_rot_move:
 325++68B4 DD 2A 86 67    LD IX, (activePersonage_ptr)
 326++68B8 DD 7E 02       LD A, (IX+Hero.dir)
 327++68BB B8             CP B
 328++68BC 20 06          JR NZ, char_not_move
 329++68BE 4F             LD C, A
 330++68BF 06 01          LD B, do_stand
 331++68C1 C3 D5 68       JP char_do
 332++68C4              char_not_move:
 333++68C4 78             LD A, B
 334++68C5 DD 70 02       LD (IX+Hero.dir), B
 335++68C8 CD 65 68       CALL Entities.lookCharSeeCellInfo
 336++68CB C3 1B 69       JP char_update_sprite
 337++68CE
 338++68CE              ; в B - action
 339++68CE              char_do_dir:
 340++68CE DD 2A 86 67    LD IX, (activePersonage_ptr)
 341++68D2 DD 4E 02       LD C, (IX+Hero.dir)
 342++68D5              ; ----- текущий персонаж на что-то воздействует ----
 343++68D5              ; на входе
 344++68D5              ; activePersonage_ptr указатель на персонажа
 345++68D5              ; в B - действие
 346++68D5              ; в C - направление
 347++68D5              ; --------------------------------------------------
 348++68D5              char_do:
 349++68D5 78             LD A, B
 350++68D6                setVar Vars.var_act
 350++68D6 32 03 60    >    LD ( zxengine.varsTab + Vars.var_act ), A
 351++68D9
 352++68D9 79             LD A,C
 353++68DA CD 29 6A       CALL calc_action_pos
 354++68DD D0             RET NC;  возвратили false - неправильное направление или действие
 355++68DE              ; Vars.MapCell_xy - позиция, MapCell_ptr - указатель на ячейку
 356++68DE
 357++68DE              ; подготавливаем переменные для обработки в скриптах
 358++68DE CD C1 6B       CALL items.get_hero_hand_item; устанавливаем в Vars.var_item_id id предмета
 359++68E1
 360++68E1              ; проверяем поднимаем мы или бросаем
 361++68E1                getVar Vars.var_act
 361++68E1 3A 03 60    >    LD A, ( zxengine.varsTab + Vars.var_act )
 362++68E4 FE 10          CP do_get_drop
 363++68E6 C2 FC 68       JP NZ, char_do_2; если это не поднятие/бросание то переходим на 2ю фазу
 364++68E9
 365++68E9              ; начинаем высчитывать что это - поднятие или бросание...
 366++68E9              ; есть ли предмет в руках?
 367++68E9                getVar Vars.var_item_id
 367++68E9 3A 07 60    >    LD A, ( zxengine.varsTab + Vars.var_item_id )
 368++68EC FE FF          CP #FF
 369++68EE 28 07          JR Z, no_item_in_hand
 370++68F0
 371++68F0              yes_item_in_hand: ; предмет в руках есть - значить бросаем его!
 372++68F0 3E 03          LD A, do_drop
 373++68F2                setVar Vars.var_act
 373++68F2 32 03 60    >    LD ( zxengine.varsTab + Vars.var_act ), A
 374++68F5 18 05          JR char_do_2
 375++68F7
 376++68F7              no_item_in_hand: ; предмета в руках нет - значить поднимаем !
 377++68F7 3E 02          LD A, do_get
 378++68F9                setVar Vars.var_act
 378++68F9 32 03 60    >    LD ( zxengine.varsTab + Vars.var_act ), A
 379++68FC
 380++68FC              char_do_2:
 381++68FC 2A 89 67       LD HL, (MapCell_ptr)
 382++68FF 7E             LD A, (HL)
 383++6900 CD 00 68       CALL call_cell_script
 384++6903                getVar Vars.var_ret
 384++6903 3A 04 60    >    LD A, ( zxengine.varsTab + Vars.var_ret )
 385++6906 B7             OR A
 386++6907 C8             RET Z; после скрипта переменная установлена в 0 - значит все обработано, по дефолту обрабатывать не нужно
 387++6908
 388++6908              ; -- дефолтная обработка - если хотим встать - становимся,
 389++6908              ; -- если хотим бросить - бросаем, если хотим поднять - поднимаем!
 390++6908
 391++6908                getVar Vars.var_act
 391++6908 3A 03 60    >    LD A, ( zxengine.varsTab + Vars.var_act )
 392++690B
 393++690B FE 01          CP do_stand
 394++690D CA 56 69       JP Z, char_do_stand; персонаж перемещается туда
 395++6910
 396++6910 FE 02          CP do_get
 397++6912 CA CB 69       JP Z, char_do_get; подбираем/бросаем
 398++6915
 399++6915 FE 03          CP do_drop
 400++6917 CA 80 69       JP Z, char_do_drop; подбираем/бросаем
 401++691A
 402++691A                ; LD A, 10
 403++691A                ; CALL FX_SET; обиженно пиликаем
 404++691A
 405++691A C9             RET
 406++691B
 407++691B              ; -------------------------------------------------------------------
 408++691B              ; меняем спрайт героя в зависимости от направления персонажа ( в IX указатель на героя )
 409++691B              ; -------------------------------------------------------------------
 410++691B              char_update_sprite:
 411++691B DD 46 04       LD B,(IX+Hero.base_spr)
 412++691E DD 7E 02       LD A,(IX+Hero.dir)
 413++6921 80             ADD A, B
 414++6922 DD 77 03       LD (IX+Hero.sprite), A
 415++6925 DD 56 01       LD D, (IX+Hero.pos.x)
 416++6928 DD 5E 00       LD E, (IX+Hero.pos.y)
 417++692B CD 6A 67       CALL map.calc_pos             ; определяем координаты позиции персонажа в HL
 418++692E DD 7E 03       LD A, (IX+Hero.sprite)
 419++6931 77             LD (HL),A                     ; ставим спрайт персонажа на карту
 420++6932 C9             RET
 421++6933
 422++6933              ; char_rot_left_me:
 423++6933              ;   PUSH HL
 424++6933              ;   CALL char_rot_left
 425++6933              ;   POP HL
 426++6933              ;   JP zxengine.process
 427++6933
 428++6933              ; char_rot_right_me:
 429++6933              ;   PUSH HL
 430++6933              ;   CALL char_rot_right
 431++6933              ;   POP HL
 432++6933              ;   JP zxengine.process
 433++6933
 434++6933              ; -------------------------------------------------------------------
 435++6933              ; вертим персонажа влево
 436++6933              ; -------------------------------------------------------------------
 437++6933              char_rot_left:
 438++6933 DD 2A 86 67    LD IX, (activePersonage_ptr)
 439++6937 DD 7E 02       LD A, (IX+Hero.dir)
 440++693A 3D             DEC A
 441++693B F2 40 69       JP P, char_rot_no_over
 442++693E 3E 07          LD A, dir_down_right
 443++6940              char_rot_no_over:
 444++6940 DD 77 02       LD (IX+Hero.dir), A
 445++6943 C3 1B 69       JP char_update_sprite
 446++6946 C9             RET
 447++6947
 448++6947              ; -------------------------------------------------------------------
 449++6947              ; вертим персонажа вправо
 450++6947              ; -------------------------------------------------------------------
 451++6947              char_rot_right:
 452++6947 DD 2A 86 67    LD IX, (activePersonage_ptr)
 453++694B DD 7E 02       LD A, (IX+Hero.dir)
 454++694E 3C             INC A
 455++694F FE 08          CP dir_down_right+1
 456++6951 20 ED          JR NZ, char_rot_no_over
 457++6953 AF             XOR A
 458++6954 18 EA          JR char_rot_no_over
 459++6956              ; char_rot__no_over:
 460++6956              ;   LD (IX+Hero.dir), A
 461++6956              ;   JP char_update_sprite
 462++6956              ;   RET
 463++6956
 464++6956              ; -------------------------------------------------------------------
 465++6956              ; персонаж перемещается на MapCell_xy ( MapCell_ptr тоже установлен )
 466++6956              ; -------------------------------------------------------------------
 467++6956              char_do_stand:
 468++6956
 469++6956 DD 2A 86 67    LD IX, (activePersonage_ptr)
 470++695A DD 56 01       LD D, (IX+Hero.pos.x)
 471++695D DD 5E 00       LD E, (IX+Hero.pos.y)
 472++6960 CD 6A 67       CALL map.calc_pos             ; определяем координаты позиции персонажа в HL
 473++6963 DD 7E 05       LD A,(IX+Hero.ground)         ;
 474++6966 77             LD (HL),A                     ; и ставим на карту спрайт пола
 475++6967 ED 5B 05 60    LD DE, ( Vars.MapCell_xy )
 476++696B DD 72 01       LD (IX+Hero.pos.x), D
 477++696E DD 73 00       LD (IX+Hero.pos.y), E
 478++6971 2A 89 67       LD HL,( MapCell_ptr )
 479++6974 7E             LD A,(HL)
 480++6975 DD 77 05       LD (IX+Hero.ground),A         ; ячейку карты ставим на пол персонажа
 481++6978
 482++6978 DD 7E 03       LD A, (IX+Hero.sprite)
 483++697B 77             LD (HL),A                     ; ставим спрайт персонажа на карту
 484++697C CD 65 68       CALL Entities.lookCharSeeCellInfo
 485++697F C9             RET
 486++6980
 487++6980              ; ; ------------------------------------------------------------------------------------
 488++6980              ; ; персонаж поднимает предмет или бросает на MapCell_xy ( MapCell_ptr тоже установлен )
 489++6980              ; ; ------------------------------------------------------------------------------------
 490++6980              ; char_do_get_drop:
 491++6980              ; ; сначала определяем есть ли предметы
 492++6980
 493++6980              ;   ; CALL items.get_hero_hand_item; получаем предмет в руках
 494++6980              ;   ; JR C, char_do_use; если руки не свободны - переходим на использование предмета
 495++6980
 496++6980              ; char_do_drop:
 497++6980              ; ------------------------------------------------------------------------------------
 498++6980              ; персонаж использует ячейку MapCell_xy ( MapCell_ptr тоже установлен )
 499++6980              ; ------------------------------------------------------------------------------------
 500++6980
 501++6980              ; бросаем предмет из рук на пол ( предмет в руках есть )
 502++6980              char_do_drop:
 503++6980 FD 2A 86 67    LD IY, (Entities.activePersonage_ptr)
 504++6984 FD 6E 09       LD L, (IY+Hero.hand_right_p)
 505++6987 FD 66 0A       LD H, (IY+Hero.hand_right_p+1);
 506++698A E5             PUSH HL
 507++698B FD E1          POP IY; запоминаем в IY указатель на предмет в руках
 508++698D
 509++698D ED 5B 05 60    LD DE, (Vars.MapCell_xy)
 510++6991 CD E3 6B       CALL items.find_item_on_map
 511++6994 D2 A0 69       JP NC, drop_on_ground; бросаем прямо на пол
 512++6997
 513++6997              drop_on_item: ;бросаем на другой предмет, в IX - указатель на него
 514++6997 DD 7E 03       LD A, (IX+Item.ground); берем землю из найденного предмета
 515++699A FD 77 03       LD (IY+Item.ground), A; запоминаем в своем
 516++699D C3 A7 69       JP drop_end
 517++69A0
 518++69A0              drop_on_ground: ; в IY - предмет в руках
 519++69A0 2A 89 67       LD HL, ( MapCell_ptr )
 520++69A3 7E             LD A, (HL)
 521++69A4 FD 77 03       LD (IY+Item.ground), A
 522++69A7
 523++69A7              drop_end:
 524++69A7 3E FF          LD A, #ff
 525++69A9 FD 77 04       LD (IY+Item.owner), A
 526++69AC ED 5B 05 60    LD DE, (Vars.MapCell_xy)
 527++69B0
 528++69B0 FD 72 02       LD (IY+Item.pos.x), D
 529++69B3 FD 73 01       LD (IY+Item.pos.y), E
 530++69B6
 531++69B6                getVar Vars.var_item_id
 531++69B6 3A 07 60    >    LD A, ( zxengine.varsTab + Vars.var_item_id )
 532++69B9 2A 89 67       LD HL, ( MapCell_ptr )
 533++69BC 77             LD (HL), A
 534++69BD AF             XOR A
 535++69BE FD 2A 86 67    LD IY, (Entities.activePersonage_ptr)
 536++69C2 FD 77 09       LD (IY+Hero.hand_right_p), A
 537++69C5 FD 77 0A       LD (IY+Hero.hand_right_p+1), A
 538++69C8 C3 0E 6A       JP action_drop
 539++69CB
 540++69CB              ; поднимаем предмет с пола!
 541++69CB              char_do_get:
 542++69CB ED 5B 05 60    LD DE, (Vars.MapCell_xy)
 543++69CF CD E3 6B       CALL items.find_item_on_map
 544++69D2 D2 20 6A       JP NC, action_fault; предмета нет, поднять нельзя..
 545++69D5              ; предмет есть
 546++69D5 DD 22 8D 67    LD (ActiveItem_ptr_ground), IX; ix - указатель на предмет
 547++69D9 FD 2A 86 67    LD IY, (Entities.activePersonage_ptr) ; iy - указатель на персонажа
 548++69DD
 549++69DD 3A 88 67       LD A, ( Entities.CurPersonageNum )
 550++69E0 DD 77 04       LD (IX+Item.owner), A ; присваиваем ID персонажа предмету
 551++69E3
 552++69E3 DD E5          PUSH IX
 553++69E5 E1             POP HL
 554++69E6 FD 75 09       LD (IY+Hero.hand_right_p), L
 555++69E9 FD 74 0A       LD (IY+Hero.hand_right_p_1), H ; ставим "в руки" персонажа указатель на предмет
 556++69EC
 557++69EC                ; есть ли еще предметы?
 558++69EC ED 5B 05 60    LD DE, (Vars.MapCell_xy)
 559++69F0 CD E3 6B       CALL items.find_item_on_map
 560++69F3 DA 04 6A       JP C, get_from_item; поднимали с предмета, который нашли и поместили указатель в IY
 561++69F6              get_from_ground: ; поднимали с земли, ставим в IY указатель на поднятый предмет
 562++69F6 FD 2A 8D 67    LD IY, (ActiveItem_ptr_ground)
 563++69FA FD 7E 03       LD A, (IY+Item.ground)
 564++69FD              get_end:
 565++69FD 2A 89 67       LD HL, ( MapCell_ptr )
 566++6A00 77             LD (HL), A
 567++6A01 C3 17 6A       JP action_pickup
 568++6A04              get_from_item:
 569++6A04 DD 7E 00       LD A, (IX+Item.itemID)
 570++6A07 CD FC 6A       CALL items.calc_item_type
 571++6A0A 7E             LD A,(HL)
 572++6A0B C3 FD 69       JP get_end
 573++6A0E
 574++6A0E              action_drop:
 575++6A0E 3E 05          LD A, FX_Drop
 576++6A10 CD 4C BD       CALL FX_SET
 577++6A13 CD 65 68       CALL Entities.lookCharSeeCellInfo
 578++6A16 C9             RET
 579++6A17
 580++6A17              action_pickup:
 581++6A17 3E 04          LD A, FX_Pickup
 582++6A19 CD 4C BD       CALL FX_SET
 583++6A1C CD 65 68       CALL Entities.lookCharSeeCellInfo
 584++6A1F C9             RET
 585++6A20
 586++6A20              action_fault:
 587++6A20 3E 0A          LD A, 10
 588++6A22 CD 4C BD       CALL FX_SET; обиженно пиликаем
 589++6A25 CD 65 68       CALL Entities.lookCharSeeCellInfo
 590++6A28 C9             RET
 591++6A29
 592++6A29
 593++6A29 ~            /*
 594++6A29 ~              CALL items.get_hero_hand_item; получаем предмет в руках
 595++6A29 ~              JR C, char_do_drop; если руки не свободны - переходим на бросок предмета
 596++6A29 ~
 597++6A29 ~              ; решили что это поднятие
 598++6A29 ~              LD A, do_get
 599++6A29 ~              setVar Vars.var_act
 600++6A29 ~
 601++6A29 ~              ; предмета в руках нет, ищем на карте
 602++6A29 ~              LD DE, (Vars.MapCell_xy)
 603++6A29 ~              CALL items.find_item_on_map
 604++6A29 ~              JR NC, char_no_get; предмета нет !
 605++6A29 ~
 606++6A29 ~            ; char_pickup_item:
 607++6A29 ~              ; в IX указатель на предмет
 608++6A29 ~              LD (ActiveItem_ptr), IX
 609++6A29 ~              LD A, (IX+Item.itemID); взяли номер типа предмета
 610++6A29 ~
 611++6A29 ~              CALL items.calc_item_type;  получили указатель на описание типа предмета
 612++6A29 ~              LD A, (HL)
 613++6A29 ~              CALL call_cell_script
 614++6A29 ~              getVar Vars.var_ret
 615++6A29 ~              OR A
 616++6A29 ~              RET Z; после скрипта переменная установлена в 0 - ошибка поднятия
 617++6A29 ~
 618++6A29 ~              ; LD (IY+Hero.hand_right_p_1), 00; предмет брошен
 619++6A29 ~            ; char_pickup_item_no_call:
 620++6A29 ~              LD IY, (Entities.ActiveItem_ptr);
 621++6A29 ~              PUSH IY
 622++6A29 ~              POP HL
 623++6A29 ~
 624++6A29 ~              LD IX, (Entities.activePersonage_ptr)
 625++6A29 ~              LD (IX+Hero.hand_right_p), L
 626++6A29 ~              LD (IX+Hero.hand_right_p_1), H
 627++6A29 ~
 628++6A29 ~              LD A, ( CurPersonageNum )
 629++6A29 ~              LD (IY+Item.owner), A
 630++6A29 ~
 631++6A29 ~              CALL items.push_item_from_map
 632++6A29 ~
 633++6A29 ~              LD A, FX_Pickup
 634++6A29 ~              CALL FX_SET
 635++6A29 ~
 636++6A29 ~              RET
 637++6A29 ~
 638++6A29 ~            char_no_get:
 639++6A29 ~
 640++6A29 ~              LD HL, ( MapCell_ptr )
 641++6A29 ~              LD A, ( HL )
 642++6A29 ~
 643++6A29 ~              CALL call_cell_script
 644++6A29 ~
 645++6A29 ~              getVar Vars.var_ret; проверяем если нет ошибки поднятия - возврат
 646++6A29 ~              OR A
 647++6A29 ~              RET Z
 648++6A29 ~
 649++6A29 ~            ; char_no_get_no_char:
 650++6A29 ~              LD A, 10
 651++6A29 ~              CALL FX_SET; обиженно пиликаем
 652++6A29 ~              RET
 653++6A29 ~
 654++6A29 ~            char_do_drop:
 655++6A29 ~              ; тут у нас в A номер спрайта, в HL - указатель на описание типа предмета
 656++6A29 ~              PUSH AF
 657++6A29 ~              LD A, do_drop
 658++6A29 ~              setVar Vars.var_act
 659++6A29 ~              POP AF
 660++6A29 ~
 661++6A29 ~              LD HL, ( MapCell_ptr )
 662++6A29 ~              LD A, ( HL )
 663++6A29 ~              CALL call_cell_script
 664++6A29 ~              getVar Vars.var_ret; проверяем если нет ошибки поднятия - возврат
 665++6A29 ~              OR A
 666++6A29 ~              RET Z
 667++6A29 ~
 668++6A29 ~
 669++6A29 ~              LD IY, (activePersonage_ptr)
 670++6A29 ~              LD E, (IY+Hero.hand_right_p)
 671++6A29 ~              LD D, (IY+Hero.hand_right_p_1)
 672++6A29 ~              LD (ActiveItem_ptr), DE; заполняем указатель на активный предмет тем что в руках, так как он может использоваться в скриптах
 673++6A29 ~              CALL call_cell_script ; обрабатываем бросок
 674++6A29 ~              getVar Vars.var_ret
 675++6A29 ~              OR A
 676++6A29 ~              RET Z; после скрипта переменная установлена в 0 - ошибка бросания
 677++6A29 ~
 678++6A29 ~              LD IY, (activePersonage_ptr)
 679++6A29 ~              LD (IY+Hero.hand_right_p_1), 00; предмет брошен
 680++6A29 ~
 681++6A29 ~              ; LD D, (IY+Hero.pos.x)
 682++6A29 ~              ; LD E, (IY+Hero.pos.y); координаты персонажа в DE
 683++6A29 ~              LD DE, ( Vars.MapCell_xy )
 684++6A29 ~
 685++6A29 ~              LD IY, (Entities.ActiveItem_ptr);
 686++6A29 ~
 687++6A29 ~              LD (IY+Item.pos.x), D
 688++6A29 ~              LD (IY+Item.pos.y), E
 689++6A29 ~              PUSH IY
 690++6A29 ~              CALL items.pop_item_to_map
 691++6A29 ~              POP IY
 692++6A29 ~              LD (IY+Item.owner), #ff; помечаем предмет как брошеный на карту
 693++6A29 ~
 694++6A29 ~              LD A, FX_Drop
 695++6A29 ~              CALL FX_SET
 696++6A29 ~
 697++6A29 ~              RET
 698++6A29 ~            */
 699++6A29
 700++6A29                MACRO m_check_left
 700++6A29 ~
 701++6A29 ~                LD A,D
 702++6A29 ~                DEC A
 703++6A29 ~                JP M, check_act_no
 704++6A29 ~                LD D,A
 705++6A29                ENDM
 706++6A29
 707++6A29                MACRO m_check_right
 707++6A29 ~
 708++6A29 ~                LD A,D
 709++6A29 ~                INC A
 710++6A29 ~                CP mapSize
 711++6A29 ~                JR NC, check_act_no
 712++6A29 ~                LD D,A
 713++6A29                ENDM
 714++6A29
 715++6A29                MACRO m_check_up
 715++6A29 ~
 716++6A29 ~                LD A,E
 717++6A29 ~                DEC A
 718++6A29 ~                JP M, check_act_no
 719++6A29 ~                LD E,A
 720++6A29                ENDM
 721++6A29
 722++6A29                MACRO m_check_down
 722++6A29 ~
 723++6A29 ~                LD A,E
 724++6A29 ~                INC A
 725++6A29 ~                CP mapSize
 726++6A29 ~                JP NC, check_act_no
 727++6A29 ~                LD E,A
 728++6A29                ENDM
 729++6A29
 730++6A29              ; вычисляем ячейку на которую действует персонаж по позиции персонажа и направлению
 731++6A29              ; на входе
 732++6A29              ;       activePersonage_ptr указатель на персонажа
 733++6A29              ;       A - направление
 734++6A29              ; на выходе если NС то ошибка ( выход за пределы карты или непонятное действие)
 735++6A29              ; иначе в DE и MapCell_xy позиция действия, MapCell_ptr - указатель на ячейку карты
 736++6A29              calc_action_pos:
 737++6A29 DD 2A 86 67    LD IX, (activePersonage_ptr)
 738++6A2D DD 56 01       LD D, (IX+Hero.pos.x)
 739++6A30 DD 5E 00       LD E, (IX+Hero.pos.y)
 740++6A33
 741++6A33              calc_action_pos_de: ; а вдруг кто-нибудь сразу сюда полезет? :)
 742++6A33 FE 04          CP dir_up
 743++6A35 28 61          JR Z, check_up
 744++6A37 FE 00          CP dir_down
 745++6A39 28 65          JR Z, check_down
 746++6A3B FE 02          CP dir_left
 747++6A3D 28 6B          JR Z, check_left
 748++6A3F FE 06          CP dir_right
 749++6A41 28 6F          JR Z, check_right
 750++6A43
 751++6A43 FE 01          CP dir_down_left
 752++6A45 28 13          JR Z, check_down_left
 753++6A47 FE 07          CP dir_down_right
 754++6A49 28 1F          JR Z, check_down_right
 755++6A4B FE 03          CP dir_up_left
 756++6A4D 28 2C          JR Z, check_up_left
 757++6A4F FE 05          CP dir_up_right
 758++6A51 28 36          JR Z, check_up_right
 759++6A53
 760++6A53 FE 08          CP dir_center
 761++6A55 28 62          JR Z, check_center
 762++6A57
 763++6A57              check_act_no:
 764++6A57                ret_false
 764++6A57 37          >  SCF ; устанавливаем бит переноса и инвертируем его ))
 764++6A58 3F          >  CCF
 764++6A59 C9          >  RET
 765++6A5A
 766++6A5A              check_down_left:
 767++6A5A                m_check_down
 767++6A5A             >
 767++6A5A 7B          >    LD A,E
 767++6A5B 3C          >    INC A
 767++6A5C FE 20       >    CP mapSize
 767++6A5E D2 57 6A    >    JP NC, check_act_no
 767++6A61 5F          >    LD E,A
 768++6A62                m_check_left
 768++6A62             >
 768++6A62 7A          >    LD A,D
 768++6A63 3D          >    DEC A
 768++6A64 FA 57 6A    >    JP M, check_act_no
 768++6A67 57          >    LD D,A
 769++6A68 18 4F          JR check_act_yes
 770++6A6A
 771++6A6A              check_down_right:
 772++6A6A                m_check_down
 772++6A6A             >
 772++6A6A 7B          >    LD A,E
 772++6A6B 3C          >    INC A
 772++6A6C FE 20       >    CP mapSize
 772++6A6E D2 57 6A    >    JP NC, check_act_no
 772++6A71 5F          >    LD E,A
 773++6A72                m_check_right
 773++6A72             >
 773++6A72 7A          >    LD A,D
 773++6A73 3C          >    INC A
 773++6A74 FE 20       >    CP mapSize
 773++6A76 30 DF       >    JR NC, check_act_no
 773++6A78 57          >    LD D,A
 774++6A79 18 3E          JR check_act_yes
 775++6A7B
 776++6A7B              check_up_left:
 777++6A7B                m_check_up
 777++6A7B             >
 777++6A7B 7B          >    LD A,E
 777++6A7C 3D          >    DEC A
 777++6A7D FA 57 6A    >    JP M, check_act_no
 777++6A80 5F          >    LD E,A
 778++6A81                m_check_left
 778++6A81             >
 778++6A81 7A          >    LD A,D
 778++6A82 3D          >    DEC A
 778++6A83 FA 57 6A    >    JP M, check_act_no
 778++6A86 57          >    LD D,A
 779++6A87 18 30          JR check_act_yes
 780++6A89
 781++6A89              check_up_right:
 782++6A89                m_check_up
 782++6A89             >
 782++6A89 7B          >    LD A,E
 782++6A8A 3D          >    DEC A
 782++6A8B FA 57 6A    >    JP M, check_act_no
 782++6A8E 5F          >    LD E,A
 783++6A8F                m_check_right
 783++6A8F             >
 783++6A8F 7A          >    LD A,D
 783++6A90 3C          >    INC A
 783++6A91 FE 20       >    CP mapSize
 783++6A93 30 C2       >    JR NC, check_act_no
 783++6A95 57          >    LD D,A
 784++6A96 18 21          JR check_act_yes
 785++6A98
 786++6A98              check_up:
 787++6A98                m_check_up
 787++6A98             >
 787++6A98 7B          >    LD A,E
 787++6A99 3D          >    DEC A
 787++6A9A FA 57 6A    >    JP M, check_act_no
 787++6A9D 5F          >    LD E,A
 788++6A9E 18 19          JR check_act_yes
 789++6AA0
 790++6AA0              check_down:
 791++6AA0                m_check_down
 791++6AA0             >
 791++6AA0 7B          >    LD A,E
 791++6AA1 3C          >    INC A
 791++6AA2 FE 20       >    CP mapSize
 791++6AA4 D2 57 6A    >    JP NC, check_act_no
 791++6AA7 5F          >    LD E,A
 792++6AA8 18 0F          JR check_act_yes
 793++6AAA
 794++6AAA              check_left:
 795++6AAA                m_check_left
 795++6AAA             >
 795++6AAA 7A          >    LD A,D
 795++6AAB 3D          >    DEC A
 795++6AAC FA 57 6A    >    JP M, check_act_no
 795++6AAF 57          >    LD D,A
 796++6AB0 18 07          JR check_act_yes
 797++6AB2
 798++6AB2              check_right:
 799++6AB2                m_check_right
 799++6AB2             >
 799++6AB2 7A          >    LD A,D
 799++6AB3 3C          >    INC A
 799++6AB4 FE 20       >    CP mapSize
 799++6AB6 30 9F       >    JR NC, check_act_no
 799++6AB8 57          >    LD D,A
 800++6AB9
 801++6AB9              check_center:
 802++6AB9              check_act_yes: ; получили в DE новую позицию и в MapCell_ptr указатель на ячейку карты
 803++6AB9 ED 53 05 60    LD (Vars.MapCell_xy), DE
 804++6ABD CD 6A 67       CALL map.calc_pos
 805++6AC0 22 89 67       LD (MapCell_ptr), HL
 806++6AC3                ret_true
 806++6AC3 37          >  SCF ; устанавливаем бит переноса ( Carry = 1 )
 806++6AC4 C9          >  RET
 807++6AC5
 808++6AC5              ; для переходов JR Z - прям сюда )
 809++6AC5              sys_check_no:
 810++6AC5                ret_false
 810++6AC5 37          >  SCF ; устанавливаем бит переноса и инвертируем его ))
 810++6AC6 3F          >  CCF
 810++6AC7 C9          >  RET
 811++6AC8
 812++6AC8              sys_check_yes:
 813++6AC8                ret_true
 813++6AC8 37          >  SCF ; устанавливаем бит переноса ( Carry = 1 )
 813++6AC9 C9          >  RET
 814++6ACA
 815++6ACA              ;
 816++6ACA              ; -- устанавливаем новое значение ячейки на карте по адресу MapCell_xy ( MapCell_ptr <- A )
 817++6ACA              set_map_cell:
 818++6ACA ED 5B 05 60    LD DE, (Vars.MapCell_xy)
 819++6ACE              set_map_cell_DE:
 820++6ACE                setVar Vars.var_item_id; запомнили A
 820++6ACE 32 07 60    >    LD ( zxengine.varsTab + Vars.var_item_id ), A
 821++6AD1 CD 6A 67       CALL map.calc_pos
 822++6AD4 22 89 67       LD (MapCell_ptr), HL
 823++6AD7 CD E3 6B       CALL items.find_item_on_map ; есть ли на карте предметы?
 824++6ADA 30 0C          JR NC, set_map_cell_no_items
 825++6ADC
 826++6ADC              set_map_cell_next_item: ; есть - устанавливаем им всем новую "землю"
 827++6ADC                getVar Vars.var_item_id
 827++6ADC 3A 07 60    >    LD A, ( zxengine.varsTab + Vars.var_item_id )
 828++6ADF DD 77 03       LD (IX+Item.ground), A
 829++6AE2 CD E9 6B       CALL items.check_item
 830++6AE5 38 F5          JR C, set_map_cell_next_item
 831++6AE7
 832++6AE7                ; героям и просто карте менять ничего не надо
 833++6AE7 C9             RET
 834++6AE8
 835++6AE8              set_map_cell_no_items: ; предметов нет
 836++6AE8              ; есть ли на карте герои?
 837++6AE8 CD 94 68       CALL is_char_on_map
 838++6AEB 30 07          JR NC, set_map
 839++6AED                ; если есть - меняем ему землю
 840++6AED                getVar Vars.var_item_id
 840++6AED 3A 07 60    >    LD A, ( zxengine.varsTab + Vars.var_item_id )
 841++6AF0 DD 77 05       LD (IX+Hero.ground), A
 842++6AF3 C9             RET
 843++6AF4
 844++6AF4              ; и героев нет
 845++6AF4              set_map:
 846++6AF4                getVar Vars.var_item_id
 846++6AF4 3A 07 60    >    LD A, ( zxengine.varsTab + Vars.var_item_id )
 847++6AF7 2A 89 67       LD HL, (MapCell_ptr)
 848++6AFA 77             LD (HL), A
 849++6AFB C9             RET
 850++6AFC
 851++6AFC              ; set_herow_sprite
 852++6AFC              ;   RET
 853++6AFC
 854++6AFC              ENDMODULE
 855++6AFC
# file closed: /Users/random/zx-engine/middlware/entities.asm
  25++6AFC                include "middlware/items.asm"
# file opened: /Users/random/zx-engine/middlware/items.asm
   1++6AFC              MODULE items
   2++6AFC
   3++6AFC              ; STRUCT ItemType
   4++6AFC              ; spr_num db 00; номер спрайта предмета, должен идти первым
   5++6AFC              ; ; чтобы после вызова функции calcItemType
   6++6AFC              ; ; можно было получать номер спрайта как LD A, (HL)
   7++6AFC              ; ; а не через PUSH HL/POP IX/LD A,(IX+ItemType.spr_num)
   8++6AFC              ; ;--- прочие части
   9++6AFC              ; ; name_ptr dw 00; не нужно, у нас показывается по name_ptr в спрайте
  10++6AFC              ; round db 00; скажем, заряд
  11++6AFC              ; weight db 00; скажем, вес
  12++6AFC              ;     db 00
  13++6AFC              ; ; script_ptr dw 00; указатель на скрипт обработки действий
  14++6AFC              ; ENDS
  15++6AFC
  16++6AFC              ; STRUCT Item
  17++6AFC              ; itemID db 00; номер типа предмета
  18++6AFC              ; pos Point 0,0 ; позиция на карте
  19++6AFC              ; ground db 00; что оказалось на земле когда бросили предмет
  20++6AFC              ; owner db 00; номер героя в инвентаре которого находится предмет, если #ff то лежит на карте
  21++6AFC              ; ;--- типа заряд :)
  22++6AFC              ; rounds db 00;
  23++6AFC              ; ; parent_ptr dw 0; у кого лежит, если 0000 то лежит на карте, иначе указатель на hero
  24++6AFC              ; ENDS
  25++6AFC
  26++6AFC              ; на входе в A - индекс типа предмета
  27++6AFC              ; на выходе в HL - указатель на массив с данными предмета
  28++6AFC              calc_item_type:
  29++6AFC 11 04 00       LD DE, ItemType
  30++6AFF CD 99 62       CALL math.mul_ADE
  31++6B02 11 3C B3       LD DE, ITEM_TYPES
  32++6B05 19             ADD HL, DE
  33++6B06 C9             RET
  34++6B07
  35++6B07 ~            /*
  36++6B07 ~            вариант - не надо ничего размещать на карте через процедуру,
  37++6B07 ~            на карте их спрайты уже есть, а в массиве предметов хранитмся и в том числе что было под ними на "земле"
  38++6B07 ~            */
  39++6B07
  40++6B07              ; ищем пустой элемент в массиве предметов
  41++6B07              ; на выходе - если признак переноса есть то предмет можно положить
  42++6B07              ; иначе в IX указатель на предмет
  43++6B07              search_empty_item:
  44++6B07 DD 21 1E D8      LD IX, ITEM_ARRAY ; указатель на начало массива предметов
  45++6B0B 11 06 00         LD DE, Item; размерность
  46++6B0E 06 32            LD B, ItemArraySize; максимальное число предметов
  47++6B10              search_empty_item_loop:
  48++6B10 DD 7E 00         LD A, (IX+Item.itemID)
  49++6B13 FE FF            CP #FF
  50++6B15 CA C8 6A         JP Z, Entities.sys_check_yes
  51++6B18 DD 19            ADD IX, DE
  52++6B1A 10 F4            DJNZ search_empty_item_loop
  53++6B1C                  ret_false
  53++6B1C 37          >  SCF ; устанавливаем бит переноса и инвертируем его ))
  53++6B1D 3F          >  CCF
  53++6B1E C9          >  RET
  54++6B1F
  55++6B1F              ; пробуем манипулировать предметом
  56++6B1F              ; на входе
  57++6B1F              ;   в ActiveItem_ptr указатель на предмет
  58++6B1F              ; предмет уже принадлежит герою ( Item.owner ) поэтому в функциях поиска find_item_on_map он не принимает участие
  59++6B1F              push_item_from_map: ;"забираем" предмет с карты
  60++6B1F FD 2A 8B 67      LD IY, (Entities.ActiveItem_ptr)
  61++6B23                  ; LD D, (IY+Item.pos.x)
  62++6B23                  ; LD E, (IY+Item.pos.y); в DE - текущая позиция
  63++6B23 ED 5B 05 60      LD DE, (Vars.MapCell_xy)
  64++6B27
  65++6B27              ; смотрим есть ли на этой ячейке карты предметы ?
  66++6B27 CD E3 6B         CALL find_item_on_map
  67++6B2A 30 1C            JR NC, push_item_from_map_no_items
  68++6B2C                  ; в IX указатель на найденный предмет
  69++6B2C DD 7E 00         LD A, (IX+Item.itemID)
  70++6B2F CD FC 6A         CALL calc_item_type
  71++6B32 7E               LD A, (HL) ; в A получили номер спрайта предмета
  72++6B33
  73++6B33              push_item_from_map_find_heroes:
  74++6B33 F5               PUSH AF; запомнили его
  75++6B34                  ; LD D, (IY+Item.pos.x)
  76++6B34                  ; LD E, (IY+Item.pos.y); в DE - текущая позиция
  77++6B34 ED 5B 05 60      LD DE, (Vars.MapCell_xy)
  78++6B38 CD 94 68         CALL Entities.is_char_on_map
  79++6B3B 30 05            JR NC, push_item_from_map_no_heroes
  80++6B3D F1               POP AF; взяли номер спрайта предмета
  81++6B3E DD 77 05         LD (IX+Hero.ground), A
  82++6B41 C9               RET
  83++6B42
  84++6B42              push_item_from_map_no_heroes:
  85++6B42                  ; в DE у нас осталась текущая позиция
  86++6B42 CD 6A 67         CALL map.calc_pos
  87++6B45 F1               POP AF; сняли со стека номер спрайта
  88++6B46 77               LD (HL), A
  89++6B47 C9               RET
  90++6B48
  91++6B48              push_item_from_map_no_items: ; на карте нет предметов
  92++6B48              ; в IY у нас указатель на активный предмет
  93++6B48 FD 7E 03         LD A, (IY+Item.ground)
  94++6B4B 18 E6            JR push_item_from_map_find_heroes
  95++6B4D
  96++6B4D              ; пробуем манипулировать предметом - кладем предмет на карту ( без проверок уже )
  97++6B4D              ; на входе
  98++6B4D              ; в ActiveItem_ptr указатель на предмет с установленными pos x,y
  99++6B4D              pop_item_to_map: ; "кладем" предмет на карту
 100++6B4D FD 2A 8B 67      LD IY, (Entities.ActiveItem_ptr)
 101++6B51 FD 56 02         LD D, (IY+Item.pos.x)
 102++6B54 FD 5E 01         LD E, (IY+Item.pos.y); в DE - текущая позиция
 103++6B57                  ; LD DE, (Vars.MapCell_xy)
 104++6B57 CD E3 6B         CALL find_item_on_map
 105++6B5A 30 10            JR NC, pop_item_to_map_no_items
 106++6B5C
 107++6B5C DD 7E 03         LD A, (IX+Item.ground); берем землю из найденного предмета
 108++6B5F FD 77 03         LD (IY+Item.ground), A; запоминаем в своем
 109++6B62
 110++6B62 CD 94 68         CALL Entities.is_char_on_map
 111++6B65 38 10            JR C, pop_item_to_map_set_chars
 112++6B67
 113++6B67 CD 6A 67         CALL map.calc_pos
 114++6B6A 18 1D            JR pop_item_to_map_set_ground
 115++6B6C
 116++6B6C              pop_item_to_map_no_items:
 117++6B6C CD 94 68         CALL Entities.is_char_on_map
 118++6B6F 30 11            JR NC, pop_item_to_map_no_heroes
 119++6B71
 120++6B71 DD 7E 05         LD A,(IX+Hero.ground); взяли землю героя ( так как предметов тут нет )
 121++6B74 FD 77 03         LD (IY+Item.ground), A; запоминаем землю в своем предмете
 122++6B77
 123++6B77              pop_item_to_map_set_chars:
 124++6B77 FD 7E 00         LD A, (IY+Item.itemID); взяли тип предмета
 125++6B7A CD FC 6A         CALL calc_item_type; в HL указатель на предмет
 126++6B7D 7E               LD A, (HL); забрали номер спрайта
 127++6B7E DD 77 05         LD (IX+Hero.ground), A; поместили спрайт на землю у героя
 128++6B81 C9               RET
 129++6B82
 130++6B82              pop_item_to_map_no_heroes: ; героев нет
 131++6B82                  ; в DE у нас сохранилось pox XY
 132++6B82 CD 6A 67         CALL map.calc_pos ; в HL указатель на ячейку
 133++6B85 7E               LD A, (HL) ; забрали "землю"
 134++6B86 FD 77 03         LD (IY+Item.ground), A
 135++6B89
 136++6B89              pop_item_to_map_set_ground:
 137++6B89 E5               PUSH HL; запомнили указатель на ячейку карты
 138++6B8A FD 7E 00         LD A, (IY+Item.itemID); взяли тип предмета
 139++6B8D CD FC 6A         CALL calc_item_type
 140++6B90 7E               LD A, (HL) ; (IX+ItemType.spr_num)
 141++6B91 E1               POP HL
 142++6B92 77               LD (HL),A
 143++6B93 C9               RET
 144++6B94
 145++6B94              ; внезапно добавляем предмет на карту
 146++6B94              ; в DE позиция на карте
 147++6B94              ; в A - тип предмета
 148++6B94              ; на выходе в IX указатель на предмет
 149++6B94              add_item_to_map:
 150++6B94 D5               PUSH DE
 151++6B95 F5               PUSH AF
 152++6B96 CD 07 6B         CALL search_empty_item; на выходе признак переноса и IX указатель на пустой предмет или сброшеный признак переноса
 153++6B99 D2 BC 6B         JP NC, add_item_to_map_error
 154++6B9C F1               POP AF
 155++6B9D DD 77 00         LD (IX+Item.itemID), A; сохранили тип предмета
 156++6BA0 D1               POP DE
 157++6BA1 DD 72 02         LD (IX+Item.pos.x), D
 158++6BA4 DD 73 01         LD (IX+Item.pos.y), E ; сохранили позицию предмета
 159++6BA7 DD 36 04 FE      LD (IX+Item.owner), #fe ;  временно маркируем предмет как занятый
 160++6BAB DD 22 8B 67      LD (Entities.ActiveItem_ptr), IX
 161++6BAF DD E5            PUSH IX
 162++6BB1 CD 4D 6B         CALL pop_item_to_map
 163++6BB4 DD E1            POP IX
 164++6BB6 DD 36 04 FF      LD (IX+Item.owner), #ff ;положили на карту
 165++6BBA                  ret_true
 165++6BBA 37          >  SCF ; устанавливаем бит переноса ( Carry = 1 )
 165++6BBB C9          >  RET
 166++6BBC              add_item_to_map_error:
 167++6BBC F1               POP AF
 168++6BBD D1               POP DE
 169++6BBE                  ret_false
 169++6BBE 37          >  SCF ; устанавливаем бит переноса и инвертируем его ))
 169++6BBF 3F          >  CCF
 169++6BC0 C9          >  RET
 170++6BC1
 171++6BC1              ; получить указатель на предмет в руках героя
 172++6BC1              ; если NC то предмет есть, в A - номер спрайта, в HL указатель на тип предмета
 173++6BC1              ; если предмета нет то в Vars.var_item_id стоит #ff
 174++6BC1              get_hero_hand_item:
 175++6BC1 DD 2A 86 67      LD IX, (Entities.activePersonage_ptr)
 176++6BC5 DD 7E 0A         LD A, (IX+Hero.hand_right_p_1)
 177++6BC8 A7               AND A
 178++6BC9 20 08            JR NZ, get_hero_hand_item_yes
 179++6BCB 3E FF            LD A, #ff
 180++6BCD                  setVar Vars.var_item_id
 180++6BCD 32 07 60    >    LD ( zxengine.varsTab + Vars.var_item_id ), A
 181++6BD0 C3 C5 6A         JP Entities.sys_check_no
 182++6BD3              get_hero_hand_item_yes:
 183++6BD3 DD 6E 09         LD L, (IX+Hero.hand_right_p)
 184++6BD6 DD 66 0A         LD H, (IX+Hero.hand_right_p+1)
 185++6BD9 7E               LD A, (HL)
 186++6BDA CD FC 6A         CALL items.calc_item_type
 187++6BDD 7E               LD A,(HL)
 188++6BDE                  setVar Vars.var_item_id
 188++6BDE 32 07 60    >    LD ( zxengine.varsTab + Vars.var_item_id ), A
 189++6BE1                  ret_true
 189++6BE1 37          >  SCF ; устанавливаем бит переноса ( Carry = 1 )
 189++6BE2 C9          >  RET
 190++6BE3
 191++6BE3              ; в DE позиция на карте
 192++6BE3              ; на выходе если есть на этой позиции хотя бы один предмет, возвращаем true
 193++6BE3              ; и IX - указатель на него
 194++6BE3              find_item_on_map:
 195++6BE3 DD 21 1E D8      LD IX, ITEM_ARRAY; указатель на массив предметов
 196++6BE7 06 32            LD B, ItemArraySize; число предметов
 197++6BE9              ; проверяем совпадают ли координаты хотя бы c одним предметом
 198++6BE9              check_item:
 199++6BE9 DD 7E 00         LD A, (IX+Item.itemID)
 200++6BEC FE FF            CP #FF; пустая запись
 201++6BEE 28 15            JR Z, next_item
 202++6BF0 DD 7E 04         LD A, (IX+Item.owner)
 203++6BF3 FE FF            CP #FF
 204++6BF5 20 0E            JR NZ, next_item; значение не #ff - лежит у кого-то в инвентаре
 205++6BF7 DD 7E 01         LD A, (IX+Item.pos.y)
 206++6BFA BB               CP E
 207++6BFB 20 08            JR NZ, next_item
 208++6BFD DD 7E 02         LD A, (IX+Item.pos.x)
 209++6C00 BA               CP D
 210++6C01 20 02            JR NZ, next_item
 211++6C03              ; нашли!
 212++6C03                  ret_true
 212++6C03 37          >  SCF ; устанавливаем бит переноса ( Carry = 1 )
 212++6C04 C9          >  RET
 213++6C05              next_item:
 214++6C05 C5               PUSH BC
 215++6C06 01 06 00         LD BC, Item
 216++6C09 DD 09            ADD IX, BC
 217++6C0B C1               POP BC
 218++6C0C 10 DB            DJNZ check_item
 219++6C0E                  ret_false
 219++6C0E 37          >  SCF ; устанавливаем бит переноса и инвертируем его ))
 219++6C0F 3F          >  CCF
 219++6C10 C9          >  RET
 220++6C11
 221++6C11              del_item_from_hand:
 222++6C11 DD 2A 86 67    LD IX, (Entities.activePersonage_ptr)
 223++6C15 DD 7E 0A       LD A, (IX+Hero.hand_right_p_1)
 224++6C18 A7             AND A
 225++6C19 C8             RET Z
 226++6C1A 57             LD D,A
 227++6C1B DD 5E 09       LD E, (IX+Hero.hand_right_p)
 228++6C1E DD 36 0A 00    LD (IX+Hero.hand_right_p_1),0
 229++6C22 D5             PUSH DE
 230++6C23 FD E1          POP IY
 231++6C25 FD 36 00 FF    LD (IY+Item.itemID), #ff
 232++6C29 C9             RET
 233++6C2A
 234++6C2A              ; del_all_items_from_cell:
 235++6C2A
 236++6C2A              ; создаем предмет прямо в руках героя
 237++6C2A              ; в A - тип предмета
 238++6C2A              ; на выходе в IX указатель на предмет
 239++6C2A              add_item_to_hand:
 240++6C2A              ;   PUSH AF
 241++6C2A 32 32 6C       LD ( add_item_to_hand_2+1), A
 242++6C2D CD 07 6B       CALL search_empty_item; на выходе признак переноса и IX указатель на пустой предмет или сброшеный признак переноса
 243++6C30 D0             RET NC
 244++6C31              ;   POP AF
 245++6C31              add_item_to_hand_2:
 246++6C31 3E 00          LD A, #00
 247++6C33 DD 77 00       LD (IX+Item.itemID), A; сохранили тип предмета
 248++6C36
 249++6C36 3A 88 67       LD A, ( Entities.CurPersonageNum )
 250++6C39 DD 77 04       LD (IX+Item.owner), A
 251++6C3C DD E5          PUSH IX
 252++6C3E E1             POP HL
 253++6C3F
 254++6C3F DD 2A 86 67    LD IX, (Entities.activePersonage_ptr)
 255++6C43 DD 75 09       LD (IX+Hero.hand_right_p), L
 256++6C46 DD 74 0A       LD (IX+Hero.hand_right_p_1), H
 257++6C49 C9             RET
 258++6C4A
 259++6C4A              ; add_item_to_hand_error:
 260++6C4A                  ; POP AF
 261++6C4A                  ; RET
 262++6C4A
 263++6C4A              ; уничтожаем предмет в активной ячейке
 264++6C4A              self_destroy_item:
 265++6C4A ED 5B 05 60      LD DE, (Vars.MapCell_xy);
 266++6C4E              ; TODO в силу (временных?) ограничений движка предмет на предмет класть не можем,
 267++6C4E              ; поэтому удаляем первый найденный предмет с карты
 268++6C4E              ; в DE позиция на карте
 269++6C4E              ; на выходе если есть на этой позиции хотя бы один предмет, возвращаем true
 270++6C4E              ; TODO "ЗЕМЛЮ" на карте не восстанавливаем (!!!!)
 271++6C4E              del_item_from_map:
 272++6C4E CD E3 6B       CALL find_item_on_map
 273++6C51 D0             RET NC ; предмета и так нет
 274++6C52 DD 36 00 FF    LD (IX+Item.itemID), #ff
 275++6C56                ret_true
 275++6C56 37          >  SCF ; устанавливаем бит переноса ( Carry = 1 )
 275++6C57 C9          >  RET
 276++6C58
 277++6C58              ENDMODULE
# file closed: /Users/random/zx-engine/middlware/items.asm
  26++6C58                include "core/interrupt.asm"
# file opened: /Users/random/zx-engine/core/interrupt.asm
   1++6C58                MODULE interrupt
   2++6C58
   3++6C58              init: ;инициализация прерываний, из Survivesection
   4++6C58 F3             DI
   5++6C59 21 00 E0       LD HL,INT_VECTOR
   6++6C5C 06 00          LD B,0
   7++6C5E 3E E1          LD A, (high INT_VECTOR)+1
   8++6C60              init_loop:
   9++6C60 77             LD (HL),A
  10++6C61 23             INC HL
  11++6C62 10 FC          DJNZ init_loop
  12++6C64 77             LD (HL),A
  13++6C65 26 E1          LD H,(high INT_VECTOR)+1
  14++6C67 6C             LD L,H
  15++6C68 36 C3          LD (HL),#C3
  16++6C6A 23             INC HL
  17++6C6B 11 79 6C       LD DE,interrupt_routine
  18++6C6E 73             LD (HL),E
  19++6C6F 23             INC HL
  20++6C70 72             LD (HL),D
  21++6C71 3E E0          LD A,high INT_VECTOR
  22++6C73 ED 47          LD I,A
  23++6C75 ED 5E          IM 2
  24++6C77 FB             EI
  25++6C78 C9             RET
  26++6C79
  27++6C79              interrupt_routine:
  28++6C79 F3             DI
  29++6C7A F5             push af             ; preserve registers.
  30++6C7B C5             push bc
  31++6C7C D5             push de
  32++6C7D E5             push hl
  33++6C7E DD E5          push ix
  34++6C80 FD E5          push iy
  35++6C82
  36++6C82                ; LD A,R
  37++6C82                ; OUT(#FE),A
  38++6C82
  39++6C82 2A 93 6C       LD HL, (frame_counter)
  40++6C85 23             INC HL
  41++6C86 22 93 6C       LD (frame_counter), HL
  42++6C89
  43++6C89                ; CALL cursor.show_cursor
  44++6C89                ; show_cursor
  45++6C89
  46++6C89                ; CALL screenfx.show_frames
  47++6C89              return_routine:
  48++6C89 FD E1          pop iy
  49++6C8B DD E1          pop ix             ; restore registers.
  50++6C8D E1             pop hl
  51++6C8E D1             pop de
  52++6C8F C1             pop bc
  53++6C90 F1             pop af
  54++6C91 FB             EI
  55++6C92 C9             ret
  56++6C93
  57++6C93              frame_counter:
  58++6C93 00 00          dw 0
  59++6C95
  60++6C95              interrupt_end
  61++6C95                ENDMODULE
  62++6C95
# file closed: /Users/random/zx-engine/core/interrupt.asm
  27++6C95
# file closed: /Users/random/zx-engine/code.asm
   4+ 6C95              static:
   5+ 6C95                include "static.asm"
# file opened: /Users/random/zx-engine/static.asm
   1++6C95              ; 0 - игра не окончена никак
   2++6C95              ; 1 - хеппи-енд
   3++6C95              ; 2 - геймовер
   4++6C95              IS_GAME_OVER
   5++6C95 00             defb 00
   6++6C96
   7++6C96              TILE_SET:
   8++6C96                include "data/graph/tiles_many.asm"
# file opened: /Users/random/zx-engine/data/graph/tiles_many.asm
   1++6C96              ; ASM data file from a ZX-Paintbrush picture with 256 x 192 pixels (= 32 x 24 characters)
   2++6C96              ; and an attribute area of 768 bytes
   3++6C96
   4++6C96              ; block based output of pixel data - each block contains 16 x 16 pixels
   5++6C96
   6++6C96              ; block at pixel position (0,0):
   7++6C96
   8++6C96 FF FF FF FF  defb 255, 255, 255, 255, 255, 255, 255, 255
   8++6C9A FF FF FF FF
   9++6C9E FF FF FF FF  defb 255, 255, 255, 255, 255, 255, 255, 255
   9++6CA2 FF FF FF FF
  10++6CA6 FF FF FF FF  defb 255, 255, 255, 255, 255, 255, 255, 255
  10++6CAA FF FF FF FF
  11++6CAE FF FF FF FF  defb 255, 255, 255, 255, 255, 255, 255, 255
  11++6CB2 FF FF FF FF
  12++6CB6 38 38 38 38  defb 56, 56, 56, 56
  13++6CBA
  14++6CBA              ; block at pixel position (16,0):
  15++6CBA
  16++6CBA FF FF 80 01  defb 255, 255, 128, 1, 144, 5, 176, 13
  16++6CBE 90 05 B0 0D
  17++6CC2 80 01 80 01  defb 128, 1, 128, 1, 128, 1, 128, 129
  17++6CC6 80 01 80 81
  18++6CCA 81 81 80 01  defb 129, 129, 128, 1, 128, 1, 128, 1
  18++6CCE 80 01 80 01
  19++6CD2 90 05 B0 0D  defb 144, 5, 176, 13, 128, 1, 255, 255
  19++6CD6 80 01 FF FF
  20++6CDA 38 38 38 38  defb 56, 56, 56, 56
  21++6CDE
  22++6CDE              ; block at pixel position (32,0):
  23++6CDE
  24++6CDE 00 00 00 00  defb 0, 0, 0, 0, 61, 188, 33, 132
  24++6CE2 3D BC 21 84
  25++6CE6 3D BC 21 84  defb 61, 188, 33, 132, 36, 20, 35, 228
  25++6CEA 24 14 23 E4
  26++6CEE 01 00 3C BC  defb 1, 0, 60, 188, 33, 132, 40, 20
  26++6CF2 21 84 28 14
  27++6CF6 27 E4 21 84  defb 39, 228, 33, 132, 61, 188, 0, 0
  27++6CFA 3D BC 00 00
  28++6CFE 70 70 70 70  defb 112, 112, 112, 112
  29++6D02
  30++6D02              ; block at pixel position (48,0):
  31++6D02
  32++6D02 FF FF FF 7F  defb 255, 255, 255, 127, 255, 255, 255, 127
  32++6D06 FF FF FF 7F
  33++6D0A FF FF FF 7F  defb 255, 255, 255, 127, 255, 255, 255, 127
  33++6D0E FF FF FF 7F
  34++6D12 AA AA FF 7F  defb 170, 170, 255, 127, 255, 255, 255, 127
  34++6D16 FF FF FF 7F
  35++6D1A FF FF FF 7F  defb 255, 255, 255, 127, 255, 255, 255, 127
  35++6D1E FF FF FF 7F
  36++6D22 38 18 18 18  defb 56, 24, 24, 24
  37++6D26
  38++6D26              ; block at pixel position (64,0):
  39++6D26
  40++6D26 3F FC 40 02  defb 63, 252, 64, 2, 159, 249, 177, 93
  40++6D2A 9F F9 B1 5D
  41++6D2E A2 FD A7 FD  defb 162, 253, 167, 253, 171, 253, 175, 253
  41++6D32 AB FD AF FD
  42++6D36 B7 ED 99 39  defb 183, 237, 153, 57, 207, 243, 176, 13
  42++6D3A CF F3 B0 0D
  43++6D3E 92 A9 F9 5F  defb 146, 169, 249, 95, 252, 63, 255, 255
  43++6D42 FC 3F FF FF
  44++6D46 60 60 60 60  defb 96, 96, 96, 96
  45++6D4A
  46++6D4A              ; block at pixel position (80,0):
  47++6D4A
  48++6D4A FF FF F3 CF  defb 255, 255, 243, 207, 225, 199, 230, 103
  48++6D4E E1 C7 E6 67
  49++6D52 E4 37 E4 B7  defb 228, 55, 228, 183, 228, 55, 228, 183
  49++6D56 E4 37 E4 B7
  50++6D5A E4 B7 E4 B7  defb 228, 183, 228, 183, 228, 55, 228, 55
  50++6D5E E4 37 E4 37
  51++6D62 E4 37 F4 3F  defb 228, 55, 244, 63, 252, 63, 254, 127
  51++6D66 FC 3F FE 7F
  52++6D6A 50 50 50 50  defb 80, 80, 80, 80
  53++6D6E
  54++6D6E              ; block at pixel position (96,0):
  55++6D6E
  56++6D6E FF FF 09 82  defb 255, 255, 9, 130, 4, 133, 10, 130
  56++6D72 04 85 0A 82
  57++6D76 05 85 0A 82  defb 5, 133, 10, 130, 5, 133, 10, 130
  57++6D7A 05 85 0A 82
  58++6D7E 00 85 FF FF  defb 0, 133, 255, 255, 5, 149, 2, 138
  58++6D82 05 95 02 8A
  59++6D86 05 95 02 82  defb 5, 149, 2, 130, 2, 133, 5, 130
  59++6D8A 02 85 05 82
  60++6D8E 38 38 38 38  defb 56, 56, 56, 56
  61++6D92
  62++6D92              ; block at pixel position (112,0):
  63++6D92
  64++6D92 FF FF FF FF  defb 255, 255, 255, 255, 252, 127, 240, 31
  64++6D96 FC 7F F0 1F
  65++6D9A E0 CF F0 1F  defb 224, 207, 240, 31, 236, 111, 227, 159
  65++6D9E EC 6F E3 9F
  66++6DA2 E0 2F E0 5F  defb 224, 47, 224, 95, 224, 175, 224, 95
  66++6DA6 E0 AF E0 5F
  67++6DAA E0 AF F0 1F  defb 224, 175, 240, 31, 252, 127, 255, 255
  67++6DAE FC 7F FF FF
  68++6DB2 60 60 60 60  defb 96, 96, 96, 96
  69++6DB6
  70++6DB6              ; block at pixel position (128,0):
  71++6DB6
  72++6DB6 FF FF FC 9F  defb 255, 255, 252, 159, 226, 167, 199, 243
  72++6DBA E2 A7 C7 F3
  73++6DBE 99 99 B3 49  defb 153, 153, 179, 73, 163, 77, 230, 77
  73++6DC2 A3 4D E6 4D
  74++6DC6 EE CF EC DF  defb 238, 207, 236, 223, 252, 191, 252, 255
  74++6DCA FC BF FC FF
  75++6DCE F4 DF D8 57  defb 244, 223, 216, 87, 254, 127, 255, 255
  75++6DD2 FE 7F FF FF
  76++6DD6 58 58 58 58  defb 88, 88, 88, 88
  77++6DDA
  78++6DDA              ; block at pixel position (144,0):
  79++6DDA
  80++6DDA FF FF FE 7F  defb 255, 255, 254, 127, 252, 63, 252, 255
  80++6DDE FC 3F FC FF
  81++6DE2 FB 3F F0 DF  defb 251, 63, 240, 223, 228, 15, 228, 47
  81++6DE6 E4 0F E4 2F
  82++6DEA EE 37 E5 57  defb 238, 55, 229, 87, 244, 159, 252, 159
  82++6DEE F4 9F FC 9F
  83++6DF2 F9 CF F3 CF  defb 249, 207, 243, 207, 243, 231, 249, 255
  83++6DF6 F3 E7 F9 FF
  84++6DFA 70 70 70 70  defb 112, 112, 112, 112
  85++6DFE
  86++6DFE              ; block at pixel position (160,0):
  87++6DFE
  88++6DFE FF FF FF FF  defb 255, 255, 255, 255, 255, 255, 255, 255
  88++6E02 FF FF FF FF
  89++6E06 FF FF FF FF  defb 255, 255, 255, 255, 255, 255, 94, 63
  89++6E0A FF FF 5E 3F
  90++6E0E 53 FF 20 FF  defb 83, 255, 32, 255, 248, 70, 201, 128
  90++6E12 F8 46 C9 80
  91++6E16 9C 7F DF 3F  defb 156, 127, 223, 63, 239, 31, 255, 207
  91++6E1A EF 1F FF CF
  92++6E1E 70 70 70 70  defb 112, 112, 112, 112
  93++6E22
  94++6E22              ; block at pixel position (176,0):
  95++6E22
  96++6E22 FE 7F FC 3F  defb 254, 127, 252, 63, 252, 255, 251, 63
  96++6E26 FC FF FB 3F
  97++6E2A F0 DF E4 0F  defb 240, 223, 228, 15, 228, 41, 238, 49
  97++6E2E E4 29 EE 31
  98++6E32 E5 53 F4 9F  defb 229, 83, 244, 159, 252, 159, 253, 207
  98++6E36 FC 9F FD CF
  99++6E3A F9 EF F3 E7  defb 249, 239, 243, 231, 249, 255, 255, 255
  99++6E3E F9 FF FF FF
 100++6E42 70 70 70 70  defb 112, 112, 112, 112
 101++6E46
 102++6E46              ; block at pixel position (192,0):
 103++6E46
 104++6E46 F3 FF E1 FF  defb 243, 255, 225, 255, 231, 255, 217, 255
 104++6E4A E7 FF D9 FF
 105++6E4E 9E 00 88 EF  defb 158, 0, 136, 239, 227, 159, 253, 255
 105++6E52 E3 9F FD FF
 106++6E56 F1 FF EA FF  defb 241, 255, 234, 255, 230, 127, 231, 127
 106++6E5A E6 7F E7 7F
 107++6E5E CF 3F 9F 1F  defb 207, 63, 159, 31, 207, 255, 255, 255
 107++6E62 CF FF FF FF
 108++6E66 70 70 70 70  defb 112, 112, 112, 112
 109++6E6A
 110++6E6A              ; block at pixel position (208,0):
 111++6E6A
 112++6E6A 7E 7F 7C 3F  defb 126, 127, 124, 63, 188, 255, 187, 63
 112++6E6E BC FF BB 3F
 113++6E72 D0 DF D8 0F  defb 208, 223, 216, 15, 236, 39, 230, 57
 113++6E76 EC 27 E6 39
 114++6E7A E5 5F FC 9F  defb 229, 95, 252, 159, 252, 159, 249, 207
 114++6E7E FC 9F F9 CF
 115++6E82 F3 CF F3 E7  defb 243, 207, 243, 231, 249, 255, 255, 255
 115++6E86 F9 FF FF FF
 116++6E8A 70 70 70 70  defb 112, 112, 112, 112
 117++6E8E
 118++6E8E              ; block at pixel position (224,0):
 119++6E8E
 120++6E8E FE 7F FC 3F  defb 254, 127, 252, 63, 252, 255, 187, 63
 120++6E92 FC FF BB 3F
 121++6E96 90 DF D8 0F  defb 144, 223, 216, 15, 236, 39, 230, 57
 121++6E9A EC 27 E6 39
 122++6E9E FD 5F FC 9F  defb 253, 95, 252, 159, 252, 159, 249, 207
 122++6EA2 FC 9F F9 CF
 123++6EA6 F3 CF F3 E7  defb 243, 207, 243, 231, 249, 255, 255, 255
 123++6EAA F9 FF FF FF
 124++6EAE 70 70 70 70  defb 112, 112, 112, 112
 125++6EB2
 126++6EB2              ; block at pixel position (240,0):
 127++6EB2
 128++6EB2 00 00 00 00  defb 0, 0, 0, 0, 0, 0, 0, 0
 128++6EB6 00 00 00 00
 129++6EBA 00 00 00 00  defb 0, 0, 0, 0, 0, 0, 0, 0
 129++6EBE 00 00 00 00
 130++6EC2 00 00 00 00  defb 0, 0, 0, 0, 0, 0, 0, 0
 130++6EC6 00 00 00 00
 131++6ECA 00 00 00 00  defb 0, 0, 0, 0, 0, 0, 0, 0
 131++6ECE 00 00 00 00
 132++6ED2 78 78 78 78  defb 120, 120, 120, 120
 133++6ED6
 134++6ED6              ; block at pixel position (0,16):
 135++6ED6
 136++6ED6 FE FF ED FF  defb 254, 255, 237, 255, 181, 191, 213, 127
 136++6EDA B5 BF D5 7F
 137++6EDE FF EE FF EE  defb 255, 238, 255, 238, 247, 117, 107, 181
 137++6EE2 F7 75 6B B5
 138++6EE6 6A D5 DB FF  defb 106, 213, 219, 255, 223, 255, 215, 255
 138++6EEA DF FF D7 FF
 139++6EEE 56 FF 55 ED  defb 86, 255, 85, 237, 255, 255, 255, 255
 139++6EF2 FF FF FF FF
 140++6EF6 28 28 28 28  defb 40, 40, 40, 40
 141++6EFA
 142++6EFA              ; block at pixel position (16,16):
 143++6EFA
 144++6EFA FE FF EF FB  defb 254, 255, 239, 251, 255, 127, 255, 255
 144++6EFE FF 7F FF FF
 145++6F02 77 FF FF 77  defb 119, 255, 255, 119, 255, 255, 255, 255
 145++6F06 FF FF FF FF
 146++6F0A DD FF FF DF  defb 221, 255, 255, 223, 255, 253, 187, 255
 146++6F0E FF FD BB FF
 147++6F12 FF FF EF EF  defb 255, 255, 239, 239, 254, 255, 255, 255
 147++6F16 FE FF FF FF
 148++6F1A 20 20 20 20  defb 32, 32, 32, 32
 149++6F1E
 150++6F1E              ; block at pixel position (32,16):
 151++6F1E
 152++6F1E 7F FE 87 E1  defb 127, 254, 135, 225, 191, 253, 39, 228
 152++6F22 BF FD 27 E4
 153++6F26 BF FD A7 E5  defb 191, 253, 167, 229, 167, 245, 167, 229
 153++6F2A A7 F5 A7 E5
 154++6F2E 87 E1 BF FD  defb 135, 225, 191, 253, 167, 229, 175, 245
 154++6F32 A7 E5 AF F5
 155++6F36 27 E4 B7 ED  defb 39, 228, 183, 237, 135, 225, 127, 254
 155++6F3A 87 E1 7F FE
 156++6F3E 70 70 70 70  defb 112, 112, 112, 112
 157++6F42
 158++6F42              ; block at pixel position (48,16):
 159++6F42
 160++6F42 FF FE FF E2  defb 255, 254, 255, 226, 255, 194, 2, 66
 160++6F46 FF C2 02 42
 161++6F4A 02 42 02 43  defb 2, 66, 2, 67, 2, 94, 2, 98
 161++6F4E 02 5E 02 62
 162++6F52 FF FE 00 00  defb 255, 254, 0, 0, 0, 0, 255, 255
 162++6F56 00 00 FF FF
 163++6F5A DF FD 9F F9  defb 223, 253, 159, 249, 255, 255, 255, 255
 163++6F5E FF FF FF FF
 164++6F62 50 50 50 50  defb 80, 80, 80, 80
 165++6F66
 166++6F66              ; block at pixel position (64,16):
 167++6F66
 168++6F66 3F FC 40 02  defb 63, 252, 64, 2, 159, 249, 191, 253
 168++6F6A 9F F9 BF FD
 169++6F6E BF FD BF FD  defb 191, 253, 191, 253, 191, 253, 191, 253
 169++6F72 BF FD BF FD
 170++6F76 BF FD 9F F9  defb 191, 253, 159, 249, 207, 243, 176, 13
 170++6F7A CF F3 B0 0D
 171++6F7E 92 A9 F9 5F  defb 146, 169, 249, 95, 252, 63, 255, 255
 171++6F82 FC 3F FF FF
 172++6F86 78 78 78 78  defb 120, 120, 120, 120
 173++6F8A
 174++6F8A              ; block at pixel position (80,16):
 175++6F8A
 176++6F8A FF FF FF FF  defb 255, 255, 255, 255, 255, 255, 255, 255
 176++6F8E FF FF FF FF
 177++6F92 FF DF FF BF  defb 255, 223, 255, 191, 255, 127, 250, 255
 177++6F96 FF 7F FA FF
 178++6F9A F4 FF E1 FF  defb 244, 255, 225, 255, 243, 255, 235, 255
 178++6F9E F3 FF EB FF
 179++6FA2 DF FF DF FF  defb 223, 255, 223, 255, 255, 255, 255, 255
 179++6FA6 FF FF FF FF
 180++6FAA 78 78 78 38  defb 120, 120, 120, 56
 181++6FAE
 182++6FAE              ; block at pixel position (96,16):
 183++6FAE
 184++6FAE FF FF FF FF  defb 255, 255, 255, 255, 255, 255, 255, 255
 184++6FB2 FF FF FF FF
 185++6FB6 FF FF FF 7F  defb 255, 255, 255, 127, 254, 255, 253, 255
 185++6FBA FE FF FD FF
 186++6FBE F9 FF FD FF  defb 249, 255, 253, 255, 255, 255, 255, 255
 186++6FC2 FF FF FF FF
 187++6FC6 FF FF FF FF  defb 255, 255, 255, 255, 255, 255, 255, 255
 187++6FCA FF FF FF FF
 188++6FCE 78 78 78 38  defb 120, 120, 120, 56
 189++6FD2
 190++6FD2              ; block at pixel position (112,16):
 191++6FD2
 192++6FD2 FF FF FF FF  defb 255, 255, 255, 255, 255, 255, 255, 247
 192++6FD6 FF FF FF F7
 193++6FDA FF EF FF DF  defb 255, 239, 255, 223, 255, 191, 255, 127
 193++6FDE FF BF FF 7F
 194++6FE2 FE FF F9 FF  defb 254, 255, 249, 255, 253, 255, 247, 255
 194++6FE6 FD FF F7 FF
 195++6FEA FF FF FF FF  defb 255, 255, 255, 255, 255, 255, 255, 255
 195++6FEE FF FF FF FF
 196++6FF2 38 78 78 38  defb 56, 120, 120, 56
 197++6FF6
 198++6FF6              ; block at pixel position (128,16):
 199++6FF6
 200++6FF6 FF FF F9 CF  defb 255, 255, 249, 207, 244, 159, 254, 127
 200++6FFA F4 9F FE 7F
 201++6FFE E2 C7 C9 13  defb 226, 199, 201, 19, 223, 59, 242, 79
 201++7002 DF 3B F2 4F
 202++7006 E2 87 CD 37  defb 226, 135, 205, 55, 219, 215, 216, 31
 202++700A DB D7 D8 1F
 203++700E F8 1F F8 1F  defb 248, 31, 248, 31, 252, 63, 255, 255
 203++7012 FC 3F FF FF
 204++7016 60 60 60 60  defb 96, 96, 96, 96
 205++701A
 206++701A              ; block at pixel position (144,16):
 207++701A
 208++701A FF FF FC 3F  defb 255, 255, 252, 63, 251, 223, 251, 95
 208++701E FB DF FB 5F
 209++7022 FA DF E3 C7  defb 250, 223, 227, 199, 224, 7, 216, 27
 209++7026 E0 07 D8 1B
 210++702A CE 73 CC 33  defb 206, 115, 204, 51, 243, 207, 242, 79
 210++702E F3 CF F2 4F
 211++7032 FC 3F F9 9F  defb 252, 63, 249, 159, 255, 255, 241, 143
 211++7036 FF FF F1 8F
 212++703A 70 70 70 70  defb 112, 112, 112, 112
 213++703E
 214++703E              ; block at pixel position (160,16):
 215++703E
 216++703E FF FF FF FF  defb 255, 255, 255, 255, 255, 255, 255, 255
 216++7042 FF FF FF FF
 217++7046 FF FF FF FF  defb 255, 255, 255, 255, 255, 255, 94, 63
 217++704A FF FF 5E 3F
 218++704E 53 FF 20 FF  defb 83, 255, 32, 255, 248, 70, 201, 128
 218++7052 F8 46 C9 80
 219++7056 9C 7F DF 3F  defb 156, 127, 223, 63, 239, 31, 255, 207
 219++705A EF 1F FF CF
 220++705E 50 50 50 50  defb 80, 80, 80, 80
 221++7062
 222++7062              ; block at pixel position (176,16):
 223++7062
 224++7062 FF FF FF FF  defb 255, 255, 255, 255, 255, 255, 255, 255
 224++7066 FF FF FF FF
 225++706A FF FF FF FF  defb 255, 255, 255, 255, 255, 255, 94, 63
 225++706E FF FF 5E 3F
 226++7072 53 FF 20 FF  defb 83, 255, 32, 255, 248, 70, 201, 128
 226++7076 F8 46 C9 80
 227++707A 9C 7F DF 3F  defb 156, 127, 223, 63, 239, 31, 255, 207
 227++707E EF 1F FF CF
 228++7082 38 38 38 38  defb 56, 56, 56, 56
 229++7086
 230++7086              ; block at pixel position (192,16):
 231++7086
 232++7086 FF FF FF FF  defb 255, 255, 255, 255, 255, 255, 255, 255
 232++708A FF FF FF FF
 233++708E FF FF FF FF  defb 255, 255, 255, 255, 255, 255, 94, 63
 233++7092 FF FF 5E 3F
 234++7096 53 FF 20 FF  defb 83, 255, 32, 255, 248, 70, 201, 128
 234++709A F8 46 C9 80
 235++709E 9C 7F DF 3F  defb 156, 127, 223, 63, 239, 31, 255, 207
 235++70A2 EF 1F FF CF
 236++70A6 28 28 28 28  defb 40, 40, 40, 40
 237++70AA
 238++70AA              ; block at pixel position (208,16):
 239++70AA
 240++70AA FF FF FF FF  defb 255, 255, 255, 255, 252, 127, 240, 31
 240++70AE FC 7F F0 1F
 241++70B2 E0 CF F0 1F  defb 224, 207, 240, 31, 236, 111, 227, 159
 241++70B6 EC 6F E3 9F
 242++70BA E0 2F E0 5F  defb 224, 47, 224, 95, 224, 175, 224, 95
 242++70BE E0 AF E0 5F
 243++70C2 E0 AF F0 1F  defb 224, 175, 240, 31, 252, 127, 255, 255
 243++70C6 FC 7F FF FF
 244++70CA 38 38 38 38  defb 56, 56, 56, 56
 245++70CE
 246++70CE              ; block at pixel position (224,16):
 247++70CE
 248++70CE FF FF FF FF  defb 255, 255, 255, 255, 255, 255, 255, 255
 248++70D2 FF FF FF FF
 249++70D6 FF FF FF FF  defb 255, 255, 255, 255, 255, 255, 248, 31
 249++70DA FF FF F8 1F
 250++70DE C0 03 8C 31  defb 192, 3, 140, 49, 6, 96, 4, 32
 250++70E2 06 60 04 20
 251++70E6 06 60 8C 31  defb 6, 96, 140, 49, 192, 3, 248, 31
 251++70EA C0 03 F8 1F
 252++70EE 38 38 38 38  defb 56, 56, 56, 56
 253++70F2
 254++70F2              ; block at pixel position (240,16):
 255++70F2
 256++70F2 00 00 00 00  defb 0, 0, 0, 0, 0, 0, 0, 0
 256++70F6 00 00 00 00
 257++70FA 00 00 00 00  defb 0, 0, 0, 0, 0, 0, 0, 0
 257++70FE 00 00 00 00
 258++7102 00 00 00 00  defb 0, 0, 0, 0, 0, 0, 0, 0
 258++7106 00 00 00 00
 259++710A 00 00 00 00  defb 0, 0, 0, 0, 0, 0, 0, 0
 259++710E 00 00 00 00
 260++7112 78 78 78 78  defb 120, 120, 120, 120
 261++7116
 262++7116              ; block at pixel position (0,32):
 263++7116
 264++7116 FF BF EE AD  defb 255, 191, 238, 173, 255, 255, 255, 255
 264++711A FF FF FF FF
 265++711E FF FF ED FF  defb 255, 255, 237, 255, 171, 119, 255, 255
 265++7122 AB 77 FF FF
 266++7126 FF FF FF FF  defb 255, 255, 255, 255, 255, 247, 255, 214
 266++712A FF F7 FF D6
 267++712E DE D5 FF FF  defb 222, 213, 255, 255, 255, 255, 255, 255
 267++7132 FF FF FF FF
 268++7136 20 20 20 20  defb 32, 32, 32, 32
 269++713A
 270++713A              ; block at pixel position (16,32):
 271++713A
 272++713A C7 0F 82 07  defb 199, 15, 130, 7, 122, 115, 197, 11
 272++713E 7A 73 C5 0B
 273++7142 9A 47 32 63  defb 154, 71, 50, 99, 39, 51, 39, 51
 273++7146 27 33 27 33
 274++714A 27 33 B3 37  defb 39, 51, 179, 55, 254, 111, 252, 127
 274++714E FE 6F FC 7F
 275++7152 98 07 64 BB  defb 152, 7, 100, 187, 221, 205, 255, 255
 275++7156 DD CD FF FF
 276++715A 58 58 58 58  defb 88, 88, 88, 88
 277++715E
 278++715E              ; block at pixel position (32,32):
 279++715E
 280++715E 7F FE 3F FC  defb 127, 254, 63, 252, 191, 253, 63, 252
 280++7162 BF FD 3F FC
 281++7166 BF FD BF FD  defb 191, 253, 191, 253, 63, 252, 191, 253
 281++716A 3F FC BF FD
 282++716E BF FD 3F FC  defb 191, 253, 63, 252, 191, 253, 191, 253
 282++7172 BF FD BF FD
 283++7176 3F FC BF FD  defb 63, 252, 191, 253, 63, 252, 127, 254
 283++717A 3F FC 7F FE
 284++717E 70 70 70 70  defb 112, 112, 112, 112
 285++7182
 286++7182              ; block at pixel position (48,32):
 287++7182
 288++7182 FF FF FF FF  defb 255, 255, 255, 255, 255, 255, 0, 0
 288++7186 FF FF 00 00
 289++718A 00 00 00 00  defb 0, 0, 0, 0, 0, 0, 0, 0
 289++718E 00 00 00 00
 290++7192 FF FF 00 00  defb 255, 255, 0, 0, 0, 0, 255, 255
 290++7196 00 00 FF FF
 291++719A DF FD 9F F9  defb 223, 253, 159, 249, 255, 255, 255, 255
 291++719E FF FF FF FF
 292++71A2 50 50 50 50  defb 80, 80, 80, 80
 293++71A6
 294++71A6              ; block at pixel position (64,32):
 295++71A6
 296++71A6 7F FC 51 22  defb 127, 252, 81, 34, 191, 249, 177, 93
 296++71AA BF F9 B1 5D
 297++71AE EB F7 27 BD  defb 235, 247, 39, 189, 255, 255, 239, 221
 297++71B2 FF FF EF DD
 298++71B6 B7 ED 99 3D  defb 183, 237, 153, 61, 239, 243, 181, 13
 298++71BA EF F3 B5 0D
 299++71BE 9B A9 F9 5F  defb 155, 169, 249, 95, 252, 63, 255, 255
 299++71C2 FC 3F FF FF
 300++71C6 38 38 38 38  defb 56, 56, 56, 56
 301++71CA
 302++71CA              ; block at pixel position (80,32):
 303++71CA
 304++71CA 00 FF 2A 81  defb 0, 255, 42, 129, 84, 169, 42, 149
 304++71CE 54 A9 2A 95
 305++71D2 54 A9 2A 95  defb 84, 169, 42, 149, 84, 129, 0, 255
 305++71D6 54 81 00 FF
 306++71DA FF 00 81 2A  defb 255, 0, 129, 42, 169, 84, 149, 42
 306++71DE A9 54 95 2A
 307++71E2 A9 54 95 2A  defb 169, 84, 149, 42, 129, 84, 255, 0
 307++71E6 81 54 FF 00
 308++71EA 38 38 38 38  defb 56, 56, 56, 56
 309++71EE
 310++71EE              ; block at pixel position (96,32):
 311++71EE
 312++71EE 02 85 09 83  defb 2, 133, 9, 131, 15, 133, 15, 194
 312++71F2 0F 85 0F C2
 313++71F6 1F E5 1F F2  defb 31, 229, 31, 242, 31, 245, 15, 250
 313++71FA 1F F5 0F FA
 314++71FE 0F FD FF FF  defb 15, 253, 255, 255, 7, 253, 7, 250
 314++7202 07 FD 07 FA
 315++7206 07 F5 03 C2  defb 7, 245, 3, 194, 2, 133, 5, 130
 315++720A 02 85 05 82
 316++720E 38 38 38 38  defb 56, 56, 56, 56
 317++7212
 318++7212              ; block at pixel position (112,32):
 319++7212
 320++7212 FA BF 8A A1  defb 250, 191, 138, 161, 186, 185, 186, 189
 320++7216 BA B9 BA BD
 321++721A F0 0F 03 40  defb 240, 15, 3, 64, 247, 175, 7, 64
 321++721E F7 AF 07 40
 322++7222 F7 AF 03 40  defb 247, 175, 3, 64, 240, 15, 250, 189
 322++7226 F0 0F FA BD
 323++722A BA BD BA B9  defb 186, 189, 186, 185, 138, 161, 250, 191
 323++722E 8A A1 FA BF
 324++7232 28 28 28 28  defb 40, 40, 40, 40
 325++7236
 326++7236              ; block at pixel position (128,32):
 327++7236
 328++7236 FA BF 8A A1  defb 250, 191, 138, 161, 190, 249, 186, 253
 328++723A BE F9 BA FD
 329++723E F2 87 2B F8  defb 242, 135, 43, 248, 221, 223, 23, 192
 329++7242 DD DF 17 C0
 330++7246 F5 3F 0E F0  defb 245, 63, 14, 240, 255, 175, 235, 125
 330++724A FF AF EB 7D
 331++724E BA BD BA B9  defb 186, 189, 186, 185, 138, 161, 250, 191
 331++7252 8A A1 FA BF
 332++7256 28 28 28 28  defb 40, 40, 40, 40
 333++725A
 334++725A              ; block at pixel position (144,32):
 335++725A
 336++725A FF FF FF 7F  defb 255, 255, 255, 127, 255, 255, 255, 127
 336++725E FF FF FF 7F
 337++7262 FF FF FF 7F  defb 255, 255, 255, 127, 255, 255, 255, 127
 337++7266 FF FF FF 7F
 338++726A AA AA FF 7F  defb 170, 170, 255, 127, 255, 255, 255, 127
 338++726E FF FF FF 7F
 339++7272 FF FF FF 7F  defb 255, 255, 255, 127, 255, 255, 255, 127
 339++7276 FF FF FF 7F
 340++727A 38 28 28 28  defb 56, 40, 40, 40
 341++727E
 342++727E              ; block at pixel position (160,32):
 343++727E
 344++727E F5 E6 9B 95  defb 245, 230, 155, 149, 107, 125, 93, 211
 344++7282 6B 7D 5D D3
 345++7286 D6 6E AF AB  defb 214, 110, 175, 171, 184, 220, 119, 119
 345++728A B8 DC 77 77
 346++728E CD 8D BE F7  defb 205, 141, 190, 247, 85, 170, 107, 218
 346++7292 55 AA 6B DA
 347++7296 D6 DF B6 F6  defb 214, 223, 182, 246, 127, 109, 65, 83
 347++729A 7F 6D 41 53
 348++729E 38 38 38 38  defb 56, 56, 56, 56
 349++72A2
 350++72A2              ; block at pixel position (176,32):
 351++72A2
 352++72A2 80 01 7F FE  defb 128, 1, 127, 254, 64, 2, 87, 234
 352++72A6 40 02 57 EA
 353++72AA 47 E2 5F FA  defb 71, 226, 95, 250, 95, 250, 95, 250
 353++72AE 5F FA 5F FA
 354++72B2 5F FA 5F FA  defb 95, 250, 95, 250, 95, 250, 71, 226
 354++72B6 5F FA 47 E2
 355++72BA 57 EA 40 02  defb 87, 234, 64, 2, 127, 254, 128, 1
 355++72BE 7F FE 80 01
 356++72C2 38 38 38 38  defb 56, 56, 56, 56
 357++72C6
 358++72C6              ; block at pixel position (192,32):
 359++72C6
 360++72C6 DB 6D 00 00  defb 219, 109, 0, 0, 219, 109, 0, 0
 360++72CA DB 6D 00 00
 361++72CE DB 6D 00 00  defb 219, 109, 0, 0, 219, 109, 0, 0
 361++72D2 DB 6D 00 00
 362++72D6 DB 6D 00 00  defb 219, 109, 0, 0, 219, 109, 0, 0
 362++72DA DB 6D 00 00
 363++72DE DB 6D 00 00  defb 219, 109, 0, 0, 219, 109, 0, 0
 363++72E2 DB 6D 00 00
 364++72E6 38 38 38 38  defb 56, 56, 56, 56
 365++72EA
 366++72EA              ; block at pixel position (208,32):
 367++72EA
 368++72EA FE 7F 9C 3F  defb 254, 127, 156, 63, 152, 31, 217, 159
 368++72EE 98 1F D9 9F
 369++72F2 D9 9F DC 3F  defb 217, 159, 220, 63, 224, 3, 128, 1
 369++72F6 E0 03 80 01
 370++72FA 80 01 C0 13  defb 128, 1, 192, 19, 192, 11, 203, 211
 370++72FE C0 0B CB D3
 371++7302 D8 1F D8 1F  defb 216, 31, 216, 31, 220, 63, 223, 255
 371++7306 DC 3F DF FF
 372++730A 28 68 28 68  defb 40, 104, 40, 104
 373++730E
 374++730E              ; block at pixel position (224,32):
 375++730E
 376++730E FF FF FF FF  defb 255, 255, 255, 255, 255, 255, 255, 255
 376++7312 FF FF FF FF
 377++7316 FF FF FF FF  defb 255, 255, 255, 255, 255, 255, 255, 255
 377++731A FF FF FF FF
 378++731E F8 3F E7 DF  defb 248, 63, 231, 223, 255, 239, 239, 223
 378++7322 FF EF EF DF
 379++7326 E1 EF F0 1F  defb 225, 239, 240, 31, 252, 127, 255, 255
 379++732A FC 7F FF FF
 380++732E 38 38 38 38  defb 56, 56, 56, 56
 381++7332
 382++7332              ; block at pixel position (240,32):
 383++7332
 384++7332 00 00 00 00  defb 0, 0, 0, 0, 0, 0, 0, 0
 384++7336 00 00 00 00
 385++733A 00 00 00 00  defb 0, 0, 0, 0, 0, 0, 0, 0
 385++733E 00 00 00 00
 386++7342 00 00 00 00  defb 0, 0, 0, 0, 0, 0, 0, 0
 386++7346 00 00 00 00
 387++734A 00 00 00 00  defb 0, 0, 0, 0, 0, 0, 0, 0
 387++734E 00 00 00 00
 388++7352 78 78 78 78  defb 120, 120, 120, 120
 389++7356
 390++7356              ; block at pixel position (0,48):
 391++7356
 392++7356 FF FF FF FF  defb 255, 255, 255, 255, 253, 255, 252, 243
 392++735A FD FF FC F3
 393++735E FC 67 C5 27  defb 252, 103, 197, 39, 228, 191, 246, 79
 393++7362 E4 BF F6 4F
 394++7366 F8 87 F2 47  defb 248, 135, 242, 71, 244, 99, 232, 155
 394++736A F4 63 E8 9B
 395++736E E3 9F CF DF  defb 227, 159, 207, 223, 255, 255, 255, 255
 395++7372 FF FF FF FF
 396++7376 60 60 60 60  defb 96, 96, 96, 96
 397++737A
 398++737A              ; block at pixel position (16,48):
 399++737A
 400++737A FF FF F9 FF  defb 255, 255, 249, 255, 240, 143, 237, 7
 400++737E F0 8F ED 07
 401++7382 F2 73 E1 19  defb 242, 115, 225, 25, 198, 137, 206, 203
 401++7386 C6 89 CE CB
 402++738A CD CF ED 9F  defb 205, 207, 237, 159, 252, 255, 248, 127
 402++738E FC FF F8 7F
 403++7392 F4 9F EC 6F  defb 244, 159, 236, 111, 251, 127, 255, 255
 403++7396 FB 7F FF FF
 404++739A 58 58 58 58  defb 88, 88, 88, 88
 405++739E
 406++739E              ; block at pixel position (32,48):
 407++739E
 408++739E FF FF FF FF  defb 255, 255, 255, 255, 255, 255, 255, 255
 408++73A2 FF FF FF FF
 409++73A6 F9 EF FF EF  defb 249, 239, 255, 239, 255, 127, 253, 191
 409++73AA FF 7F FD BF
 410++73AE FB FF FE FF  defb 251, 255, 254, 255, 254, 159, 255, 255
 410++73B2 FE 9F FF FF
 411++73B6 FF FF FF FF  defb 255, 255, 255, 255, 255, 255, 255, 255
 411++73BA FF FF FF FF
 412++73BE 78 78 78 78  defb 120, 120, 120, 120
 413++73C2
 414++73C2              ; block at pixel position (48,48):
 415++73C2
 416++73C2 FF FF FF 0F  defb 255, 255, 255, 15, 255, 3, 254, 5
 416++73C6 FF 03 FE 05
 417++73CA FE 05 FF 0B  defb 254, 5, 255, 11, 252, 203, 248, 55
 417++73CE FC CB F8 37
 418++73D2 E0 0F F0 3F  defb 224, 15, 240, 63, 204, 207, 243, 63
 418++73D6 CC CF F3 3F
 419++73DA FC FF FB BF  defb 252, 255, 251, 191, 252, 127, 255, 255
 419++73DE FC 7F FF FF
 420++73E2 50 50 50 50  defb 80, 80, 80, 80
 421++73E6
 422++73E6              ; block at pixel position (64,48):
 423++73E6
 424++73E6 FF FF FF FF  defb 255, 255, 255, 255, 255, 255, 255, 255
 424++73EA FF FF FF FF
 425++73EE FF FF FF FF  defb 255, 255, 255, 255, 255, 191, 255, 63
 425++73F2 FF BF FF 3F
 426++73F6 FE 7F FC FF  defb 254, 127, 252, 255, 255, 255, 255, 255
 426++73FA FF FF FF FF
 427++73FE FF FF FF FF  defb 255, 255, 255, 255, 255, 255, 255, 255
 427++7402 FF FF FF FF
 428++7406 38 78 78 78  defb 56, 120, 120, 120
 429++740A
 430++740A              ; block at pixel position (80,48):
 431++740A
 432++740A 00 00 7F FE  defb 0, 0, 127, 254, 102, 226, 127, 254
 432++740E 66 E2 7F FE
 433++7412 60 82 7F FE  defb 96, 130, 127, 254, 124, 30, 113, 194
 433++7416 7C 1E 71 C2
 434++741A 7C 1E 0F F0  defb 124, 30, 15, 240, 111, 246, 0, 0
 434++741E 6F F6 00 00
 435++7422 7F FE 7F FE  defb 127, 254, 127, 254, 127, 254, 0, 0
 435++7426 7F FE 00 00
 436++742A 38 38 38 38  defb 56, 56, 56, 56
 437++742E
 438++742E              ; block at pixel position (96,48):
 439++742E
 440++742E FF FF FF 7F  defb 255, 255, 255, 127, 255, 255, 255, 127
 440++7432 FF FF FF 7F
 441++7436 FF FF FF 7F  defb 255, 255, 255, 127, 255, 255, 255, 127
 441++743A FF FF FF 7F
 442++743E AA AA FF 7F  defb 170, 170, 255, 127, 255, 255, 255, 127
 442++7442 FF FF FF 7F
 443++7446 FF FF FF 7F  defb 255, 255, 255, 127, 255, 255, 255, 127
 443++744A FF FF FF 7F
 444++744E 38 78 78 78  defb 56, 120, 120, 120
 445++7452
 446++7452              ; block at pixel position (112,48):
 447++7452
 448++7452 FF FF C0 03  defb 255, 255, 192, 3, 191, 253, 161, 125
 448++7456 BF FD A1 7D
 449++745A BF DD AA FD  defb 191, 221, 170, 253, 191, 253, 200, 19
 449++745E BF FD C8 13
 450++7462 3F FC C0 03  defb 63, 252, 192, 3, 85, 122, 192, 43
 450++7466 55 7A C0 2B
 451++746A 40 2A C0 7B  defb 64, 42, 192, 123, 64, 2, 191, 253
 451++746E 40 02 BF FD
 452++7472 60 60 60 60  defb 96, 96, 96, 96
 453++7476
 454++7476              ; block at pixel position (128,48):
 455++7476
 456++7476 FF FF F0 2F  defb 255, 255, 240, 47, 239, 175, 149, 95
 456++747A EF AF 95 5F
 457++747E D5 41 95 5F  defb 213, 65, 149, 95, 239, 175, 240, 47
 457++7482 EF AF F0 2F
 458++7486 FA FF 80 01  defb 250, 255, 128, 1, 255, 255, 211, 43
 458++748A FF FF D3 2B
 459++748E D0 2B DF FB  defb 208, 43, 223, 251, 192, 3, 255, 255
 459++7492 C0 03 FF FF
 460++7496 50 50 50 50  defb 80, 80, 80, 80
 461++749A
 462++749A              ; block at pixel position (144,48):
 463++749A
 464++749A FF FF C0 03  defb 255, 255, 192, 3, 191, 253, 191, 253
 464++749E BF FD BF FD
 465++74A2 BF FD BF FD  defb 191, 253, 191, 253, 191, 253, 200, 19
 465++74A6 BF FD C8 13
 466++74AA 3F FC C0 03  defb 63, 252, 192, 3, 85, 122, 192, 59
 466++74AE 55 7A C0 3B
 467++74B2 40 3A C0 7B  defb 64, 58, 192, 123, 64, 2, 191, 253
 467++74B6 40 02 BF FD
 468++74BA 38 38 38 38  defb 56, 56, 56, 56
 469++74BE
 470++74BE              ; block at pixel position (160,48):
 471++74BE
 472++74BE FF FF FF 7F  defb 255, 255, 255, 127, 255, 255, 255, 127
 472++74C2 FF FF FF 7F
 473++74C6 FF FF FF 7F  defb 255, 255, 255, 127, 255, 255, 255, 127
 473++74CA FF FF FF 7F
 474++74CE AA AA FF 7F  defb 170, 170, 255, 127, 255, 255, 255, 127
 474++74D2 FF FF FF 7F
 475++74D6 FF FF FF 7F  defb 255, 255, 255, 127, 255, 255, 255, 127
 475++74DA FF FF FF 7F
 476++74DE 38 10 10 10  defb 56, 16, 16, 16
 477++74E2
 478++74E2              ; block at pixel position (176,48):
 479++74E2
 480++74E2 FF FF F0 2F  defb 255, 255, 240, 47, 239, 175, 149, 95
 480++74E6 EF AF 95 5F
 481++74EA D5 41 95 5F  defb 213, 65, 149, 95, 239, 175, 240, 47
 481++74EE EF AF F0 2F
 482++74F2 FA FF 80 01  defb 250, 255, 128, 1, 255, 255, 211, 43
 482++74F6 FF FF D3 2B
 483++74FA D0 2B DF FB  defb 208, 43, 223, 251, 192, 3, 255, 255
 483++74FE C0 03 FF FF
 484++7502 38 38 38 38  defb 56, 56, 56, 56
 485++7506
 486++7506              ; block at pixel position (192,48):
 487++7506
 488++7506 FF FF FF FF  defb 255, 255, 255, 255, 255, 231, 255, 233
 488++750A FF E7 FF E9
 489++750E FF C9 FE 03  defb 255, 201, 254, 3, 240, 95, 227, 159
 489++7512 F0 5F E3 9F
 490++7516 DF 3F BF 7F  defb 223, 63, 191, 127, 254, 255, 248, 255
 490++751A FE FF F8 FF
 491++751E E7 FF FF FF  defb 231, 255, 255, 255, 255, 255, 255, 255
 491++7522 FF FF FF FF
 492++7526 78 78 78 78  defb 120, 120, 120, 120
 493++752A
 494++752A              ; block at pixel position (208,48):
 495++752A
 496++752A FF FF FF F3  defb 255, 255, 255, 243, 255, 249, 255, 237
 496++752E FF F9 FF ED
 497++7532 FF D5 FF 8B  defb 255, 213, 255, 139, 255, 183, 254, 79
 497++7536 FF B7 FE 4F
 498++753A FC BF F9 FF  defb 252, 191, 249, 255, 243, 255, 231, 255
 498++753E F3 FF E7 FF
 499++7542 CF FF CF FF  defb 207, 255, 207, 255, 159, 255, 255, 255
 499++7546 9F FF FF FF
 500++754A 78 78 78 78  defb 120, 120, 120, 120
 501++754E
 502++754E              ; block at pixel position (224,48):
 503++754E
 504++754E FF FF FF FF  defb 255, 255, 255, 255, 215, 255, 235, 255
 504++7552 D7 FF EB FF
 505++7556 D5 FF EA FF  defb 213, 255, 234, 255, 244, 127, 249, 255
 505++755A F4 7F F9 FF
 506++755E FD 7F FF BF  defb 253, 127, 255, 191, 255, 223, 255, 239
 506++7562 FF DF FF EF
 507++7566 FF F3 FF F1  defb 255, 243, 255, 241, 255, 249, 255, 255
 507++756A FF F9 FF FF
 508++756E 78 78 78 78  defb 120, 120, 120, 120
 509++7572
 510++7572              ; block at pixel position (240,48):
 511++7572
 512++7572 00 00 00 00  defb 0, 0, 0, 0, 0, 0, 0, 0
 512++7576 00 00 00 00
 513++757A 00 00 00 00  defb 0, 0, 0, 0, 0, 0, 0, 0
 513++757E 00 00 00 00
 514++7582 00 00 00 00  defb 0, 0, 0, 0, 0, 0, 0, 0
 514++7586 00 00 00 00
 515++758A 00 00 00 00  defb 0, 0, 0, 0, 0, 0, 0, 0
 515++758E 00 00 00 00
 516++7592 78 78 78 78  defb 120, 120, 120, 120
 517++7596
 518++7596              ; block at pixel position (0,64):
 519++7596
 520++7596 FF FF FE FF  defb 255, 255, 254, 255, 246, 255, 246, 237
 520++759A F6 FF F6 ED
 521++759E DA 6D DA 49  defb 218, 109, 218, 73, 202, 73, 234, 51
 521++75A2 CA 49 EA 33
 522++75A6 E6 33 E6 23  defb 230, 51, 230, 35, 114, 19, 178, 23
 522++75AA 72 13 B2 17
 523++75AE 91 1D C9 09  defb 145, 29, 201, 9, 248, 143, 255, 255
 523++75B2 F8 8F FF FF
 524++75B6 60 60 60 60  defb 96, 96, 96, 96
 525++75BA
 526++75BA              ; block at pixel position (16,64):
 527++75BA
 528++75BA FF FF FF FF  defb 255, 255, 255, 255, 255, 255, 255, 223
 528++75BE FF FF FF DF
 529++75C2 EF FD FB FF  defb 239, 253, 251, 255, 255, 187, 107, 255
 529++75C6 FF BB 6B FF
 530++75CA FF 1D AD 8F  defb 255, 29, 173, 143, 219, 237, 251, 222
 530++75CE DB ED FB DE
 531++75D2 5C BB EF FF  defb 92, 187, 239, 255, 183, 85, 253, 191
 531++75D6 B7 55 FD BF
 532++75DA 78 78 78 78  defb 120, 120, 120, 120
 533++75DE
 534++75DE              ; block at pixel position (32,64):
 535++75DE
 536++75DE 20 04 20 04  defb 32, 4, 32, 4, 48, 12, 40, 20
 536++75E2 30 0C 28 14
 537++75E6 27 E4 20 14  defb 39, 228, 32, 20, 35, 204, 34, 84
 537++75EA 23 CC 22 54
 538++75EE 22 4C 23 D4  defb 34, 76, 35, 212, 32, 12, 34, 84
 538++75F2 20 0C 22 54
 539++75F6 20 0C 22 54  defb 32, 12, 34, 84, 48, 12, 24, 24
 539++75FA 30 0C 18 18
 540++75FE 38 38 38 38  defb 56, 56, 56, 56
 541++7602
 542++7602              ; block at pixel position (48,64):
 543++7602
 544++7602 00 00 7F FE  defb 0, 0, 127, 254, 64, 2, 111, 246
 544++7606 40 02 6F F6
 545++760A 6E 16 6E 16  defb 110, 22, 110, 22, 79, 242, 98, 255
 545++760E 4F F2 62 FF
 546++7612 62 46 43 C2  defb 98, 70, 67, 194, 98, 70, 98, 70
 546++7616 62 46 62 46
 547++761A 6E 76 40 02  defb 110, 118, 64, 2, 127, 254, 0, 0
 547++761E 7F FE 00 00
 548++7622 20 60 38 38  defb 32, 96, 56, 56
 549++7626
 550++7626              ; block at pixel position (64,64):
 551++7626
 552++7626 00 00 7F FE  defb 0, 0, 127, 254, 64, 2, 111, 246
 552++762A 40 02 6F F6
 553++762E 68 76 68 76  defb 104, 118, 104, 118, 79, 242, 255, 70
 553++7632 4F F2 FF 46
 554++7636 62 46 43 C2  defb 98, 70, 67, 194, 98, 70, 98, 70
 554++763A 62 46 62 46
 555++763E 6E 76 40 02  defb 110, 118, 64, 2, 127, 254, 0, 0
 555++7642 7F FE 00 00
 556++7646 10 10 38 38  defb 16, 16, 56, 56
 557++764A
 558++764A              ; block at pixel position (80,64):
 559++764A
 560++764A 04 48 00 05  defb 4, 72, 0, 5, 127, 242, 72, 21
 560++764E 7F F2 48 15
 561++7652 48 12 48 15  defb 72, 18, 72, 21, 72, 18, 72, 21
 561++7656 48 12 48 15
 562++765A 48 52 48 D5  defb 72, 82, 72, 213, 72, 18, 72, 21
 562++765E 48 12 48 15
 563++7662 48 12 7F F5  defb 72, 18, 127, 245, 0, 2, 1, 21
 563++7666 00 02 01 15
 564++766A 28 28 28 28  defb 40, 40, 40, 40
 565++766E
 566++766E              ; block at pixel position (96,64):
 567++766E
 568++766E C0 07 DF F7  defb 192, 7, 223, 247, 208, 55, 215, 151
 568++7672 D0 37 D7 97
 569++7676 F0 17 D7 97  defb 240, 23, 215, 151, 208, 23, 208, 87
 569++767A D0 17 D0 57
 570++767E D0 D7 F0 17  defb 208, 215, 240, 23, 215, 151, 208, 23
 570++7682 D7 97 D0 17
 571++7686 D7 97 D0 37  defb 215, 151, 208, 55, 223, 247, 192, 7
 571++768A DF F7 C0 07
 572++768E 28 28 28 28  defb 40, 40, 40, 40
 573++7692
 574++7692              ; block at pixel position (112,64):
 575++7692
 576++7692 FF FF FF F7  defb 255, 255, 255, 247, 251, 219, 173, 125
 576++7696 FB DB AD 7D
 577++769A FF FD 3F FD  defb 255, 253, 63, 253, 255, 249, 63, 249
 577++769E FF F9 3F F9
 578++76A2 D7 FD 3C B3  defb 215, 253, 60, 179, 139, 233, 9, 81
 578++76A6 8B E9 09 51
 579++76AA 79 07 7F 07  defb 121, 7, 127, 7, 242, 15, 255, 255
 579++76AE F2 0F FF FF
 580++76B2 38 38 38 38  defb 56, 56, 56, 56
 581++76B6
 582++76B6              ; block at pixel position (128,64):
 583++76B6
 584++76B6 FF FF 1F F9  defb 255, 255, 31, 249, 47, 247, 151, 253
 584++76BA 2F F7 97 FD
 585++76BE 3F F3 7F FD  defb 63, 243, 127, 253, 255, 253, 63, 255
 585++76C2 FF FD 3F FF
 586++76C6 7F FD FF F9  defb 127, 253, 255, 249, 95, 245, 63, 249
 586++76CA 5F F5 3F F9
 587++76CE 7F FD 5F FB  defb 127, 253, 95, 251, 23, 177, 255, 255
 587++76D2 17 B1 FF FF
 588++76D6 38 38 38 38  defb 56, 56, 56, 56
 589++76DA
 590++76DA              ; block at pixel position (144,64):
 591++76DA
 592++76DA FF FF FF FF  defb 255, 255, 255, 255, 255, 255, 255, 255
 592++76DE FF FF FF FF
 593++76E2 F0 0F E4 0F  defb 240, 15, 228, 15, 216, 11, 228, 11
 593++76E6 D8 0B E4 0B
 594++76EA D8 0B F0 0B  defb 216, 11, 240, 11, 223, 251, 240, 15
 594++76EE DF FB F0 0F
 595++76F2 D7 EB D0 2B  defb 215, 235, 208, 43, 240, 15, 255, 255
 595++76F6 F0 0F FF FF
 596++76FA 30 30 30 30  defb 48, 48, 48, 48
 597++76FE
 598++76FE              ; block at pixel position (160,64):
 599++76FE
 600++76FE 00 00 00 00  defb 0, 0, 0, 0, 0, 0, 0, 0
 600++7702 00 00 00 00
 601++7706 00 00 00 00  defb 0, 0, 0, 0, 0, 0, 0, 0
 601++770A 00 00 00 00
 602++770E 00 00 00 00  defb 0, 0, 0, 0, 0, 0, 0, 0
 602++7712 00 00 00 00
 603++7716 00 00 00 00  defb 0, 0, 0, 0, 0, 0, 0, 0
 603++771A 00 00 00 00
 604++771E 78 78 78 78  defb 120, 120, 120, 120
 605++7722
 606++7722              ; block at pixel position (176,64):
 607++7722
 608++7722 00 00 00 00  defb 0, 0, 0, 0, 0, 0, 0, 0
 608++7726 00 00 00 00
 609++772A 00 00 00 00  defb 0, 0, 0, 0, 0, 0, 0, 0
 609++772E 00 00 00 00
 610++7732 00 00 00 00  defb 0, 0, 0, 0, 0, 0, 0, 0
 610++7736 00 00 00 00
 611++773A 00 00 00 00  defb 0, 0, 0, 0, 0, 0, 0, 0
 611++773E 00 00 00 00
 612++7742 78 78 78 78  defb 120, 120, 120, 120
 613++7746
 614++7746              ; block at pixel position (192,64):
 615++7746
 616++7746 00 00 00 00  defb 0, 0, 0, 0, 0, 0, 0, 0
 616++774A 00 00 00 00
 617++774E 00 00 00 00  defb 0, 0, 0, 0, 0, 0, 0, 0
 617++7752 00 00 00 00
 618++7756 00 00 00 00  defb 0, 0, 0, 0, 0, 0, 0, 0
 618++775A 00 00 00 00
 619++775E 00 00 00 00  defb 0, 0, 0, 0, 0, 0, 0, 0
 619++7762 00 00 00 00
 620++7766 78 78 78 78  defb 120, 120, 120, 120
 621++776A
 622++776A              ; block at pixel position (208,64):
 623++776A
 624++776A 00 00 00 00  defb 0, 0, 0, 0, 0, 0, 0, 0
 624++776E 00 00 00 00
 625++7772 00 00 00 00  defb 0, 0, 0, 0, 0, 0, 0, 0
 625++7776 00 00 00 00
 626++777A 00 00 00 00  defb 0, 0, 0, 0, 0, 0, 0, 0
 626++777E 00 00 00 00
 627++7782 00 00 00 00  defb 0, 0, 0, 0, 0, 0, 0, 0
 627++7786 00 00 00 00
 628++778A 78 78 78 78  defb 120, 120, 120, 120
 629++778E
 630++778E              ; block at pixel position (224,64):
 631++778E
 632++778E 00 00 00 00  defb 0, 0, 0, 0, 0, 64, 0, 0
 632++7792 00 40 00 00
 633++7796 00 00 00 00  defb 0, 0, 0, 0, 0, 0, 0, 0
 633++779A 00 00 00 00
 634++779E 00 00 00 00  defb 0, 0, 0, 0, 0, 0, 0, 0
 634++77A2 00 00 00 00
 635++77A6 00 00 00 00  defb 0, 0, 0, 0, 0, 0, 0, 0
 635++77AA 00 00 00 00
 636++77AE 78 7E 78 78  defb 120, 126, 120, 120
 637++77B2
 638++77B2              ; block at pixel position (240,64):
 639++77B2
 640++77B2 00 00 00 00  defb 0, 0, 0, 0, 0, 0, 0, 0
 640++77B6 00 00 00 00
 641++77BA 00 00 00 00  defb 0, 0, 0, 0, 0, 0, 0, 0
 641++77BE 00 00 00 00
 642++77C2 00 00 00 00  defb 0, 0, 0, 0, 0, 0, 0, 0
 642++77C6 00 00 00 00
 643++77CA 00 00 00 00  defb 0, 0, 0, 0, 0, 0, 0, 0
 643++77CE 00 00 00 00
 644++77D2 78 78 78 78  defb 120, 120, 120, 120
 645++77D6
 646++77D6              ; block at pixel position (0,80):
 647++77D6
 648++77D6 FF FF FF FF  defb 255, 255, 255, 255, 223, 191, 255, 255
 648++77DA DF BF FF FF
 649++77DE FF FF FF FF  defb 255, 255, 255, 255, 247, 251, 255, 255
 649++77E2 F7 FB FF FF
 650++77E6 FF 7F FF FF  defb 255, 127, 255, 255, 255, 255, 191, 255
 650++77EA FF FF BF FF
 651++77EE FD DF FF FF  defb 253, 223, 255, 255, 255, 255, 255, 255
 651++77F2 FF FF FF FF
 652++77F6 38 38 38 38  defb 56, 56, 56, 56
 653++77FA
 654++77FA              ; block at pixel position (16,80):
 655++77FA
 656++77FA FF FF FF FF  defb 255, 255, 255, 255, 255, 255, 0, 0
 656++77FE FF FF 00 00
 657++7802 00 00 00 00  defb 0, 0, 0, 0, 0, 0, 0, 0
 657++7806 00 00 00 00
 658++780A FF FF 00 00  defb 255, 255, 0, 0, 0, 0, 255, 255
 658++780E 00 00 FF FF
 659++7812 DF FD 9F F9  defb 223, 253, 159, 249, 255, 255, 255, 255
 659++7816 FF FF FF FF
 660++781A 78 78 78 78  defb 120, 120, 120, 120
 661++781E
 662++781E              ; block at pixel position (32,80):
 663++781E
 664++781E FF FF FF FF  defb 255, 255, 255, 255, 255, 255, 64, 6
 664++7822 FF FF 40 06
 665++7826 40 06 7F 06  defb 64, 6, 127, 6, 63, 252, 0, 0
 665++782A 3F FC 00 00
 666++782E FF FF 00 00  defb 255, 255, 0, 0, 0, 0, 255, 255
 666++7832 00 00 FF FF
 667++7836 DF FD 9F F9  defb 223, 253, 159, 249, 255, 255, 255, 255
 667++783A FF FF FF FF
 668++783E 78 78 78 78  defb 120, 120, 120, 120
 669++7842
 670++7842              ; block at pixel position (48,80):
 671++7842
 672++7842 FF FF FF 0F  defb 255, 255, 255, 15, 255, 3, 254, 5
 672++7846 FF 03 FE 05
 673++784A FE 05 FF 0B  defb 254, 5, 255, 11, 252, 203, 248, 55
 673++784E FC CB F8 37
 674++7852 E0 0F F0 3F  defb 224, 15, 240, 63, 204, 207, 243, 63
 674++7856 CC CF F3 3F
 675++785A FC FF FB BF  defb 252, 255, 251, 191, 252, 127, 255, 255
 675++785E FC 7F FF FF
 676++7862 78 78 78 78  defb 120, 120, 120, 120
 677++7866
 678++7866              ; block at pixel position (64,80):
 679++7866
 680++7866 20 04 20 04  defb 32, 4, 32, 4, 48, 12, 40, 20
 680++786A 30 0C 28 14
 681++786E 27 E4 24 2C  defb 39, 228, 36, 44, 36, 52, 39, 236
 681++7872 24 34 27 EC
 682++7876 24 34 24 2C  defb 36, 52, 36, 44, 36, 52, 39, 236
 682++787A 24 34 27 EC
 683++787E 28 14 30 0C  defb 40, 20, 48, 12, 32, 4, 32, 4
 683++7882 20 04 20 04
 684++7886 38 38 38 38  defb 56, 56, 56, 56
 685++788A
 686++788A              ; block at pixel position (80,80):
 687++788A
 688++788A 00 00 00 00  defb 0, 0, 0, 0, 0, 0, 0, 0
 688++788E 00 00 00 00
 689++7892 FF FF 20 04  defb 255, 255, 32, 4, 110, 228, 106, 228
 689++7896 6E E4 6A E4
 690++789A 6E 04 2A 14  defb 110, 4, 42, 20, 46, 52, 106, 4
 690++789E 2E 34 6A 04
 691++78A2 6E 04 60 04  defb 110, 4, 96, 4, 63, 252, 0, 0
 691++78A6 3F FC 00 00
 692++78AA 78 78 78 78  defb 120, 120, 120, 120
 693++78AE
 694++78AE              ; block at pixel position (96,80):
 695++78AE
 696++78AE FF FF FF FF  defb 255, 255, 255, 255, 255, 255, 255, 191
 696++78B2 FF FF FF BF
 697++78B6 FF 1F FC CF  defb 255, 31, 252, 207, 250, 231, 245, 83
 697++78BA FA E7 F5 53
 698++78BE EE 97 EF 4F  defb 238, 151, 239, 79, 246, 31, 250, 191
 698++78C2 F6 1F FA BF
 699++78C6 FC 7F FE FF  defb 252, 127, 254, 255, 255, 255, 255, 255
 699++78CA FF FF FF FF
 700++78CE 38 38 38 38  defb 56, 56, 56, 56
 701++78D2
 702++78D2              ; block at pixel position (112,80):
 703++78D2
 704++78D2 FF FF FF FF  defb 255, 255, 255, 255, 255, 255, 128, 7
 704++78D6 FF FF 80 07
 705++78DA BD F3 AD 13  defb 189, 243, 173, 19, 189, 243, 129, 19
 705++78DE BD F3 81 13
 706++78E2 BD 13 BD F3  defb 189, 19, 189, 243, 128, 7, 255, 255
 706++78E6 80 07 FF FF
 707++78EA FF FF FF FF  defb 255, 255, 255, 255, 255, 255, 255, 255
 707++78EE FF FF FF FF
 708++78F2 38 38 38 38  defb 56, 56, 56, 56
 709++78F6
 710++78F6              ; block at pixel position (128,80):
 711++78F6
 712++78F6 FF FF FF FF  defb 255, 255, 255, 255, 255, 255, 255, 255
 712++78FA FF FF FF FF
 713++78FE F0 17 F7 D7  defb 240, 23, 247, 215, 247, 215, 245, 87
 713++7902 F7 D7 F5 57
 714++7906 F6 D7 F7 D7  defb 246, 215, 247, 215, 247, 215, 240, 23
 714++790A F7 D7 F0 17
 715++790E FF F7 F8 07  defb 255, 247, 248, 7, 255, 255, 255, 255
 715++7912 FF FF FF FF
 716++7916 38 38 38 38  defb 56, 56, 56, 56
 717++791A
 718++791A              ; block at pixel position (144,80):
 719++791A
 720++791A FF FF FF FF  defb 255, 255, 255, 255, 195, 255, 221, 255
 720++791E C3 FF DD FF
 721++7922 D1 FF D1 FF  defb 209, 255, 209, 255, 208, 127, 209, 189
 721++7926 D0 7F D1 BD
 722++792A E1 BB FF 67  defb 225, 187, 255, 103, 252, 195, 251, 207
 722++792E FC C3 FB CF
 723++7932 FC 2F FF F7  defb 252, 47, 255, 247, 255, 255, 255, 255
 723++7936 FF FF FF FF
 724++793A 30 30 30 30  defb 48, 48, 48, 48
 725++793E
 726++793E              ; block at pixel position (160,80):
 727++793E
 728++793E FF FF FF FF  defb 255, 255, 255, 255, 195, 255, 221, 255
 728++7942 C3 FF DD FF
 729++7946 D1 FF D1 FF  defb 209, 255, 209, 255, 208, 127, 209, 189
 729++794A D0 7F D1 BD
 730++794E E1 BB FF 67  defb 225, 187, 255, 103, 252, 195, 251, 207
 730++7952 FC C3 FB CF
 731++7956 FC 2F FF F7  defb 252, 47, 255, 247, 255, 255, 255, 255
 731++795A FF FF FF FF
 732++795E 38 38 38 38  defb 56, 56, 56, 56
 733++7962
 734++7962              ; block at pixel position (176,80):
 735++7962
 736++7962 FF FF FF FF  defb 255, 255, 255, 255, 195, 255, 221, 255
 736++7966 C3 FF DD FF
 737++796A D1 FF D1 FF  defb 209, 255, 209, 255, 208, 127, 209, 189
 737++796E D0 7F D1 BD
 738++7972 E1 BB FF 67  defb 225, 187, 255, 103, 252, 195, 251, 207
 738++7976 FC C3 FB CF
 739++797A FC 2F FF F7  defb 252, 47, 255, 247, 255, 255, 255, 255
 739++797E FF FF FF FF
 740++7982 50 50 50 50  defb 80, 80, 80, 80
 741++7986
 742++7986              ; block at pixel position (192,80):
 743++7986
 744++7986 FF FF FF FF  defb 255, 255, 255, 255, 195, 255, 221, 255
 744++798A C3 FF DD FF
 745++798E D1 FF D1 FF  defb 209, 255, 209, 255, 208, 127, 209, 189
 745++7992 D0 7F D1 BD
 746++7996 E1 BB FF 67  defb 225, 187, 255, 103, 252, 195, 251, 207
 746++799A FC C3 FB CF
 747++799E FC 2F FF F7  defb 252, 47, 255, 247, 255, 255, 255, 255
 747++79A2 FF FF FF FF
 748++79A6 28 28 28 28  defb 40, 40, 40, 40
 749++79AA
 750++79AA              ; block at pixel position (208,80):
 751++79AA
 752++79AA 00 00 00 00  defb 0, 0, 0, 0, 0, 0, 0, 0
 752++79AE 00 00 00 00
 753++79B2 00 00 00 00  defb 0, 0, 0, 0, 0, 0, 0, 0
 753++79B6 00 00 00 00
 754++79BA 00 00 00 00  defb 0, 0, 0, 0, 0, 0, 0, 0
 754++79BE 00 00 00 00
 755++79C2 00 00 00 00  defb 0, 0, 0, 0, 0, 0, 0, 0
 755++79C6 00 00 00 00
 756++79CA 78 78 78 78  defb 120, 120, 120, 120
 757++79CE
 758++79CE              ; block at pixel position (224,80):
 759++79CE
 760++79CE 00 00 00 00  defb 0, 0, 0, 0, 0, 0, 0, 0
 760++79D2 00 00 00 00
 761++79D6 00 00 00 00  defb 0, 0, 0, 0, 0, 0, 0, 0
 761++79DA 00 00 00 00
 762++79DE 00 00 00 00  defb 0, 0, 0, 0, 0, 0, 0, 0
 762++79E2 00 00 00 00
 763++79E6 00 00 00 00  defb 0, 0, 0, 0, 0, 0, 0, 0
 763++79EA 00 00 00 00
 764++79EE 78 78 78 78  defb 120, 120, 120, 120
 765++79F2
 766++79F2              ; block at pixel position (240,80):
 767++79F2
 768++79F2 00 00 00 00  defb 0, 0, 0, 0, 0, 0, 0, 0
 768++79F6 00 00 00 00
 769++79FA 00 00 00 00  defb 0, 0, 0, 0, 0, 0, 0, 0
 769++79FE 00 00 00 00
 770++7A02 00 00 00 00  defb 0, 0, 0, 0, 0, 0, 0, 0
 770++7A06 00 00 00 00
 771++7A0A 00 00 00 00  defb 0, 0, 0, 0, 0, 0, 0, 0
 771++7A0E 00 00 00 00
 772++7A12 78 78 78 78  defb 120, 120, 120, 120
 773++7A16
 774++7A16              ; block at pixel position (0,96):
 775++7A16
 776++7A16 FF FF FF FF  defb 255, 255, 255, 255, 255, 255, 255, 223
 776++7A1A FF FF FF DF
 777++7A1E EF 7D FA FF  defb 239, 125, 250, 255, 253, 139, 106, 127
 777++7A22 FD 8B 6A 7F
 778++7A26 E4 1D A0 0F  defb 228, 29, 160, 15, 216, 45, 248, 30
 778++7A2A D8 2D F8 1E
 779++7A2E 5C BB EF FF  defb 92, 187, 239, 255, 183, 85, 253, 191
 779++7A32 B7 55 FD BF
 780++7A36 60 60 60 60  defb 96, 96, 96, 96
 781++7A3A
 782++7A3A              ; block at pixel position (16,96):
 783++7A3A
 784++7A3A FF FF FF FF  defb 255, 255, 255, 255, 255, 255, 255, 223
 784++7A3E FF FF FF DF
 785++7A42 EF 7D FA FF  defb 239, 125, 250, 255, 253, 139, 106, 127
 785++7A46 FD 8B 6A 7F
 786++7A4A E4 1D A0 0F  defb 228, 29, 160, 15, 216, 45, 248, 30
 786++7A4E D8 2D F8 1E
 787++7A52 5C BB EF FF  defb 92, 187, 239, 255, 183, 85, 253, 191
 787++7A56 B7 55 FD BF
 788++7A5A 50 50 50 50  defb 80, 80, 80, 80
 789++7A5E
 790++7A5E              ; block at pixel position (32,96):
 791++7A5E
 792++7A5E FF FF FF FF  defb 255, 255, 255, 255, 255, 255, 64, 6
 792++7A62 FF FF 40 06
 793++7A66 40 06 7F 06  defb 64, 6, 127, 6, 63, 252, 0, 0
 793++7A6A 3F FC 00 00
 794++7A6E FF FF 00 00  defb 255, 255, 0, 0, 0, 0, 255, 255
 794++7A72 00 00 FF FF
 795++7A76 DF FD 9F F9  defb 223, 253, 159, 249, 255, 255, 255, 255
 795++7A7A FF FF FF FF
 796++7A7E 28 28 28 28  defb 40, 40, 40, 40
 797++7A82
 798++7A82              ; block at pixel position (48,96):
 799++7A82
 800++7A82 2D B4 80 01  defb 45, 180, 128, 1, 255, 255, 255, 255
 800++7A86 FF FF FF FF
 801++7A8A FF FF FF FF  defb 255, 255, 255, 255, 255, 255, 255, 255
 801++7A8E FF FF FF FF
 802++7A92 FF FF FF FF  defb 255, 255, 255, 255, 255, 255, 255, 255
 802++7A96 FF FF FF FF
 803++7A9A FF FF FF FF  defb 255, 255, 255, 255, 128, 1, 45, 180
 803++7A9E 80 01 2D B4
 804++7AA2 50 50 50 50  defb 80, 80, 80, 80
 805++7AA6
 806++7AA6              ; block at pixel position (64,96):
 807++7AA6
 808++7AA6 08 10 7F FE  defb 8, 16, 127, 254, 72, 18, 92, 58
 808++7AAA 48 12 5C 3A
 809++7AAE 40 02 54 2A  defb 64, 2, 84, 42, 64, 2, 255, 255
 809++7AB2 40 02 FF FF
 810++7AB6 FF FF 40 02  defb 255, 255, 64, 2, 84, 42, 64, 2
 810++7ABA 54 2A 40 02
 811++7ABE 5C 3A 48 12  defb 92, 58, 72, 18, 127, 254, 8, 16
 811++7AC2 7F FE 08 10
 812++7AC6 50 50 50 50  defb 80, 80, 80, 80
 813++7ACA
 814++7ACA              ; block at pixel position (80,96):
 815++7ACA
 816++7ACA 00 00 00 00  defb 0, 0, 0, 0, 0, 0, 0, 0
 816++7ACE 00 00 00 00
 817++7AD2 FF FF 2F FC  defb 255, 255, 47, 252, 111, 252, 111, 252
 817++7AD6 6F FC 6F FC
 818++7ADA 6F FC 2F FC  defb 111, 252, 47, 252, 32, 0, 111, 252
 818++7ADE 20 00 6F FC
 819++7AE2 6F FC 6F FC  defb 111, 252, 111, 252, 47, 252, 0, 0
 819++7AE6 2F FC 00 00
 820++7AEA 78 78 78 78  defb 120, 120, 120, 120
 821++7AEE
 822++7AEE              ; block at pixel position (96,96):
 823++7AEE
 824++7AEE BF FA 50 0D  defb 191, 250, 80, 13, 176, 106, 80, 13
 824++7AF2 B0 6A 50 0D
 825++7AF6 B8 1A 5F FD  defb 184, 26, 95, 253, 184, 26, 81, 141
 825++7AFA B8 1A 51 8D
 826++7AFE F3 CF F3 CF  defb 243, 207, 243, 207, 241, 143, 248, 31
 826++7B02 F1 8F F8 1F
 827++7B06 F4 2F FB DF  defb 244, 47, 251, 223, 252, 63, 252, 63
 827++7B0A FC 3F FC 3F
 828++7B0E 78 78 78 78  defb 120, 120, 120, 120
 829++7B12
 830++7B12              ; block at pixel position (112,96):
 831++7B12
 832++7B12 CF 73 CF 73  defb 207, 115, 207, 115, 206, 115, 206, 115
 832++7B16 CE 73 CE 73
 833++7B1A CF F3 CF F3  defb 207, 243, 207, 243, 207, 243, 207, 243
 833++7B1E CF F3 CF F3
 834++7B22 C7 E3 E0 07  defb 199, 227, 224, 7, 208, 11, 239, 247
 834++7B26 D0 0B EF F7
 835++7B2A F0 0F FF FF  defb 240, 15, 255, 255, 255, 255, 255, 255
 835++7B2E FF FF FF FF
 836++7B32 78 78 78 78  defb 120, 120, 120, 120
 837++7B36
 838++7B36              ; block at pixel position (128,96):
 839++7B36
 840++7B36 FF FF FF FF  defb 255, 255, 255, 255, 224, 31, 239, 215
 840++7B3A E0 1F EF D7
 841++7B3E E8 D7 EF D7  defb 232, 215, 239, 215, 233, 87, 235, 215
 841++7B42 E9 57 EB D7
 842++7B46 EE D7 EF D7  defb 238, 215, 239, 215, 224, 23, 255, 247
 842++7B4A E0 17 FF F7
 843++7B4E F8 07 FF FF  defb 248, 7, 255, 255, 255, 255, 255, 255
 843++7B52 FF FF FF FF
 844++7B56 38 38 38 38  defb 56, 56, 56, 56
 845++7B5A
 846++7B5A              ; block at pixel position (144,96):
 847++7B5A
 848++7B5A FF FF FF FF  defb 255, 255, 255, 255, 224, 31, 239, 215
 848++7B5E E0 1F EF D7
 849++7B62 E8 D7 EF D7  defb 232, 215, 239, 215, 233, 87, 235, 215
 849++7B66 E9 57 EB D7
 850++7B6A EE D7 EF D7  defb 238, 215, 239, 215, 224, 23, 255, 247
 850++7B6E E0 17 FF F7
 851++7B72 F8 07 FF FF  defb 248, 7, 255, 255, 255, 255, 255, 255
 851++7B76 FF FF FF FF
 852++7B7A 10 10 10 10  defb 16, 16, 16, 16
 853++7B7E
 854++7B7E              ; block at pixel position (160,96):
 855++7B7E
 856++7B7E FF FF FF FF  defb 255, 255, 255, 255, 224, 31, 239, 215
 856++7B82 E0 1F EF D7
 857++7B86 E8 D7 EF D7  defb 232, 215, 239, 215, 233, 87, 235, 215
 857++7B8A E9 57 EB D7
 858++7B8E EE D7 EF D7  defb 238, 215, 239, 215, 224, 23, 255, 247
 858++7B92 E0 17 FF F7
 859++7B96 F8 07 FF FF  defb 248, 7, 255, 255, 255, 255, 255, 255
 859++7B9A FF FF FF FF
 860++7B9E 28 28 28 28  defb 40, 40, 40, 40
 861++7BA2
 862++7BA2              ; block at pixel position (176,96):
 863++7BA2
 864++7BA2 FF FF 81 01  defb 255, 255, 129, 1, 57, 60, 72, 166
 864++7BA6 39 3C 48 A6
 865++7BAA 48 A2 48 A2  defb 72, 162, 72, 162, 73, 34, 73, 42
 865++7BAE 49 22 49 2A
 866++7BB2 49 2A 49 2A  defb 73, 42, 73, 42, 72, 162, 72, 162
 866++7BB6 48 A2 48 A2
 867++7BBA 48 A6 39 3C  defb 72, 166, 57, 60, 129, 1, 255, 255
 867++7BBE 81 01 FF FF
 868++7BC2 20 20 20 20  defb 32, 32, 32, 32
 869++7BC6
 870++7BC6              ; block at pixel position (192,96):
 871++7BC6
 872++7BC6 FF FF 7F FC  defb 255, 255, 127, 252, 127, 252, 63, 254
 872++7BCA 7F FC 3F FE
 873++7BCE 3F FE 3F FE  defb 63, 254, 63, 254, 127, 252, 127, 252
 873++7BD2 7F FC 7F FC
 874++7BD6 7F FC 7F FC  defb 127, 252, 127, 252, 63, 254, 63, 254
 874++7BDA 3F FE 3F FE
 875++7BDE 3F FE 7F FC  defb 63, 254, 127, 252, 127, 252, 255, 255
 875++7BE2 7F FC FF FF
 876++7BE6 20 20 20 20  defb 32, 32, 32, 32
 877++7BEA
 878++7BEA              ; block at pixel position (208,96):
 879++7BEA
 880++7BEA 00 00 00 00  defb 0, 0, 0, 0, 0, 0, 0, 0
 880++7BEE 00 00 00 00
 881++7BF2 00 00 00 00  defb 0, 0, 0, 0, 0, 0, 0, 0
 881++7BF6 00 00 00 00
 882++7BFA 00 00 00 00  defb 0, 0, 0, 0, 128, 0, 128, 0
 882++7BFE 80 00 80 00
 883++7C02 80 00 00 00  defb 128, 0, 0, 0, 0, 0, 0, 0
 883++7C06 00 00 00 00
 884++7C0A 78 78 7E 78  defb 120, 120, 126, 120
 885++7C0E
 886++7C0E              ; block at pixel position (224,96):
 887++7C0E
 888++7C0E 00 00 00 00  defb 0, 0, 0, 0, 0, 0, 0, 0
 888++7C12 00 00 00 00
 889++7C16 00 00 00 00  defb 0, 0, 0, 0, 0, 0, 0, 0
 889++7C1A 00 00 00 00
 890++7C1E 00 00 00 00  defb 0, 0, 0, 0, 0, 0, 0, 0
 890++7C22 00 00 00 00
 891++7C26 00 00 00 00  defb 0, 0, 0, 0, 0, 0, 0, 0
 891++7C2A 00 00 00 00
 892++7C2E 78 78 78 78  defb 120, 120, 120, 120
 893++7C32
 894++7C32              ; block at pixel position (240,96):
 895++7C32
 896++7C32 00 00 00 00  defb 0, 0, 0, 0, 0, 0, 0, 0
 896++7C36 00 00 00 00
 897++7C3A 00 00 00 00  defb 0, 0, 0, 0, 0, 0, 0, 0
 897++7C3E 00 00 00 00
 898++7C42 00 00 00 00  defb 0, 0, 0, 0, 0, 0, 0, 0
 898++7C46 00 00 00 00
 899++7C4A 00 00 00 00  defb 0, 0, 0, 0, 0, 0, 0, 0
 899++7C4E 00 00 00 00
 900++7C52 78 78 78 78  defb 120, 120, 120, 120
 901++7C56
 902++7C56              ; block at pixel position (0,112):
 903++7C56
 904++7C56 00 00 00 00  defb 0, 0, 0, 0, 0, 0, 0, 0
 904++7C5A 00 00 00 00
 905++7C5E 00 00 00 00  defb 0, 0, 0, 0, 0, 0, 0, 0
 905++7C62 00 00 00 00
 906++7C66 00 00 00 00  defb 0, 0, 0, 0, 0, 0, 0, 0
 906++7C6A 00 00 00 00
 907++7C6E 00 00 00 00  defb 0, 0, 0, 0, 0, 0, 0, 0
 907++7C72 00 00 00 00
 908++7C76 78 78 78 78  defb 120, 120, 120, 120
 909++7C7A
 910++7C7A              ; block at pixel position (16,112):
 911++7C7A
 912++7C7A FF FF FF FF  defb 255, 255, 255, 255, 252, 127, 240, 31
 912++7C7E FC 7F F0 1F
 913++7C82 E0 CF F0 1F  defb 224, 207, 240, 31, 236, 111, 227, 159
 913++7C86 EC 6F E3 9F
 914++7C8A E0 2F E0 5F  defb 224, 47, 224, 95, 224, 175, 224, 95
 914++7C8E E0 AF E0 5F
 915++7C92 E0 AF F0 1F  defb 224, 175, 240, 31, 252, 127, 255, 255
 915++7C96 FC 7F FF FF
 916++7C9A 50 50 50 50  defb 80, 80, 80, 80
 917++7C9E
 918++7C9E              ; block at pixel position (32,112):
 919++7C9E
 920++7C9E FF FF FF FF  defb 255, 255, 255, 255, 255, 255, 255, 255
 920++7CA2 FF FF FF FF
 921++7CA6 FF FF FF FF  defb 255, 255, 255, 255, 252, 127, 240, 31
 921++7CAA FC 7F F0 1F
 922++7CAE E0 CF F0 1F  defb 224, 207, 240, 31, 236, 111, 227, 159
 922++7CB2 EC 6F E3 9F
 923++7CB6 E0 2F F0 1F  defb 224, 47, 240, 31, 252, 127, 255, 255
 923++7CBA FC 7F FF FF
 924++7CBE 30 30 30 30  defb 48, 48, 48, 48
 925++7CC2
 926++7CC2              ; block at pixel position (48,112):
 927++7CC2
 928++7CC2 00 00 00 00  defb 0, 0, 0, 0, 0, 0, 0, 0
 928++7CC6 00 00 00 00
 929++7CCA 00 00 00 00  defb 0, 0, 0, 0, 0, 0, 0, 0
 929++7CCE 00 00 00 00
 930++7CD2 00 00 00 00  defb 0, 0, 0, 0, 0, 0, 0, 0
 930++7CD6 00 00 00 00
 931++7CDA 00 00 00 00  defb 0, 0, 0, 0, 0, 0, 0, 0
 931++7CDE 00 00 00 00
 932++7CE2 78 78 78 78  defb 120, 120, 120, 120
 933++7CE6
 934++7CE6              ; block at pixel position (64,112):
 935++7CE6
 936++7CE6 00 00 00 00  defb 0, 0, 0, 0, 0, 0, 0, 0
 936++7CEA 00 00 00 00
 937++7CEE 00 00 00 00  defb 0, 0, 0, 0, 0, 0, 0, 0
 937++7CF2 00 00 00 00
 938++7CF6 00 00 00 00  defb 0, 0, 0, 0, 0, 0, 0, 0
 938++7CFA 00 00 00 00
 939++7CFE 00 00 00 00  defb 0, 0, 0, 0, 0, 0, 0, 0
 939++7D02 00 00 00 00
 940++7D06 78 78 78 78  defb 120, 120, 120, 120
 941++7D0A
 942++7D0A              ; block at pixel position (80,112):
 943++7D0A
 944++7D0A 00 07 DF E7  defb 0, 7, 223, 231, 94, 247, 94, 247
 944++7D0E 5E F7 5E F7
 945++7D12 5E F7 5E F7  defb 94, 247, 94, 247, 222, 23, 95, 247
 945++7D16 DE 17 5F F7
 946++7D1A 5F F7 5F F7  defb 95, 247, 95, 247, 95, 247, 95, 247
 946++7D1E 5F F7 5F F7
 947++7D22 5F F7 5F F7  defb 95, 247, 95, 247, 95, 231, 0, 7
 947++7D26 5F E7 00 07
 948++7D2A 28 28 28 28  defb 40, 40, 40, 40
 949++7D2E
 950++7D2E              ; block at pixel position (96,112):
 951++7D2E
 952++7D2E FF FF FC 3F  defb 255, 255, 252, 63, 252, 63, 254, 127
 952++7D32 FC 3F FE 7F
 953++7D36 FD BF F2 4F  defb 253, 191, 242, 79, 227, 199, 193, 131
 953++7D3A E3 C7 C1 83
 954++7D3E C9 93 D9 93  defb 201, 147, 217, 147, 231, 255, 228, 27
 954++7D42 E7 FF E4 1B
 955++7D46 F8 11 F9 91  defb 248, 17, 249, 145, 255, 241, 249, 145
 955++7D4A FF F1 F9 91
 956++7D4E 70 70 70 70  defb 112, 112, 112, 112
 957++7D52
 958++7D52              ; block at pixel position (112,112):
 959++7D52
 960++7D52 FF FF FC 3F  defb 255, 255, 252, 63, 252, 63, 254, 191
 960++7D56 FC 3F FE BF
 961++7D5A FD 3F FA 4F  defb 253, 63, 250, 79, 243, 135, 251, 3
 961++7D5E F3 87 FB 03
 962++7D62 EB 3B EB 25  defb 235, 59, 235, 37, 255, 249, 248, 73
 962++7D66 FF F9 F8 49
 963++7D6A F8 49 F9 4B  defb 248, 73, 249, 75, 255, 207, 241, 63
 963++7D6E FF CF F1 3F
 964++7D72 70 70 70 70  defb 112, 112, 112, 112
 965++7D76
 966++7D76              ; block at pixel position (128,112):
 967++7D76
 968++7D76 FD 7F FA BF  defb 253, 127, 250, 191, 253, 95, 250, 191
 968++7D7A FD 5F FA BF
 969++7D7E FD 7F F3 CF  defb 253, 127, 243, 207, 224, 7, 192, 3
 969++7D82 E0 07 C0 03
 970++7D86 C8 13 D8 1B  defb 200, 19, 216, 27, 255, 255, 252, 63
 970++7D8A FF FF FC 3F
 971++7D8E F8 1F F9 9F  defb 248, 31, 249, 159, 255, 255, 249, 159
 971++7D92 FF FF F9 9F
 972++7D96 70 70 70 70  defb 112, 112, 112, 112
 973++7D9A
 974++7D9A              ; block at pixel position (144,112):
 975++7D9A
 976++7D9A FA BF FC 3F  defb 250, 191, 252, 63, 249, 95, 252, 63
 976++7D9E F9 5F FC 3F
 977++7DA2 F8 BF F2 4F  defb 248, 191, 242, 79, 225, 135, 192, 131
 977++7DA6 E1 87 C0 83
 978++7DAA C8 93 DC BB  defb 200, 147, 220, 187, 251, 223, 248, 31
 978++7DAE FB DF F8 1F
 979++7DB2 F8 1F F9 9F  defb 248, 31, 249, 159, 255, 255, 249, 159
 979++7DB6 FF FF F9 9F
 980++7DBA 70 70 70 70  defb 112, 112, 112, 112
 981++7DBE
 982++7DBE              ; block at pixel position (160,112):
 983++7DBE
 984++7DBE 00 00 00 00  defb 0, 0, 0, 0, 0, 0, 0, 0
 984++7DC2 00 00 00 00
 985++7DC6 00 00 00 00  defb 0, 0, 0, 0, 0, 0, 0, 0
 985++7DCA 00 00 00 00
 986++7DCE 00 00 00 00  defb 0, 0, 0, 0, 0, 0, 0, 0
 986++7DD2 00 00 00 00
 987++7DD6 00 00 00 00  defb 0, 0, 0, 0, 0, 0, 0, 0
 987++7DDA 00 00 00 00
 988++7DDE 78 78 78 78  defb 120, 120, 120, 120
 989++7DE2
 990++7DE2              ; block at pixel position (176,112):
 991++7DE2
 992++7DE2 FF FF 81 01  defb 255, 255, 129, 1, 57, 60, 72, 166
 992++7DE6 39 3C 48 A6
 993++7DEA 48 A2 48 A2  defb 72, 162, 72, 162, 73, 34, 73, 42
 993++7DEE 49 22 49 2A
 994++7DF2 49 2A 49 2A  defb 73, 42, 73, 42, 72, 162, 72, 162
 994++7DF6 48 A2 48 A2
 995++7DFA 48 A6 39 3C  defb 72, 166, 57, 60, 129, 1, 255, 255
 995++7DFE 81 01 FF FF
 996++7E02 78 78 78 78  defb 120, 120, 120, 120
 997++7E06
 998++7E06              ; block at pixel position (192,112):
 999++7E06
1000++7E06 FF FF 7F FC  defb 255, 255, 127, 252, 127, 252, 63, 254
1000++7E0A 7F FC 3F FE
1001++7E0E 3F FE 3F FE  defb 63, 254, 63, 254, 127, 252, 127, 252
1001++7E12 7F FC 7F FC
1002++7E16 7F FC 7F FC  defb 127, 252, 127, 252, 63, 254, 63, 254
1002++7E1A 3F FE 3F FE
1003++7E1E 3F FE 7F FC  defb 63, 254, 127, 252, 127, 252, 255, 255
1003++7E22 7F FC FF FF
1004++7E26 78 78 78 78  defb 120, 120, 120, 120
1005++7E2A
1006++7E2A              ; block at pixel position (208,112):
1007++7E2A
1008++7E2A 00 00 00 00  defb 0, 0, 0, 0, 0, 0, 0, 0
1008++7E2E 00 00 00 00
1009++7E32 00 00 00 00  defb 0, 0, 0, 0, 0, 0, 0, 0
1009++7E36 00 00 00 00
1010++7E3A 00 00 00 00  defb 0, 0, 0, 0, 0, 0, 0, 0
1010++7E3E 00 00 00 00
1011++7E42 00 00 00 00  defb 0, 0, 0, 0, 0, 0, 0, 0
1011++7E46 00 00 00 00
1012++7E4A 78 78 78 78  defb 120, 120, 120, 120
1013++7E4E
1014++7E4E              ; block at pixel position (224,112):
1015++7E4E
1016++7E4E 00 00 00 00  defb 0, 0, 0, 0, 0, 0, 0, 0
1016++7E52 00 00 00 00
1017++7E56 00 00 00 00  defb 0, 0, 0, 0, 0, 0, 0, 0
1017++7E5A 00 00 00 00
1018++7E5E 00 00 00 00  defb 0, 0, 0, 0, 0, 0, 0, 0
1018++7E62 00 00 00 00
1019++7E66 00 00 00 00  defb 0, 0, 0, 0, 0, 0, 0, 0
1019++7E6A 00 00 00 00
1020++7E6E 78 78 78 78  defb 120, 120, 120, 120
1021++7E72
1022++7E72              ; block at pixel position (240,112):
1023++7E72
1024++7E72 00 00 00 00  defb 0, 0, 0, 0, 0, 0, 0, 0
1024++7E76 00 00 00 00
1025++7E7A 00 00 00 00  defb 0, 0, 0, 0, 0, 0, 0, 0
1025++7E7E 00 00 00 00
1026++7E82 00 00 00 00  defb 0, 0, 0, 0, 0, 0, 0, 0
1026++7E86 00 00 00 00
1027++7E8A 00 00 00 00  defb 0, 0, 0, 0, 0, 0, 0, 0
1027++7E8E 00 00 00 00
1028++7E92 78 78 78 78  defb 120, 120, 120, 120
1029++7E96
1030++7E96              ; block at pixel position (0,128):
1031++7E96
1032++7E96 FF FF FC 3F  defb 255, 255, 252, 63, 251, 223, 251, 95
1032++7E9A FB DF FB 5F
1033++7E9E FA DF E3 C7  defb 250, 223, 227, 199, 224, 7, 216, 27
1033++7EA2 E0 07 D8 1B
1034++7EA6 CE 73 CC 33  defb 206, 115, 204, 51, 243, 207, 242, 79
1034++7EAA F3 CF F2 4F
1035++7EAE FC 3F F9 9F  defb 252, 63, 249, 159, 255, 255, 241, 143
1035++7EB2 FF FF F1 8F
1036++7EB6 70 70 70 70  defb 112, 112, 112, 112
1037++7EBA
1038++7EBA              ; block at pixel position (16,128):
1039++7EBA
1040++7EBA FF FF F8 3F  defb 255, 255, 248, 63, 254, 159, 253, 159
1040++7EBE FE 9F FD 9F
1041++7EC2 FF 9F F7 8F  defb 255, 159, 247, 143, 240, 15, 248, 23
1041++7EC6 F0 0F F8 17
1042++7ECA FC E7 E4 67  defb 252, 231, 228, 103, 231, 159, 252, 159
1042++7ECE E7 9F FC 9F
1043++7ED2 F8 7F F9 1F  defb 248, 127, 249, 31, 255, 255, 241, 31
1043++7ED6 FF FF F1 1F
1044++7EDA 70 70 70 70  defb 112, 112, 112, 112
1045++7EDE
1046++7EDE              ; block at pixel position (32,128):
1047++7EDE
1048++7EDE FF FF E0 FF  defb 255, 255, 224, 255, 252, 127, 244, 127
1048++7EE2 FC 7F F4 7F
1049++7EE6 EC 7F FC 5F  defb 236, 127, 252, 95, 227, 143, 228, 143
1049++7EEA E3 8F E4 8F
1050++7EEE FC 8F E4 9F  defb 252, 143, 228, 159, 249, 255, 230, 127
1050++7EF2 F9 FF E6 7F
1051++7EF6 E4 FF F9 7F  defb 228, 255, 249, 127, 255, 255, 226, 127
1051++7EFA FF FF E2 7F
1052++7EFE 70 70 70 70  defb 112, 112, 112, 112
1053++7F02
1054++7F02              ; block at pixel position (48,128):
1055++7F02
1056++7F02 FF FF FC 3F  defb 255, 255, 252, 63, 248, 31, 254, 31
1056++7F06 F8 1F FE 1F
1057++7F0A FF FF F4 0F  defb 255, 255, 244, 15, 229, 235, 229, 11
1057++7F0E E5 EB E5 0B
1058++7F12 F4 EB CE 17  defb 244, 235, 206, 23, 207, 255, 252, 15
1058++7F16 CF FF FC 0F
1059++7F1A FC 0F FC 4F  defb 252, 15, 252, 79, 255, 255, 248, 143
1059++7F1E FF FF F8 8F
1060++7F22 70 70 70 70  defb 112, 112, 112, 112
1061++7F26
1062++7F26              ; block at pixel position (64,128):
1063++7F26
1064++7F26 FF FF FC 3F  defb 255, 255, 252, 63, 248, 31, 248, 31
1064++7F2A F8 1F F8 1F
1065++7F2E FF FF E8 17  defb 255, 255, 232, 23, 235, 215, 218, 91
1065++7F32 EB D7 DA 5B
1066++7F36 C9 93 CC 33  defb 201, 147, 204, 51, 255, 255, 236, 55
1066++7F3A FF FF EC 37
1067++7F3E F8 1F F9 9F  defb 248, 31, 249, 159, 255, 255, 249, 159
1067++7F42 FF FF F9 9F
1068++7F46 70 70 70 70  defb 112, 112, 112, 112
1069++7F4A
1070++7F4A              ; block at pixel position (80,128):
1071++7F4A
1072++7F4A FF FF FC 3F  defb 255, 255, 252, 63, 248, 31, 248, 127
1072++7F4E F8 1F F8 7F
1073++7F52 FF FF F0 2F  defb 255, 255, 240, 47, 215, 167, 208, 167
1073++7F56 D7 A7 D0 A7
1074++7F5A D7 2F E8 73  defb 215, 47, 232, 115, 255, 243, 240, 63
1074++7F5E FF F3 F0 3F
1075++7F62 F0 3F F2 3F  defb 240, 63, 242, 63, 255, 255, 241, 31
1075++7F66 FF FF F1 1F
1076++7F6A 70 70 70 70  defb 112, 112, 112, 112
1077++7F6E
1078++7F6E              ; block at pixel position (96,128):
1079++7F6E
1080++7F6E FF FF FF 07  defb 255, 255, 255, 7, 254, 63, 254, 47
1080++7F72 FE 3F FE 2F
1081++7F76 FE 37 FA 3F  defb 254, 55, 250, 63, 241, 199, 241, 39
1081++7F7A F1 C7 F1 27
1082++7F7E F1 3F F9 27  defb 241, 63, 249, 39, 255, 159, 254, 103
1082++7F82 FF 9F FE 67
1083++7F86 FF 27 FE 9F  defb 255, 39, 254, 159, 255, 255, 254, 71
1083++7F8A FF FF FE 47
1084++7F8E 70 70 70 70  defb 112, 112, 112, 112
1085++7F92
1086++7F92              ; block at pixel position (112,128):
1087++7F92
1088++7F92 FF FF FC 1F  defb 255, 255, 252, 31, 249, 127, 249, 191
1088++7F96 F9 7F F9 BF
1089++7F9A F9 FF F1 EF  defb 249, 255, 241, 239, 240, 15, 232, 31
1089++7F9E F0 0F E8 1F
1090++7FA2 E7 3F E6 27  defb 231, 63, 230, 39, 249, 231, 249, 63
1090++7FA6 F9 E7 F9 3F
1091++7FAA FE 1F F8 9F  defb 254, 31, 248, 159, 255, 255, 248, 143
1091++7FAE FF FF F8 8F
1092++7FB2 70 70 70 70  defb 112, 112, 112, 112
1093++7FB6
1094++7FB6              ; block at pixel position (128,128):
1095++7FB6
1096++7FB6 00 00 00 00  defb 0, 0, 0, 0, 0, 0, 0, 0
1096++7FBA 00 00 00 00
1097++7FBE 00 00 00 00  defb 0, 0, 0, 0, 0, 0, 0, 0
1097++7FC2 00 00 00 00
1098++7FC6 00 00 00 00  defb 0, 0, 0, 0, 0, 0, 0, 0
1098++7FCA 00 00 00 00
1099++7FCE 00 00 00 00  defb 0, 0, 0, 0, 0, 0, 0, 0
1099++7FD2 00 00 00 00
1100++7FD6 78 78 78 78  defb 120, 120, 120, 120
1101++7FDA
1102++7FDA              ; block at pixel position (144,128):
1103++7FDA
1104++7FDA 00 00 00 00  defb 0, 0, 0, 0, 0, 0, 0, 0
1104++7FDE 00 00 00 00
1105++7FE2 00 00 00 00  defb 0, 0, 0, 0, 0, 0, 0, 0
1105++7FE6 00 00 00 00
1106++7FEA 00 00 00 00  defb 0, 0, 0, 0, 0, 0, 0, 0
1106++7FEE 00 00 00 00
1107++7FF2 00 00 00 00  defb 0, 0, 0, 0, 0, 0, 0, 0
1107++7FF6 00 00 00 00
1108++7FFA 78 78 78 78  defb 120, 120, 120, 120
1109++7FFE
1110++7FFE              ; block at pixel position (160,128):
1111++7FFE
1112++7FFE 00 00 00 00  defb 0, 0, 0, 0, 0, 0, 0, 0
1112++8002 00 00 00 00
1113++8006 00 00 00 00  defb 0, 0, 0, 0, 0, 0, 0, 0
1113++800A 00 00 00 00
1114++800E 00 00 00 00  defb 0, 0, 0, 0, 0, 0, 0, 0
1114++8012 00 00 00 00
1115++8016 00 00 00 00  defb 0, 0, 0, 0, 0, 0, 0, 0
1115++801A 00 00 00 00
1116++801E 78 78 78 78  defb 120, 120, 120, 120
1117++8022
1118++8022              ; block at pixel position (176,128):
1119++8022
1120++8022 FF FF 81 01  defb 255, 255, 129, 1, 57, 60, 72, 166
1120++8026 39 3C 48 A6
1121++802A 48 A2 48 A2  defb 72, 162, 72, 162, 73, 34, 73, 42
1121++802E 49 22 49 2A
1122++8032 49 2A 49 2A  defb 73, 42, 73, 42, 72, 162, 72, 162
1122++8036 48 A2 48 A2
1123++803A 48 A6 39 3C  defb 72, 166, 57, 60, 129, 1, 255, 255
1123++803E 81 01 FF FF
1124++8042 28 28 28 28  defb 40, 40, 40, 40
1125++8046
1126++8046              ; block at pixel position (192,128):
1127++8046
1128++8046 FF FF 7F FC  defb 255, 255, 127, 252, 127, 252, 63, 254
1128++804A 7F FC 3F FE
1129++804E 3F FE 3F FE  defb 63, 254, 63, 254, 127, 252, 127, 252
1129++8052 7F FC 7F FC
1130++8056 7F FC 7F FC  defb 127, 252, 127, 252, 63, 254, 63, 254
1130++805A 3F FE 3F FE
1131++805E 3F FE 7F FC  defb 63, 254, 127, 252, 127, 252, 255, 255
1131++8062 7F FC FF FF
1132++8066 28 28 28 28  defb 40, 40, 40, 40
1133++806A
1134++806A              ; block at pixel position (208,128):
1135++806A
1136++806A 00 00 00 00  defb 0, 0, 0, 0, 0, 0, 0, 0
1136++806E 00 00 00 00
1137++8072 00 00 00 00  defb 0, 0, 0, 0, 0, 0, 0, 0
1137++8076 00 00 00 00
1138++807A 00 00 00 00  defb 0, 0, 0, 0, 0, 0, 0, 0
1138++807E 00 00 00 00
1139++8082 00 00 00 00  defb 0, 0, 0, 0, 0, 0, 0, 0
1139++8086 00 00 00 00
1140++808A 78 78 78 78  defb 120, 120, 120, 120
1141++808E
1142++808E              ; block at pixel position (224,128):
1143++808E
1144++808E 00 00 00 00  defb 0, 0, 0, 0, 0, 0, 0, 0
1144++8092 00 00 00 00
1145++8096 00 00 00 00  defb 0, 0, 0, 0, 0, 0, 0, 0
1145++809A 00 00 00 00
1146++809E 00 00 00 00  defb 0, 0, 0, 0, 0, 0, 0, 0
1146++80A2 00 00 00 00
1147++80A6 00 00 00 00  defb 0, 0, 0, 0, 0, 0, 0, 0
1147++80AA 00 00 00 00
1148++80AE 78 78 78 78  defb 120, 120, 120, 120
1149++80B2
1150++80B2              ; block at pixel position (240,128):
1151++80B2
1152++80B2 00 00 00 00  defb 0, 0, 0, 0, 0, 0, 0, 0
1152++80B6 00 00 00 00
1153++80BA 00 00 00 00  defb 0, 0, 0, 0, 0, 0, 0, 0
1153++80BE 00 00 00 00
1154++80C2 00 00 00 00  defb 0, 0, 0, 0, 0, 0, 0, 0
1154++80C6 00 00 00 00
1155++80CA 00 00 00 00  defb 0, 0, 0, 0, 0, 0, 0, 0
1155++80CE 00 00 00 00
1156++80D2 78 78 78 78  defb 120, 120, 120, 120
1157++80D6
1158++80D6              ; block at pixel position (0,144):
1159++80D6
1160++80D6 FC 7F F8 3F  defb 252, 127, 248, 63, 248, 63, 251, 191
1160++80DA F8 3F FB BF
1161++80DE C4 47 C3 87  defb 196, 71, 195, 135, 162, 143, 146, 183
1161++80E2 A2 8F 92 B7
1162++80E6 CC 67 EB CF  defb 204, 103, 235, 207, 248, 95, 248, 127
1162++80EA F8 5F F8 7F
1163++80EE FF FF F3 9F  defb 255, 255, 243, 159, 243, 255, 255, 255
1163++80F2 F3 FF FF FF
1164++80F6 70 70 70 70  defb 112, 112, 112, 112
1165++80FA
1166++80FA              ; block at pixel position (16,144):
1167++80FA
1168++80FA FC 7F F8 3F  defb 252, 127, 248, 63, 248, 63, 255, 63
1168++80FE F8 3F FF 3F
1169++8102 F4 5F E7 8F  defb 244, 95, 231, 143, 252, 135, 228, 191
1169++8106 FC 87 E4 BF
1170++810A 8C E7 9B 47  defb 140, 231, 155, 71, 252, 79, 251, 207
1170++810E FC 4F FB CF
1171++8112 F3 FF FF 3F  defb 243, 255, 255, 63, 255, 127, 255, 255
1171++8116 FF 7F FF FF
1172++811A 70 70 70 70  defb 112, 112, 112, 112
1173++811E
1174++811E              ; block at pixel position (32,144):
1175++811E
1176++811E FC 7F F8 3F  defb 252, 127, 248, 63, 248, 63, 254, 63
1176++8122 F8 3F FE 3F
1177++8126 F8 FF FF FF  defb 248, 255, 255, 255, 253, 63, 254, 31
1177++812A FD 3F FE 1F
1178++812E FB DF F9 3F  defb 251, 223, 249, 63, 255, 63, 252, 127
1178++8132 FF 3F FC 7F
1179++8136 FC FF FF 3F  defb 252, 255, 255, 63, 255, 127, 255, 255
1179++813A FF 7F FF FF
1180++813E 70 70 70 70  defb 112, 112, 112, 112
1181++8142
1182++8142              ; block at pixel position (48,144):
1183++8142
1184++8142 FC 7F F8 3F  defb 252, 127, 248, 63, 254, 63, 252, 63
1184++8146 FE 3F FC 3F
1185++814A F2 5F E1 CF  defb 242, 95, 225, 207, 241, 47, 234, 47
1185++814E F1 2F EA 2F
1186++8152 E6 6F C7 BF  defb 230, 111, 199, 191, 204, 127, 252, 223
1186++8156 CC 7F FC DF
1187++815A FF 9F FC FF  defb 255, 159, 252, 255, 249, 255, 249, 255
1187++815E F9 FF F9 FF
1188++8162 70 70 70 70  defb 112, 112, 112, 112
1189++8166
1190++8166              ; block at pixel position (64,144):
1191++8166
1192++8166 FE 3F FC 1F  defb 254, 63, 252, 31, 252, 31, 252, 31
1192++816A FC 1F FC 1F
1193++816E E2 23 E1 C3  defb 226, 35, 225, 195, 210, 37, 204, 25
1193++8172 D2 25 CC 19
1194++8176 E6 33 FD DF  defb 230, 51, 253, 223, 254, 63, 251, 239
1194++817A FE 3F FB EF
1195++817E F9 CF FF CF  defb 249, 207, 255, 207, 255, 255, 255, 255
1195++8182 FF FF FF FF
1196++8186 70 70 70 70  defb 112, 112, 112, 112
1197++818A
1198++818A              ; block at pixel position (80,144):
1199++818A
1200++818A FE 3F FC 1F  defb 254, 63, 252, 31, 252, 127, 252, 63
1200++818E FC 7F FC 3F
1201++8192 FA 4F F3 87  defb 250, 79, 243, 135, 244, 143, 244, 151
1201++8196 F4 8F F4 97
1202++819A F6 67 FD E3  defb 246, 103, 253, 227, 254, 51, 251, 255
1202++819E FE 33 FB FF
1203++81A2 F9 FF FF 3F  defb 249, 255, 255, 63, 255, 159, 255, 159
1203++81A6 FF 9F FF 9F
1204++81AA 70 70 70 70  defb 112, 112, 112, 112
1205++81AE
1206++81AE              ; block at pixel position (96,144):
1207++81AE
1208++81AE FC 7F F8 3F  defb 252, 127, 248, 63, 248, 63, 248, 255
1208++81B2 F8 3F F8 FF
1209++81B6 FE 3F FF FF  defb 254, 63, 255, 255, 249, 191, 240, 255
1209++81BA F9 BF F0 FF
1210++81BE F7 BF F9 3F  defb 247, 191, 249, 63, 249, 255, 252, 127
1210++81C2 F9 FF FC 7F
1211++81C6 FE 7F F9 FF  defb 254, 127, 249, 255, 252, 255, 255, 255
1211++81CA FC FF FF FF
1212++81CE 70 70 70 70  defb 112, 112, 112, 112
1213++81D2
1214++81D2              ; block at pixel position (112,144):
1215++81D2
1216++81D2 FC 7F F8 3F  defb 252, 127, 248, 63, 248, 63, 249, 255
1216++81D6 F8 3F F9 FF
1217++81DA F6 5F E1 CF  defb 246, 95, 225, 207, 194, 127, 250, 79
1217++81DE C2 7F FA 4F
1218++81E2 CE 63 C5 B3  defb 206, 99, 197, 179, 228, 127, 231, 191
1218++81E6 E4 7F E7 BF
1219++81EA FF 9F F9 FF  defb 255, 159, 249, 255, 252, 255, 255, 255
1219++81EE FC FF FF FF
1220++81F2 70 70 70 70  defb 112, 112, 112, 112
1221++81F6
1222++81F6              ; block at pixel position (128,144):
1223++81F6
1224++81F6 00 00 00 00  defb 0, 0, 0, 0, 0, 0, 0, 0
1224++81FA 00 00 00 00
1225++81FE 00 00 00 00  defb 0, 0, 0, 0, 0, 0, 0, 0
1225++8202 00 00 00 00
1226++8206 00 00 00 00  defb 0, 0, 0, 0, 0, 0, 0, 0
1226++820A 00 00 00 00
1227++820E 00 00 00 00  defb 0, 0, 0, 0, 0, 0, 0, 0
1227++8212 00 00 00 00
1228++8216 78 78 78 78  defb 120, 120, 120, 120
1229++821A
1230++821A              ; block at pixel position (144,144):
1231++821A
1232++821A 00 00 00 00  defb 0, 0, 0, 0, 0, 0, 0, 0
1232++821E 00 00 00 00
1233++8222 00 00 00 00  defb 0, 0, 0, 0, 0, 0, 0, 0
1233++8226 00 00 00 00
1234++822A 00 00 00 00  defb 0, 0, 0, 0, 0, 0, 0, 0
1234++822E 00 00 00 00
1235++8232 00 00 00 00  defb 0, 0, 0, 0, 0, 0, 0, 0
1235++8236 00 00 00 00
1236++823A 78 78 78 78  defb 120, 120, 120, 120
1237++823E
1238++823E              ; block at pixel position (160,144):
1239++823E
1240++823E 00 00 00 00  defb 0, 0, 0, 0, 0, 0, 0, 0
1240++8242 00 00 00 00
1241++8246 00 00 00 00  defb 0, 0, 0, 0, 0, 0, 0, 0
1241++824A 00 00 00 00
1242++824E 00 00 00 00  defb 0, 0, 0, 0, 0, 0, 0, 0
1242++8252 00 00 00 00
1243++8256 00 00 00 00  defb 0, 0, 0, 0, 0, 0, 0, 0
1243++825A 00 00 00 00
1244++825E 78 78 78 78  defb 120, 120, 120, 120
1245++8262
1246++8262              ; block at pixel position (176,144):
1247++8262
1248++8262 00 00 00 00  defb 0, 0, 0, 0, 0, 0, 0, 0
1248++8266 00 00 00 00
1249++826A 00 00 00 00  defb 0, 0, 0, 0, 0, 0, 0, 0
1249++826E 00 00 00 00
1250++8272 00 00 00 00  defb 0, 0, 0, 0, 0, 0, 0, 0
1250++8276 00 00 00 00
1251++827A 00 00 00 00  defb 0, 0, 0, 0, 0, 0, 0, 0
1251++827E 00 00 00 00
1252++8282 78 78 78 78  defb 120, 120, 120, 120
1253++8286
1254++8286              ; block at pixel position (192,144):
1255++8286
1256++8286 00 00 00 00  defb 0, 0, 0, 0, 0, 0, 0, 0
1256++828A 00 00 00 00
1257++828E 00 00 00 00  defb 0, 0, 0, 0, 0, 0, 0, 0
1257++8292 00 00 00 00
1258++8296 00 00 00 00  defb 0, 0, 0, 0, 0, 0, 0, 0
1258++829A 00 00 00 00
1259++829E 00 00 00 00  defb 0, 0, 0, 0, 0, 0, 0, 0
1259++82A2 00 00 00 00
1260++82A6 78 78 78 78  defb 120, 120, 120, 120
1261++82AA
1262++82AA              ; block at pixel position (208,144):
1263++82AA
1264++82AA 00 00 00 00  defb 0, 0, 0, 0, 0, 0, 0, 0
1264++82AE 00 00 00 00
1265++82B2 00 00 00 00  defb 0, 0, 0, 0, 0, 0, 0, 0
1265++82B6 00 00 00 00
1266++82BA 00 00 00 00  defb 0, 0, 0, 0, 0, 0, 0, 0
1266++82BE 00 00 00 00
1267++82C2 00 00 00 00  defb 0, 0, 0, 0, 0, 0, 0, 0
1267++82C6 00 00 00 00
1268++82CA 78 78 78 78  defb 120, 120, 120, 120
1269++82CE
1270++82CE              ; block at pixel position (224,144):
1271++82CE
1272++82CE 00 00 00 00  defb 0, 0, 0, 0, 0, 0, 0, 0
1272++82D2 00 00 00 00
1273++82D6 00 00 00 00  defb 0, 0, 0, 0, 0, 0, 0, 0
1273++82DA 00 00 00 00
1274++82DE 00 00 00 00  defb 0, 0, 0, 0, 0, 0, 0, 0
1274++82E2 00 00 00 00
1275++82E6 00 00 00 00  defb 0, 0, 0, 0, 0, 0, 0, 0
1275++82EA 00 00 00 00
1276++82EE 78 78 78 78  defb 120, 120, 120, 120
1277++82F2
1278++82F2              ; block at pixel position (240,144):
1279++82F2
1280++82F2 00 00 00 00  defb 0, 0, 0, 0, 0, 0, 0, 0
1280++82F6 00 00 00 00
1281++82FA 00 00 00 00  defb 0, 0, 0, 0, 0, 0, 0, 0
1281++82FE 00 00 00 00
1282++8302 00 00 00 00  defb 0, 0, 0, 0, 0, 0, 0, 0
1282++8306 00 00 00 00
1283++830A 00 00 00 00  defb 0, 0, 0, 0, 0, 0, 0, 0
1283++830E 00 00 00 00
1284++8312 78 78 78 78  defb 120, 120, 120, 120
1285++8316
1286++8316              ; block at pixel position (0,160):
1287++8316
1288++8316 FF FF FD 7F  defb 255, 255, 253, 127, 250, 191, 253, 95
1288++831A FA BF FD 5F
1289++831E FA 3F C4 23  defb 250, 63, 196, 35, 194, 67, 163, 197
1289++8322 C2 43 A3 C5
1290++8326 9A 59 9C 39  defb 154, 89, 156, 57, 203, 211, 204, 51
1290++832A CB D3 CC 33
1291++832E FF FF F3 CF  defb 255, 255, 243, 207, 243, 207, 255, 255
1291++8332 F3 CF FF FF
1292++8336 70 70 70 70  defb 112, 112, 112, 112
1293++833A
1294++833A              ; block at pixel position (16,160):
1295++833A
1296++833A FF FF FE BF  defb 255, 255, 254, 191, 253, 95, 250, 191
1296++833E FD 5F FA BF
1297++8342 FC 5F F4 6F  defb 252, 95, 244, 111, 230, 199, 255, 195
1297++8346 E6 C7 FF C3
1298++834A E4 5F CC 73  defb 228, 95, 204, 115, 203, 227, 252, 135
1298++834E CB E3 FC 87
1299++8352 FB 9F F3 FF  defb 251, 159, 243, 255, 255, 207, 255, 159
1299++8356 FF CF FF 9F
1300++835A 70 70 70 70  defb 112, 112, 112, 112
1301++835E
1302++835E              ; block at pixel position (32,160):
1303++835E
1304++835E FF FF FE BF  defb 255, 255, 254, 191, 253, 95, 254, 191
1304++8362 FD 5F FE BF
1305++8366 FC 5F FC BF  defb 252, 95, 252, 191, 255, 255, 254, 63
1305++836A FF FF FE 3F
1306++836E FC 1F FF DF  defb 252, 31, 255, 223, 250, 63, 254, 63
1306++8372 FA 3F FE 3F
1307++8376 F8 7F F9 FF  defb 248, 127, 249, 255, 255, 127, 252, 255
1307++837A FF 7F FC FF
1308++837E 70 70 70 70  defb 112, 112, 112, 112
1309++8382
1310++8382              ; block at pixel position (48,160):
1311++8382
1312++8382 FF FF FE BF  defb 255, 255, 254, 191, 253, 95, 254, 191
1312++8386 FD 5F FE BF
1313++838A FD 5F F2 AF  defb 253, 95, 242, 175, 225, 231, 241, 23
1313++838E E1 E7 F1 17
1314++8392 E9 1F 86 3F  defb 233, 31, 134, 63, 143, 223, 252, 63
1314++8396 8F DF FC 3F
1315++839A FF EF F9 CF  defb 255, 239, 249, 207, 243, 255, 243, 255
1315++839E F3 FF F3 FF
1316++83A2 70 70 70 70  defb 112, 112, 112, 112
1317++83A6
1318++83A6              ; block at pixel position (64,160):
1319++83A6
1320++83A6 FF FF FD 7F  defb 255, 255, 253, 127, 250, 191, 253, 95
1320++83AA FA BF FD 5F
1321++83AE FA BF C5 63  defb 250, 191, 197, 99, 195, 195, 164, 37
1321++83B2 C3 C3 A4 25
1322++83B6 98 19 9C 39  defb 152, 25, 156, 57, 203, 211, 252, 63
1322++83BA CB D3 FC 3F
1323++83BE F7 EF F3 CF  defb 247, 239, 243, 207, 243, 207, 255, 255
1323++83C2 F3 CF FF FF
1324++83C6 70 70 70 70  defb 112, 112, 112, 112
1325++83CA
1326++83CA              ; block at pixel position (80,160):
1327++83CA
1328++83CA FF FF FD 7F  defb 255, 255, 253, 127, 250, 191, 253, 127
1328++83CE FA BF FD 7F
1329++83D2 FA BF F5 4F  defb 250, 191, 245, 79, 231, 135, 232, 143
1329++83D6 E7 87 E8 8F
1330++83DA F8 97 FC 61  defb 248, 151, 252, 97, 251, 241, 252, 63
1330++83DE FB F1 FC 3F
1331++83E2 F7 FF F3 9F  defb 247, 255, 243, 159, 255, 207, 255, 207
1331++83E6 FF CF FF CF
1332++83EA 70 70 70 70  defb 112, 112, 112, 112
1333++83EE
1334++83EE              ; block at pixel position (96,160):
1335++83EE
1336++83EE FF FF FD 7F  defb 255, 255, 253, 127, 250, 191, 253, 127
1336++83F2 FA BF FD 7F
1337++83F6 FA 3F FD 3F  defb 250, 63, 253, 63, 255, 255, 252, 127
1337++83FA FF FF FC 7F
1338++83FE F8 3F FB FF  defb 248, 63, 251, 255, 252, 95, 252, 127
1338++8402 FC 5F FC 7F
1339++8406 FE 1F FF 9F  defb 254, 31, 255, 159, 254, 255, 255, 63
1339++840A FE FF FF 3F
1340++840E 70 70 70 70  defb 112, 112, 112, 112
1341++8412
1342++8412              ; block at pixel position (112,160):
1343++8412
1344++8412 FF FF FD 7F  defb 255, 255, 253, 127, 250, 191, 253, 95
1344++8416 FA BF FD 5F
1345++841A FA 3F F6 2F  defb 250, 63, 246, 47, 227, 103, 195, 255
1345++841E E3 67 C3 FF
1346++8422 FA 27 CE 33  defb 250, 39, 206, 51, 199, 211, 225, 63
1346++8426 C7 D3 E1 3F
1347++842A F9 DF FF CF  defb 249, 223, 255, 207, 243, 255, 249, 255
1347++842E F3 FF F9 FF
1348++8432 70 70 70 70  defb 112, 112, 112, 112
1349++8436
1350++8436              ; block at pixel position (128,160):
1351++8436
1352++8436 00 00 00 00  defb 0, 0, 0, 0, 0, 0, 0, 0
1352++843A 00 00 00 00
1353++843E 00 00 00 00  defb 0, 0, 0, 0, 0, 0, 0, 0
1353++8442 00 00 00 00
1354++8446 00 00 00 00  defb 0, 0, 0, 0, 0, 0, 0, 0
1354++844A 00 00 00 00
1355++844E 00 00 00 00  defb 0, 0, 0, 0, 0, 0, 0, 0
1355++8452 00 00 00 00
1356++8456 78 78 78 78  defb 120, 120, 120, 120
1357++845A
1358++845A              ; block at pixel position (144,160):
1359++845A
1360++845A 00 00 00 00  defb 0, 0, 0, 0, 0, 0, 0, 0
1360++845E 00 00 00 00
1361++8462 00 00 00 00  defb 0, 0, 0, 0, 0, 0, 0, 0
1361++8466 00 00 00 00
1362++846A 00 00 00 00  defb 0, 0, 0, 0, 0, 0, 0, 0
1362++846E 00 00 00 00
1363++8472 00 00 00 00  defb 0, 0, 0, 0, 0, 0, 0, 0
1363++8476 00 00 00 00
1364++847A 78 78 78 78  defb 120, 120, 120, 120
1365++847E
1366++847E              ; block at pixel position (160,160):
1367++847E
1368++847E 00 00 00 00  defb 0, 0, 0, 0, 0, 0, 0, 0
1368++8482 00 00 00 00
1369++8486 00 00 00 00  defb 0, 0, 0, 0, 0, 0, 0, 0
1369++848A 00 00 00 00
1370++848E 00 00 00 00  defb 0, 0, 0, 0, 0, 0, 0, 0
1370++8492 00 00 00 00
1371++8496 00 00 00 00  defb 0, 0, 0, 0, 0, 0, 0, 0
1371++849A 00 00 00 00
1372++849E 78 78 78 78  defb 120, 120, 120, 120
1373++84A2
1374++84A2              ; block at pixel position (176,160):
1375++84A2
1376++84A2 00 00 00 00  defb 0, 0, 0, 0, 0, 0, 0, 0
1376++84A6 00 00 00 00
1377++84AA 00 00 00 00  defb 0, 0, 0, 0, 0, 0, 0, 0
1377++84AE 00 00 00 00
1378++84B2 00 00 00 00  defb 0, 0, 0, 0, 0, 0, 0, 0
1378++84B6 00 00 00 00
1379++84BA 00 00 00 00  defb 0, 0, 0, 0, 0, 0, 0, 0
1379++84BE 00 00 00 00
1380++84C2 78 78 78 78  defb 120, 120, 120, 120
1381++84C6
1382++84C6              ; block at pixel position (192,160):
1383++84C6
1384++84C6 00 00 00 00  defb 0, 0, 0, 0, 0, 0, 0, 0
1384++84CA 00 00 00 00
1385++84CE 00 00 00 00  defb 0, 0, 0, 0, 0, 0, 0, 0
1385++84D2 00 00 00 00
1386++84D6 00 00 00 00  defb 0, 0, 0, 0, 0, 0, 0, 0
1386++84DA 00 00 00 00
1387++84DE 00 00 00 00  defb 0, 0, 0, 0, 0, 0, 0, 0
1387++84E2 00 00 00 00
1388++84E6 78 78 78 78  defb 120, 120, 120, 120
1389++84EA
1390++84EA              ; block at pixel position (208,160):
1391++84EA
1392++84EA 00 00 00 00  defb 0, 0, 0, 0, 0, 0, 0, 0
1392++84EE 00 00 00 00
1393++84F2 00 00 00 00  defb 0, 0, 0, 0, 0, 0, 0, 0
1393++84F6 00 00 00 00
1394++84FA 00 00 00 00  defb 0, 0, 0, 0, 0, 0, 0, 0
1394++84FE 00 00 00 00
1395++8502 00 00 00 00  defb 0, 0, 0, 0, 0, 0, 0, 0
1395++8506 00 00 00 00
1396++850A 78 78 78 78  defb 120, 120, 120, 120
1397++850E
1398++850E              ; block at pixel position (224,160):
1399++850E
1400++850E 00 00 00 00  defb 0, 0, 0, 0, 0, 0, 0, 0
1400++8512 00 00 00 00
1401++8516 00 00 00 00  defb 0, 0, 0, 0, 0, 0, 0, 0
1401++851A 00 00 00 00
1402++851E 00 00 00 00  defb 0, 0, 0, 0, 0, 0, 0, 0
1402++8522 00 00 00 00
1403++8526 00 00 00 00  defb 0, 0, 0, 0, 0, 0, 0, 0
1403++852A 00 00 00 00
1404++852E 78 78 78 78  defb 120, 120, 120, 120
1405++8532
1406++8532              ; block at pixel position (240,160):
1407++8532
1408++8532 00 00 55 FE  defb 0, 0, 85, 254, 63, 254, 85, 126
1408++8536 3F FE 55 7E
1409++853A 2F FE 55 5E  defb 47, 254, 85, 94, 43, 254, 21, 86
1409++853E 2B FE 15 56
1410++8542 2A FE 45 54  defb 42, 254, 69, 84, 42, 190, 1, 84
1410++8546 2A BE 01 54
1411++854A 2A AE 04 54  defb 42, 174, 4, 84, 34, 170, 0, 0
1411++854E 22 AA 00 00
1412++8552 38 38 38 38  defb 56, 56, 56, 56
1413++8556
1414++8556              ; block at pixel position (0,176):
1415++8556
1416++8556 FF FF FF FF  defb 255, 255, 255, 255, 255, 255, 255, 255
1416++855A FF FF FF FF
1417++855E FF FF FE 7F  defb 255, 255, 254, 127, 252, 63, 249, 159
1417++8562 FC 3F F9 9F
1418++8566 F9 9F FC 3F  defb 249, 159, 252, 63, 254, 127, 255, 255
1418++856A FE 7F FF FF
1419++856E FF FF FF FF  defb 255, 255, 255, 255, 255, 255, 255, 255
1419++8572 FF FF FF FF
1420++8576 78 78 78 78  defb 120, 120, 120, 120
1421++857A
1422++857A              ; block at pixel position (16,176):
1423++857A
1424++857A FF FF FF FF  defb 255, 255, 255, 255, 255, 255, 255, 255
1424++857E FF FF FF FF
1425++8582 FE 7F F8 1F  defb 254, 127, 248, 31, 249, 159, 243, 207
1425++8586 F9 9F F3 CF
1426++858A F3 CF F9 9F  defb 243, 207, 249, 159, 248, 31, 254, 127
1426++858E F8 1F FE 7F
1427++8592 FF FF FF FF  defb 255, 255, 255, 255, 255, 255, 255, 255
1427++8596 FF FF FF FF
1428++859A 78 78 78 78  defb 120, 120, 120, 120
1429++859E
1430++859E              ; block at pixel position (32,176):
1431++859E
1432++859E FF FF FF FF  defb 255, 255, 255, 255, 252, 63, 240, 15
1432++85A2 FC 3F F0 0F
1433++85A6 E3 C7 E7 E7  defb 227, 199, 231, 231, 207, 243, 207, 243
1433++85AA CF F3 CF F3
1434++85AE CF F3 CF F3  defb 207, 243, 207, 243, 231, 231, 227, 199
1434++85B2 E7 E7 E3 C7
1435++85B6 F0 0F FC 3F  defb 240, 15, 252, 63, 255, 255, 255, 255
1435++85BA FF FF FF FF
1436++85BE 78 78 78 78  defb 120, 120, 120, 120
1437++85C2
1438++85C2              ; block at pixel position (48,176):
1439++85C2
1440++85C2 FC 3F F0 0F  defb 252, 63, 240, 15, 195, 195, 207, 243
1440++85C6 C3 C3 CF F3
1441++85CA 9F F9 9F F9  defb 159, 249, 159, 249, 63, 252, 63, 252
1441++85CE 3F FC 3F FC
1442++85D2 3F FC 3F FC  defb 63, 252, 63, 252, 159, 249, 159, 249
1442++85D6 9F F9 9F F9
1443++85DA CF F3 C3 C3  defb 207, 243, 195, 195, 240, 15, 252, 63
1443++85DE F0 0F FC 3F
1444++85E2 78 78 78 78  defb 120, 120, 120, 120
1445++85E6
1446++85E6              ; block at pixel position (64,176):
1447++85E6
1448++85E6 00 00 00 00  defb 0, 0, 0, 0, 0, 0, 0, 0
1448++85EA 00 00 00 00
1449++85EE 00 00 00 00  defb 0, 0, 0, 0, 0, 0, 0, 0
1449++85F2 00 00 00 00
1450++85F6 00 00 00 00  defb 0, 0, 0, 0, 0, 0, 0, 0
1450++85FA 00 00 00 00
1451++85FE 00 00 00 00  defb 0, 0, 0, 0, 0, 0, 0, 0
1451++8602 00 00 00 00
1452++8606 78 78 78 78  defb 120, 120, 120, 120
1453++860A
1454++860A              ; block at pixel position (80,176):
1455++860A
1456++860A 00 00 00 00  defb 0, 0, 0, 0, 0, 0, 0, 0
1456++860E 00 00 00 00
1457++8612 00 00 00 00  defb 0, 0, 0, 0, 0, 0, 0, 0
1457++8616 00 00 00 00
1458++861A 00 00 00 00  defb 0, 0, 0, 0, 0, 0, 0, 0
1458++861E 00 00 00 00
1459++8622 00 00 00 00  defb 0, 0, 0, 0, 0, 0, 0, 0
1459++8626 00 00 00 00
1460++862A 78 78 78 78  defb 120, 120, 120, 120
1461++862E
1462++862E              ; block at pixel position (96,176):
1463++862E
1464++862E 00 00 00 00  defb 0, 0, 0, 0, 0, 0, 0, 0
1464++8632 00 00 00 00
1465++8636 00 00 00 00  defb 0, 0, 0, 0, 0, 0, 0, 0
1465++863A 00 00 00 00
1466++863E 00 00 00 00  defb 0, 0, 0, 0, 0, 0, 0, 0
1466++8642 00 00 00 00
1467++8646 00 00 00 00  defb 0, 0, 0, 0, 0, 0, 0, 0
1467++864A 00 00 00 00
1468++864E 78 78 78 78  defb 120, 120, 120, 120
1469++8652
1470++8652              ; block at pixel position (112,176):
1471++8652
1472++8652 00 00 00 00  defb 0, 0, 0, 0, 0, 0, 0, 0
1472++8656 00 00 00 00
1473++865A 00 00 00 00  defb 0, 0, 0, 0, 0, 0, 0, 0
1473++865E 00 00 00 00
1474++8662 00 00 00 00  defb 0, 0, 0, 0, 0, 0, 0, 0
1474++8666 00 00 00 00
1475++866A 00 00 00 00  defb 0, 0, 0, 0, 0, 0, 0, 0
1475++866E 00 00 00 00
1476++8672 78 78 78 78  defb 120, 120, 120, 120
1477++8676
1478++8676              ; block at pixel position (128,176):
1479++8676
1480++8676 00 00 00 00  defb 0, 0, 0, 0, 0, 0, 0, 0
1480++867A 00 00 00 00
1481++867E 00 00 00 00  defb 0, 0, 0, 0, 0, 0, 0, 0
1481++8682 00 00 00 00
1482++8686 00 00 00 00  defb 0, 0, 0, 0, 0, 0, 0, 0
1482++868A 00 00 00 00
1483++868E 00 00 00 00  defb 0, 0, 0, 0, 0, 0, 0, 0
1483++8692 00 00 00 00
1484++8696 78 78 78 78  defb 120, 120, 120, 120
1485++869A
1486++869A              ; block at pixel position (144,176):
1487++869A
1488++869A 00 00 00 00  defb 0, 0, 0, 0, 0, 0, 0, 0
1488++869E 00 00 00 00
1489++86A2 00 00 00 00  defb 0, 0, 0, 0, 0, 0, 0, 0
1489++86A6 00 00 00 00
1490++86AA 00 00 00 00  defb 0, 0, 0, 0, 0, 0, 0, 0
1490++86AE 00 00 00 00
1491++86B2 00 00 00 00  defb 0, 0, 0, 0, 0, 0, 0, 0
1491++86B6 00 00 00 00
1492++86BA 78 78 78 78  defb 120, 120, 120, 120
1493++86BE
1494++86BE              ; block at pixel position (160,176):
1495++86BE
1496++86BE 00 00 00 00  defb 0, 0, 0, 0, 0, 0, 0, 0
1496++86C2 00 00 00 00
1497++86C6 00 00 00 00  defb 0, 0, 0, 0, 0, 0, 0, 0
1497++86CA 00 00 00 00
1498++86CE 00 00 00 00  defb 0, 0, 0, 0, 0, 0, 0, 0
1498++86D2 00 00 00 00
1499++86D6 00 00 00 00  defb 0, 0, 0, 0, 0, 0, 0, 0
1499++86DA 00 00 00 00
1500++86DE 78 78 78 78  defb 120, 120, 120, 120
1501++86E2
1502++86E2              ; block at pixel position (176,176):
1503++86E2
1504++86E2 00 00 00 00  defb 0, 0, 0, 0, 0, 0, 0, 0
1504++86E6 00 00 00 00
1505++86EA 00 00 00 00  defb 0, 0, 0, 0, 0, 0, 0, 0
1505++86EE 00 00 00 00
1506++86F2 00 00 00 00  defb 0, 0, 0, 0, 0, 0, 0, 0
1506++86F6 00 00 00 00
1507++86FA 00 00 00 00  defb 0, 0, 0, 0, 0, 0, 0, 0
1507++86FE 00 00 00 00
1508++8702 78 78 78 78  defb 120, 120, 120, 120
1509++8706
1510++8706              ; block at pixel position (192,176):
1511++8706
1512++8706 00 00 00 00  defb 0, 0, 0, 0, 0, 0, 0, 0
1512++870A 00 00 00 00
1513++870E 00 00 00 00  defb 0, 0, 0, 0, 0, 0, 0, 0
1513++8712 00 00 00 00
1514++8716 00 00 00 00  defb 0, 0, 0, 0, 0, 0, 0, 0
1514++871A 00 00 00 00
1515++871E 00 00 00 00  defb 0, 0, 0, 0, 0, 0, 0, 0
1515++8722 00 00 00 00
1516++8726 78 78 78 78  defb 120, 120, 120, 120
1517++872A
1518++872A              ; block at pixel position (208,176):
1519++872A
1520++872A 00 00 00 00  defb 0, 0, 0, 0, 0, 0, 0, 0
1520++872E 00 00 00 00
1521++8732 00 00 00 00  defb 0, 0, 0, 0, 0, 0, 0, 0
1521++8736 00 00 00 00
1522++873A 00 00 00 00  defb 0, 0, 0, 0, 0, 0, 0, 0
1522++873E 00 00 00 00
1523++8742 00 00 00 00  defb 0, 0, 0, 0, 0, 0, 0, 0
1523++8746 00 00 00 00
1524++874A 78 78 78 78  defb 120, 120, 120, 120
1525++874E
1526++874E              ; block at pixel position (224,176):
1527++874E
1528++874E 06 60 18 18  defb 6, 96, 24, 24, 38, 100, 90, 90
1528++8752 26 64 5A 5A
1529++8756 52 4A A0 05  defb 82, 74, 160, 5, 185, 157, 2, 64
1529++875A B9 9D 02 40
1530++875E B9 9D B9 9D  defb 185, 157, 185, 157, 160, 5, 82, 74
1530++8762 A0 05 52 4A
1531++8766 5A 5A 26 64  defb 90, 90, 38, 100, 24, 24, 6, 96
1531++876A 18 18 06 60
1532++876E 78 78 78 78  defb 120, 120, 120, 120
1533++8772
1534++8772              ; block at pixel position (240,176):
1535++8772
1536++8772 FF FF 80 01  defb 255, 255, 128, 1, 128, 1, 159, 249
1536++8776 80 01 9F F9
1537++877A 90 09 90 09  defb 144, 9, 144, 9, 159, 249, 159, 249
1537++877E 9F F9 9F F9
1538++8782 9F F9 9F F9  defb 159, 249, 159, 249, 128, 1, 128, 1
1538++8786 80 01 80 01
1539++878A FF FF 80 01  defb 255, 255, 128, 1, 128, 1, 255, 255
1539++878E 80 01 FF FF
1540++8792 78 78 78 78  defb 120, 120, 120, 120
1541++8796
# file closed: /Users/random/zx-engine/data/graph/tiles_many.asm
   9++8796              TILE_SET_END
  10++8796
  11++8796              LANG_SET:
  12++8796                INCLUDE "data/lang/lang_ru.asm"
# file opened: /Users/random/zx-engine/data/lang/lang_ru.asm
   1++8796              ;  Windows-1251 encoded only !!!!
   2++8796
   3++8796              HELLO_TXT:
   4++8796              ; db "012345678901234567890123456789012345678901"
   5++8796 20 43 45 4C    db " CELL 3326       v1.2-alpha    11.03.2019 "
   5++879A 4C 20 33 33
   5++879E 32 36 20 20
   5++87A2 20 20 20 20
   5++87A6 20 76 31 2E
   5++87AA 32 2D 61 6C
   5++87AE 70 68 61 20
   5++87B2 20 20 20 31
   5++87B6 31 2E 30 33
   5++87BA 2E 32 30 31
   5++87BE 39 20
   6++87C0 2D 2D 2D 2D    db "------------------------------------------"
   6++87C4 2D 2D 2D 2D
   6++87C8 2D 2D 2D 2D
   6++87CC 2D 2D 2D 2D
   6++87D0 2D 2D 2D 2D
   6++87D4 2D 2D 2D 2D
   6++87D8 2D 2D 2D 2D
   6++87DC 2D 2D 2D 2D
   6++87E0 2D 2D 2D 2D
   6++87E4 2D 2D 2D 2D
   6++87E8 2D 2D
   7++87EA 8F E0 A8 A2    db "ਢ !     ⮡  "
   7++87EE A5 E2 20 AC
   7++87F2 A8 E0 21 20
   7++87F6 9F 20 E5 AE
   7++87FA E7 E3 20 AF
   7++87FE AE A8 A3 E0
   7++8802 A0 E2 EC 20
   7++8806 E1 20 E2 AE
   7++880A A1 AE A9 20
   7++880E A2 20 AE A4
   7++8812 AD E3
   8++8814 A8 A3 E0 E3    db ".   - ன, 訩", 13
   8++8818 2E 20 91 EE
   8++881C A6 A5 E2 20
   8++8820 A1 A0 AD A0
   8++8824 AB A5 AD 20
   8++8828 2D 20 A3 A5
   8++882C E0 AE A9 2C
   8++8830 20 AF AE E2
   8++8834 A5 E0 EF A2
   8++8838 E8 A8 A9 0D
   9++883C AF A0 AC EF    db ", 믠  ஢  .", 13
   9++8840 E2 EC 2C 20
   9++8844 AF E0 AE E1
   9++8848 EB AF A0 A5
   9++884C E2 E1 EF 20
   9++8850 AD A0 20 AA
   9++8854 E0 AE A2 A0
   9++8858 E2 A8 20 A2
   9++885C 20 AA AE AC
   9++8860 AD A0 E2 A5
   9++8864 2E 0D
  10++8866                ; db "------------------------------------------"
  11++8866                ; db 13
  12++8866 2D 2D 2D 2D    db "-----------[ࠢ  ]------------"
  12++886A 2D 2D 2D 2D
  12++886E 2D 2D 2D 5B
  12++8872 93 AF E0 A0
  12++8876 A2 AB A5 AD
  12++887A A8 A5 20 A2
  12++887E 20 A8 A3 E0
  12++8882 A5 5D 2D 2D
  12++8886 2D 2D 2D 2D
  12++888A 2D 2D 2D 2D
  12++888E 2D 2D
  13++8890                ; db "  :                        "
  14++8890 8A AD AE AF    db " ,QAOP-।", 13
  14++8894 AA A8 20 AA
  14++8898 E3 E0 E1 AE
  14++889C E0 A0 2C 51
  14++88A0 41 4F 50 2D
  14++88A4 AF A5 E0 A5
  14++88A8 A4 A2 A8 A6
  14++88AC A5 AD A8 A5
  14++88B0 0D
  15++88B1 45 6E 74 65    db "Enter,Space,M -  ⢨  ",13
  15++88B5 72 2C 53 70
  15++88B9 61 63 65 2C
  15++88BD 4D 20 2D 20
  15++88C1 AA AD AE AF
  15++88C5 AA A8 20 A4
  15++88C9 A5 A9 E1 E2
  15++88CD A2 A8 EF 20
  15++88D1 AD A0 20 AC
  15++88D5 A5 E1 E2 AE
  15++88D9 0D
  16++88DA AF E0 EF AC    db "אַ । ᮭ ⥬ ।⮬,-"
  16++88DE AE 20 AF A5
  16++88E2 E0 A5 A4 20
  16++88E6 AF A5 E0 E1
  16++88EA AE AD A0 A6
  16++88EE A5 AC 20 E2
  16++88F2 A5 AC 20 AF
  16++88F6 E0 A5 A4 AC
  16++88FA A5 E2 AE AC
  16++88FE 2C AA AE E2
  16++8902 AE 2D
  17++8904 E0 EB A9 20    db " 室  㪠.", 13
  17++8908 AD A0 E5 AE
  17++890C A4 A8 E2 E1
  17++8910 EF 20 A2 20
  17++8914 E0 E3 AA A0
  17++8918 E5 2E 0D
  18++891B 47 2D A2 EB    db "G-室     ", 13
  18++891F E5 AE A4 20
  18++8923 A2 20 AC A5
  18++8927 AD EE 20 A8
  18++892B 20 E0 A5 E1
  18++892F E2 A0 E0 E2
  18++8933 20 A8 A3 E0
  18++8937 EB 0D
  19++8939 2D 2D 2D 2D    db "------------------------------------------"
  19++893D 2D 2D 2D 2D
  19++8941 2D 2D 2D 2D
  19++8945 2D 2D 2D 2D
  19++8949 2D 2D 2D 2D
  19++894D 2D 2D 2D 2D
  19++8951 2D 2D 2D 2D
  19++8955 2D 2D 2D 2D
  19++8959 2D 2D 2D 2D
  19++895D 2D 2D 2D 2D
  19++8961 2D 2D
  20++8963 8A AE A4 20    db " Wanderer,몠 AER,䨪  ", 13
  20++8967 57 61 6E 64
  20++896B 65 72 65 72
  20++896F 2C AC E3 A7
  20++8973 EB AA A0 20
  20++8977 41 45 52 2C
  20++897B A3 E0 A0 E4
  20++897F A8 AA A0 20
  20++8983 A2 A7 EF E2
  20++8987 A0 20 A8 A7
  20++898B 0D
  21++898C A8 A3 E0 20    db " LaserSquad,Stalker,Monstrland", 13
  21++8990 4C 61 73 65
  21++8994 72 53 71 75
  21++8998 61 64 2C 53
  21++899C 74 61 6C 6B
  21++89A0 65 72 2C 4D
  21++89A4 6F 6E 73 74
  21++89A8 72 6C 61 6E
  21++89AC 64 0D
  22++89AE 2D 2D 2D 2D    db "------------------------------------------"
  22++89B2 2D 2D 2D 2D
  22++89B6 2D 2D 2D 2D
  22++89BA 2D 2D 2D 2D
  22++89BE 2D 2D 2D 2D
  22++89C2 2D 2D 2D 2D
  22++89C6 2D 2D 2D 2D
  22++89CA 2D 2D 2D 2D
  22++89CE 2D 2D 2D 2D
  22++89D2 2D 2D 2D 2D
  22++89D6 2D 2D
  23++89D8 54 68 61 6E    db "Thank's to Videogames Sematary for 2-hours"
  23++89DC 6B 27 73 20
  23++89E0 74 6F 20 56
  23++89E4 69 64 65 6F
  23++89E8 67 61 6D 65
  23++89EC 73 20 53 65
  23++89F0 6D 61 74 61
  23++89F4 72 79 20 66
  23++89F8 6F 72 20 32
  23++89FC 2D 68 6F 75
  23++8A00 72 73
  24++8A02 67 61 6D 65    db "game stream video, Shiru for operative and"
  24++8A06 20 73 74 72
  24++8A0A 65 61 6D 20
  24++8A0E 76 69 64 65
  24++8A12 6F 2C 20 53
  24++8A16 68 69 72 75
  24++8A1A 20 66 6F 72
  24++8A1E 20 6F 70 65
  24++8A22 72 61 74 69
  24++8A26 76 65 20 61
  24++8A2A 6E 64
  25++8A2C 64 65 74 61    db "detailed information about the beeproblem "
  25++8A30 69 6C 65 64
  25++8A34 20 69 6E 66
  25++8A38 6F 72 6D 61
  25++8A3C 74 69 6F 6E
  25++8A40 20 61 62 6F
  25++8A44 75 74 20 74
  25++8A48 68 65 20 62
  25++8A4C 65 65 70 72
  25++8A50 6F 62 6C 65
  25++8A54 6D 20
  26++8A56 73 6F 75 6E    db "sound and Modern ZX-Retro Gaming Channel  "
  26++8A5A 64 20 61 6E
  26++8A5E 64 20 4D 6F
  26++8A62 64 65 72 6E
  26++8A66 20 5A 58 2D
  26++8A6A 52 65 74 72
  26++8A6E 6F 20 47 61
  26++8A72 6D 69 6E 67
  26++8A76 20 43 68 61
  26++8A7A 6E 6E 65 6C
  26++8A7E 20 20
  27++8A80 66 6F 72 20    db "for walkthrough video..",13
  27++8A84 77 61 6C 6B
  27++8A88 74 68 72 6F
  27++8A8C 75 67 68 20
  27++8A90 76 69 64 65
  27++8A94 6F 2E 2E 0D
  28++8A98 2D 2D 2D 2D    db "------------------------------------------"
  28++8A9C 2D 2D 2D 2D
  28++8AA0 2D 2D 2D 2D
  28++8AA4 2D 2D 2D 2D
  28++8AA8 2D 2D 2D 2D
  28++8AAC 2D 2D 2D 2D
  28++8AB0 2D 2D 2D 2D
  28++8AB4 2D 2D 2D 2D
  28++8AB8 2D 2D 2D 2D
  28++8ABC 2D 2D 2D 2D
  28++8AC0 2D 2D
  29++8AC2 91 A0 A9 E2    db ": zxwanderer.github.io/cell3326", 13
  29++8AC6 3A 20 7A 78
  29++8ACA 77 61 6E 64
  29++8ACE 65 72 65 72
  29++8AD2 2E 67 69 74
  29++8AD6 68 75 62 2E
  29++8ADA 69 6F 2F 63
  29++8ADE 65 6C 6C 33
  29++8AE2 33 32 36 0D
  30++8AE6 2D 2D 2D 2D    db "------------------------------------------"
  30++8AEA 2D 2D 2D 2D
  30++8AEE 2D 2D 2D 2D
  30++8AF2 2D 2D 2D 2D
  30++8AF6 2D 2D 2D 2D
  30++8AFA 2D 2D 2D 2D
  30++8AFE 2D 2D 2D 2D
  30++8B02 2D 2D 2D 2D
  30++8B06 2D 2D 2D 2D
  30++8B0A 2D 2D 2D 2D
  30++8B0E 2D 2D
  31++8B10 00             db _endByte
  32++8B11
  33++8B11              ; ABOUT_TXT:
  34++8B11              ;   db "------------------------------------------"
  35++8B11              ;   db " [I]nfo                                   "
  36++8B11              ;   db "------------------------------------------"
  37++8B11              ;   db "        "
  38++8B11              ;   db "    SamStyle  SancheZ.  "
  39++8B11              ;   db "------------------------------------------"
  40++8B11              ;   db "        "
  41++8B11              ;   db "RebelStar,LaserSquad,Monstrland,Stalker.. "
  42++8B11              ;   db "------------------------------------------"
  43++8B11              ;   db "   :         "
  44++8B11              ;   db " -  Z80 sjasmplus     "
  45++8B11              ;   db " -  beepFX  Shiru         "
  46++8B11              ;   db " -  Visual Studio Code   "
  47++8B11              ;   db " -   Tiled            "
  48++8B11              ;   db " -   Aseprite"
  49++8B11              ;   db " -  ZX-Paintbrush      "
  50++8B11              ;   db " - Speccy Unreal Portable         "
  51++8B11              ;   db " - zx7                           "
  52++8B11              ;   db " - bin2tap, mctrd                  "
  53++8B11              ;   db _endByte
  54++8B11
  55++8B11              ; HELP:
  56++8B11              ;   db "------------------------------------------"
  57++8B11              ;   db " [H]elp                                   "
  58++8B11              ;   db "------------------------------------------"
  59++8B11              ;   db "                                          "
  60++8B11              ;   db "[ ], [QAOP] -    "
  61++8B11              ;   db "                                          "
  62++8B11              ;   db "[Enter],[Space] -    - "
  63++8B11              ;   db "     ,  "
  64++8B11              ;   db "   .   "
  65++8B11              ;   db "    ,   "
  66++8B11              ;   db "   .                       "
  67++8B11              ;   db "                                          "
  68++8B11              ;   db "G -                       "
  69++8B11              ;   db _endByte
  70++8B11
  71++8B11              GAMEOVER_1:
  72++8B11 2D 2D 2D 2D    db "------------------------------------------"
  72++8B15 2D 2D 2D 2D
  72++8B19 2D 2D 2D 2D
  72++8B1D 2D 2D 2D 2D
  72++8B21 2D 2D 2D 2D
  72++8B25 2D 2D 2D 2D
  72++8B29 2D 2D 2D 2D
  72++8B2D 2D 2D 2D 2D
  72++8B31 2D 2D 2D 2D
  72++8B35 2D 2D 2D 2D
  72++8B39 2D 2D
  73++8B3B 20 8A AE AD    db "  ", 13
  73++8B3F A5 E6 20 A8
  73++8B43 A3 E0 EB 0D
  74++8B47 2D 2D 2D 2D    db "------------------------------------------"
  74++8B4B 2D 2D 2D 2D
  74++8B4F 2D 2D 2D 2D
  74++8B53 2D 2D 2D 2D
  74++8B57 2D 2D 2D 2D
  74++8B5B 2D 2D 2D 2D
  74++8B5F 2D 2D 2D 2D
  74++8B63 2D 2D 2D 2D
  74++8B67 2D 2D 2D 2D
  74++8B6B 2D 2D 2D 2D
  74++8B6F 2D 2D
  75++8B71 9F 20 E1 AE    db "  ᥩ ᨫ 㤠ਫ  ࠭ -", 13
  75++8B75 20 A2 E1 A5
  75++8B79 A9 20 E1 A8
  75++8B7D AB EB 20 E3
  75++8B81 A4 A0 E0 A8
  75++8B85 AB 20 AF AE
  75++8B89 20 ED AA E0
  75++8B8D A0 AD E3 20
  75++8B91 AA AE AC AF
  75++8B95 EC EE 2D 0D
  76++8B99 E2 A5 E0 A0    db ".  ࢠ  ⥫ -", 13
  76++8B9D 2E 20 8E AD
  76++8BA1 20 A2 A7 AE
  76++8BA5 E0 A2 A0 AB
  76++8BA9 E1 EF 20 E1
  76++8BAD 20 AE A3 AB
  76++8BB1 E3 E8 A8 E2
  76++8BB5 A5 AB EC AD
  76++8BB9 EB AC 20 A3
  76++8BBD E0 AE E5 AE
  76++8BC1 2D 0D
  77++8BC3 E2 AE AC 2C    db "⮬, ஭  ⥫ 묨 ᪮", 13
  77++8BC7 20 AF E0 AE
  77++8BCB AD A7 A8 A2
  77++8BCF 20 AC AE A5
  77++8BD3 20 E2 A5 AB
  77++8BD7 AE 20 AE E1
  77++8BDB E2 E0 EB AC
  77++8BDF A8 20 AE E1
  77++8BE3 AA AE AB AA
  77++8BE7 A0 AC A8 0D
  78++8BEB AF AB A0 E1    db "⨪  祣 ⠫..", 13
  78++8BEF E2 A8 AA A0
  78++8BF3 20 A8 20 A3
  78++8BF7 AE E0 EF E7
  78++8BFB A5 A3 AE 20
  78++8BFF AC A5 E2 A0
  78++8C03 AB AB A0 2E
  78++8C07 2E 0D
  79++8C09 2D 2D 2D 2D    db "------------------------------------------"
  79++8C0D 2D 2D 2D 2D
  79++8C11 2D 2D 2D 2D
  79++8C15 2D 2D 2D 2D
  79++8C19 2D 2D 2D 2D
  79++8C1D 2D 2D 2D 2D
  79++8C21 2D 2D 2D 2D
  79++8C25 2D 2D 2D 2D
  79++8C29 2D 2D 2D 2D
  79++8C2D 2D 2D 2D 2D
  79++8C31 2D 2D
  80++8C33 83 A5 E0 AE    db "ன , ⠪  稫."
  80++8C37 A9 20 AF AE
  80++8C3B A3 A8 A1 2C
  80++8C3F 20 E2 A0 AA
  80++8C43 20 E3 A6 20
  80++8C47 AF AE AB E3
  80++8C4B E7 A8 AB AE
  80++8C4F E1 EC 2E
  81++8C52 00             db _endByte
  82++8C53
  83++8C53              GAMEOVER_2: ;       
  84++8C53 2D 2D 2D 2D    db "------------------------------------------"
  84++8C57 2D 2D 2D 2D
  84++8C5B 2D 2D 2D 2D
  84++8C5F 2D 2D 2D 2D
  84++8C63 2D 2D 2D 2D
  84++8C67 2D 2D 2D 2D
  84++8C6B 2D 2D 2D 2D
  84++8C6F 2D 2D 2D 2D
  84++8C73 2D 2D 2D 2D
  84++8C77 2D 2D 2D 2D
  84++8C7B 2D 2D
  85++8C7D 20 8A AE AD    db "  ", 13
  85++8C81 A5 E6 20 A8
  85++8C85 A3 E0 EB 0D
  86++8C89 2D 2D 2D 2D    db "------------------------------------------"
  86++8C8D 2D 2D 2D 2D
  86++8C91 2D 2D 2D 2D
  86++8C95 2D 2D 2D 2D
  86++8C99 2D 2D 2D 2D
  86++8C9D 2D 2D 2D 2D
  86++8CA1 2D 2D 2D 2D
  86++8CA5 2D 2D 2D 2D
  86++8CA9 2D 2D 2D 2D
  86++8CAD 2D 2D 2D 2D
  86++8CB1 2D 2D
  87++8CB3 82 AD A5 E8    db "   뫠, ⬮",13
  87++8CB7 AD EF EF 20
  87++8CBB A4 A2 A5 E0
  87++8CBF EC 20 E8 AB
  87++8CC3 EE A7 A0 20
  87++8CC7 AE E2 AA E0
  87++8CCB EB AB A0 E1
  87++8CCF EC 2C A8 20
  87++8CD3 A0 E2 AC AE
  87++8CD7 E1 E4 A5 E0
  87++8CDB A0 0D
  88++8CDD A6 A8 AB AE    db "  ६ . ",13
  88++8CE1 A3 AE 20 AC
  88++8CE5 AE A4 E3 AB
  88++8CE9 EF 20 E3 E1
  88++8CED E2 E0 A5 AC
  88++8CF1 A8 AB A0 E1
  88++8CF5 EC 20 AD A0
  88++8CF9 E0 E3 A6 E3
  88++8CFD 2E 20 8C A5
  88++8D01 AD EF 0D
  89++8D04 A2 EB A1 E0    db "ᨫ  c 㤠஬,",13
  89++8D08 AE E1 A8 AB
  89++8D0C AE 20 AC AE
  89++8D10 E9 AD EB AC
  89++8D14 20 A4 A5 AA
  89++8D18 AE AC AF E0
  89++8D1C A5 E1 63 A8
  89++8D20 AE AD AD EB
  89++8D24 AC 20 E3 A4
  89++8D28 A0 E0 AE AC
  89++8D2C 2C 0D
  90++8D2E E1 E2 E3 AA    db "㪭㫮  㣮 ,,,",13
  90++8D32 AD E3 AB AE
  90++8D36 20 AE A1 20
  90++8D3A E3 A3 AE AB
  90++8D3E 20 A7 A4 A0
  90++8D42 AD A8 EF 2C
  90++8D46 A8 2C AD A0
  90++8D4A AA AE AD A5
  90++8D4E E6 2C 0D
  91++8D51 EF 20 E1 E2    db " ⮫  ⥭,⪨ ண",13
  91++8D55 AE AB AA AD
  91++8D59 E3 AB E1 EF
  91++8D5D 20 E1 20 E0
  91++8D61 A0 E1 E2 A5
  91++8D65 AD A8 A5 AC
  91++8D69 2C A2 A5 E2
  91++8D6D AA A8 20 AA
  91++8D71 AE E2 AE E0
  91++8D75 AE A3 AE 0D
  92++8D79 AE AA A0 A7    db " 쭮 ⪨..",13
  92++8D7D A0 AB A8 E1
  92++8D81 EC 20 A4 AE
  92++8D85 A2 AE AB EC
  92++8D89 AD AE 20 A6
  92++8D8D A5 E1 E2 AA
  92++8D91 A8 AC A8 2E
  92++8D95 2E 0D
  93++8D97 2D 2D 2D 2D    db "------------------------------------------"
  93++8D9B 2D 2D 2D 2D
  93++8D9F 2D 2D 2D 2D
  93++8DA3 2D 2D 2D 2D
  93++8DA7 2D 2D 2D 2D
  93++8DAB 2D 2D 2D 2D
  93++8DAF 2D 2D 2D 2D
  93++8DB3 2D 2D 2D 2D
  93++8DB7 2D 2D 2D 2D
  93++8DBB 2D 2D 2D 2D
  93++8DBF 2D 2D
  94++8DC1 83 A5 E0 AE    db "ன , ⠪  稫."
  94++8DC5 A9 20 AF AE
  94++8DC9 A3 A8 A1 2C
  94++8DCD 20 E2 A0 AA
  94++8DD1 20 E3 A6 20
  94++8DD5 AF AE AB E3
  94++8DD9 E7 A8 AB AE
  94++8DDD E1 EC 2E
  95++8DE0 00             db _endByte
  96++8DE1
  97++8DE1              GAMEOVER_3: ;  
  98++8DE1 2D 2D 2D 2D    db "------------------------------------------"
  98++8DE5 2D 2D 2D 2D
  98++8DE9 2D 2D 2D 2D
  98++8DED 2D 2D 2D 2D
  98++8DF1 2D 2D 2D 2D
  98++8DF5 2D 2D 2D 2D
  98++8DF9 2D 2D 2D 2D
  98++8DFD 2D 2D 2D 2D
  98++8E01 2D 2D 2D 2D
  98++8E05 2D 2D 2D 2D
  98++8E09 2D 2D
  99++8E0B 20 8A AE AD    db "  ", 13
  99++8E0F A5 E6 20 A8
  99++8E13 A3 E0 EB 0D
 100++8E17 2D 2D 2D 2D    db "------------------------------------------"
 100++8E1B 2D 2D 2D 2D
 100++8E1F 2D 2D 2D 2D
 100++8E23 2D 2D 2D 2D
 100++8E27 2D 2D 2D 2D
 100++8E2B 2D 2D 2D 2D
 100++8E2F 2D 2D 2D 2D
 100++8E33 2D 2D 2D 2D
 100++8E37 2D 2D 2D 2D
 100++8E3B 2D 2D 2D 2D
 100++8E3F 2D 2D
 101++8E41 9F 20 A2 A2    db "   ᪠ ਩ ⮪", 13
 101++8E45 A5 AB 20 AA
 101++8E49 AE A4 EB 20
 101++8E4D A7 A0 AF E3
 101++8E51 E1 AA A0 20
 101++8E55 A0 A2 A0 E0
 101++8E59 A8 A9 AD AE
 101++8E5D A3 AE 20 AF
 101++8E61 E0 AE E2 AE
 101++8E65 AA AE AB A0
 101++8E69 0D
 102++8E6A A8 20 E7 A5    db " १ ᪮쪮 ᥪ㭤 㦥 ࠧਢ "
 102++8E6E E0 A5 A7 20
 102++8E72 AD A5 E1 AA
 102++8E76 AE AB EC AA
 102++8E7A AE 20 E1 A5
 102++8E7E AA E3 AD A4
 102++8E82 20 E3 A6 A5
 102++8E86 20 E0 A0 A7
 102++8E8A A3 AE A2 A0
 102++8E8E E0 A8 A2 A0
 102++8E92 AB 20
 103++8E94 E1 20 A4 A5    db "  ࡨ⠫쭮 ..", 13
 103++8E98 A6 E3 E0 AD
 103++8E9C EB AC 20 AE
 103++8EA0 E0 A1 A8 E2
 103++8EA4 A0 AB EC AD
 103++8EA8 AE A9 20 A1
 103++8EAC A0 A7 EB 2E
 103++8EB0 2E 0D
 104++8EB2 2D 2D 2D 2D    db "------------------------------------------"
 104++8EB6 2D 2D 2D 2D
 104++8EBA 2D 2D 2D 2D
 104++8EBE 2D 2D 2D 2D
 104++8EC2 2D 2D 2D 2D
 104++8EC6 2D 2D 2D 2D
 104++8ECA 2D 2D 2D 2D
 104++8ECE 2D 2D 2D 2D
 104++8ED2 2D 2D 2D 2D
 104++8ED6 2D 2D 2D 2D
 104++8EDA 2D 2D
 105++8EDC 8F E0 AE E8    db "襫     ᠤ 頤", 13
 105++8EE0 A5 AB 20 E7
 105++8EE4 A0 E1 20 A8
 105++8EE8 20 A2 AE E2
 105++8EEC 20 AD A0 20
 105++8EF0 AF AE E1 A0
 105++8EF4 A4 AE E7 AD
 105++8EF8 E3 EE 20 AF
 105++8EFC AB AE E9 A0
 105++8F00 A4 AA E3 0D
 106++8F04 AF E0 A8 A7    db "ਧ 㫠,  ன 砫", 13
 106++8F08 A5 AC AB A8
 106++8F0C AB A0 E1 EC
 106++8F10 20 AA A0 AF
 106++8F14 E1 E3 AB A0
 106++8F18 2C 20 A8 A7
 106++8F1C 20 AA AE E2
 106++8F20 AE E0 AE A9
 106++8F24 20 AD A0 E7
 106++8F28 A0 AB A8 0D
 107++8F2C A2 EB A3 E0    db "㦠    殮 ", 13
 107++8F30 E3 A6 A0 E2
 107++8F34 EC E1 EF 20
 107++8F38 E5 AC E3 E0
 107++8F3C EB A5 20 AB
 107++8F40 EE A4 A8 20
 107++8F44 A2 20 E2 EF
 107++8F48 A6 A5 AB EB
 107++8F4C E5 20 A1 AE
 107++8F50 A5 A2 EB E5
 107++8F54 0D
 108++8F55 E1 AA A0 E4    db "᪠䠭  㦨  㪠. ࠭,", 13
 108++8F59 A0 AD A4 E0
 108++8F5D A0 E5 20 A8
 108++8F61 20 AE E0 E3
 108++8F65 A6 A8 A5 AC
 108++8F69 20 A2 20 E0
 108++8F6D E3 AA A0 E5
 108++8F71 2E 20 91 E2
 108++8F75 E0 A0 AD AD
 108++8F79 AE 2C 0D
 109++8F7C A2 E0 AE A4    db "த  ᯠ⥫   㦨..", 13
 109++8F80 A5 20 A1 EB
 109++8F84 20 E1 AF A0
 109++8F88 E1 A0 E2 A5
 109++8F8C AB A8 20 AD
 109++8F90 A5 20 AD AE
 109++8F94 E1 EF E2 20
 109++8F98 AE E0 E3 A6
 109++8F9C A8 EF 2E 2E
 109++8FA0 0D
 110++8FA1 2D 2D 2D 2D    db "------------------------------------------"
 110++8FA5 2D 2D 2D 2D
 110++8FA9 2D 2D 2D 2D
 110++8FAD 2D 2D 2D 2D
 110++8FB1 2D 2D 2D 2D
 110++8FB5 2D 2D 2D 2D
 110++8FB9 2D 2D 2D 2D
 110++8FBD 2D 2D 2D 2D
 110++8FC1 2D 2D 2D 2D
 110++8FC5 2D 2D 2D 2D
 110++8FC9 2D 2D
 111++8FCB 82 EB 20 AF    db " 諨 .. ୮.."
 111++8FCF E0 AE E8 AB
 111++8FD3 A8 20 A8 A3
 111++8FD7 E0 E3 2E 2E
 111++8FDB 20 AD A0 A2
 111++8FDF A5 E0 AD AE
 111++8FE3 A5 2E 2E
 112++8FE6 00             db _endByte
 113++8FE7
 114++8FE7              GAMEOVER_3_1:
 115++8FE7 37 89 20 8E    db "7  ", 13
 115++8FEB 92 84 85 8B
 115++8FEF 20 91 8F 85
 115++8FF3 96 8E 8F 85
 115++8FF7 90 80 96 88
 115++8FFB 89 0D
 116++8FFD 91 8E 82 85    db " ", 13
 116++9001 90 98 85 8D
 116++9005 8D 8E 20 91
 116++9009 85 8A 90 85
 116++900D 92 8D 8E 0D
 117++9011 31 36 2E 31    db "16.11.3326", 13
 117++9015 31 2E 33 33
 117++9019 32 36 0D
 118++901C 92 85 8C 80    db ": \" \"", 13
 118++9020 3A 20 22 8C
 118++9024 80 83 88 97
 118++9028 85 91 8A 88
 118++902C 89 20 98 80
 118++9030 90 22 0D
 119++9033 0D             db 13
 120++9034 20 20 20 20    db "       \"\" - \"\"", 13
 120++9038 20 20 20 22
 120++903C 96 85 90 81
 120++9040 85 90 22 20
 120++9044 2D 20 22 8F
 120++9048 85 90 82 8E
 120++904C 8C 93 22 0D
 121++9050 0D             db 13
 122++9051 8F E0 A8 20    db " 뢥 ꥪ N1 ''  㡨, "
 122++9055 AF E0 AE E0
 122++9059 EB A2 A5 20
 122++905D AE A1 EA A5
 122++9061 AA E2 A0 20
 122++9065 4E 31 20 27
 122++9069 96 A8 AA AB
 122++906D AE AF 27 20
 122++9071 A1 EB AB 20
 122++9075 E3 A1 A8 E2
 122++9079 2C 20
 123++907B A0 20 E1 A8    db " ⥬ 'ࠡ' ॢ  ०", 13
 123++907F E1 E2 A5 AC
 123++9083 A0 20 27 8A
 123++9087 A0 E0 A0 A1
 123++908B A0 E1 27 20
 123++908F AF A5 E0 A5
 123++9093 A2 A5 A4 A5
 123++9097 AD A0 20 A2
 123++909B 20 E0 A5 A6
 123++909F A8 AC 0D
 124++90A2 AB A8 AA A2    db "樨.   -153 (", 13
 124++90A6 A8 A4 A0 E6
 124++90AA A8 A8 2E 20
 124++90AE 8E A4 AD A0
 124++90B2 AA AE 20 AA
 124++90B6 AB AE AD 20
 124++90BA 88 90 2D 31
 124++90BE 35 33 20 28
 124++90C2 AC AE A4 A5
 124++90C6 AB EC 0D
 125++90C9 88 A2 A0 AD    db " ਭ) தঠ  ⪨", 13
 125++90CD 20 90 A5 A1
 125++90D1 E0 A8 AD 29
 125++90D5 20 AF E0 AE
 125++90D9 A4 A5 E0 A6
 125++90DD A0 AB E1 EF
 125++90E1 20 AF AE A4
 125++90E5 20 A6 A5 E1
 125++90E9 E2 AA A8 AC
 125++90ED 0D
 126++90EE A8 A7 AB E3    db "祭 ᪠  ௠", 13
 126++90F2 E7 A5 AD A8
 126++90F6 A5 AC 20 AC
 126++90FA A5 AD E2 AE
 126++90FE E1 AA A0 AD
 126++9102 A5 E0 A0 20
 126++9106 A4 AE 20 A8
 126++910A E1 E7 A5 E0
 126++910E AF A0 AD A8
 126++9112 EF 0D
 127++9114 E0 A5 E1 E3    db " ॠ, 易  ࡨ⠫- "
 127++9118 E0 E1 A0 20
 127++911C A1 A8 AE E0
 127++9120 A5 A0 AA E2
 127++9124 AE E0 A0 2C
 127++9128 20 E1 A2 EF
 127++912C A7 A0 AB E1
 127++9130 EF 20 E1 20
 127++9134 AE E0 A1 A8
 127++9138 E2 A0 AB EC
 127++913C 2D 20
 128++913E AD AE A9 20    db "   맢 ᯠ⥫.", 13
 128++9142 A1 A0 A7 AE
 128++9146 A9 20 A8 20
 128++914A A2 EB A7 A2
 128++914E A0 AB 20 E1
 128++9152 AF A0 E1 A0
 128++9156 E2 A5 AB A5
 128++915A A9 2E 0D
 129++915D 8B A0 A1 AE    db " 饭,  ঠ -"
 129++9161 E0 A0 E2 AE
 129++9165 E0 A8 EF 20
 129++9169 A7 A0 E7 A8
 129++916D E9 A5 AD A0
 129++9171 2C 20 AA AB
 129++9175 AE AD 20 A7
 129++9179 A0 A4 A5 E0
 129++917D A6 A0 AD 20
 129++9181 AA AE AC A0
 129++9185 AD 2D
 130++9187 A4 AE A9 20    db " 樨.", 13
 130++918B AB A8 AA A2
 130++918F A8 A4 A0 E6
 130++9193 A8 A8 2E 0D
 131++9197 0D             db 13
 132++9198 20 20 20 31    db "   12.10               \"\"", 13
 132++919C 32 2E 31 30
 132++91A0 20 20 20 20
 132++91A4 20 20 20 20
 132++91A8 20 20 20 20
 132++91AC 20 20 20 22
 132++91B0 96 85 90 81
 132++91B4 85 90 22 0D
 133++91B8 00             db _endByte
 134++91B9
 135++91B9              ; GAMEOVER_4_0:
 136++91B9              ;   db "7                       "
 137++91B9              ;   db "                        "
 138++91B9              ;   db "!                              "
 139++91B9              ;   db "15.11.3326                                "
 140++91B9              ;   db ": \" \"                    "
 141++91B9              ;   db "                                          "
 142++91B9              ;   db "       \"\" - \"\"               "
 143++91B9              ;   db "                                          "
 144++91B9              ;   db "  3.08   "
 145++91B9              ;   db "    N1,"
 146++91B9              ;   db "    "
 147++91B9              ;   db "     432-B."
 148++91B9              ;   db "  .            "
 149++91B9              ;   db "                                          "
 150++91B9              ;   db "   23.54               \"\"           "
 151++91B9              ;   db _endByte
 152++91B9
 153++91B9              GAMEOVER_4: ;  
 154++91B9 2D 2D 2D 2D    db "------------------------------------------"
 154++91BD 2D 2D 2D 2D
 154++91C1 2D 2D 2D 2D
 154++91C5 2D 2D 2D 2D
 154++91C9 2D 2D 2D 2D
 154++91CD 2D 2D 2D 2D
 154++91D1 2D 2D 2D 2D
 154++91D5 2D 2D 2D 2D
 154++91D9 2D 2D 2D 2D
 154++91DD 2D 2D 2D 2D
 154++91E1 2D 2D
 155++91E3 20 8A AE AD    db "  ", 13
 155++91E7 A5 E6 20 A8
 155++91EB A3 E0 EB 0D
 156++91EF 2D 2D 2D 2D    db "------------------------------------------"
 156++91F3 2D 2D 2D 2D
 156++91F7 2D 2D 2D 2D
 156++91FB 2D 2D 2D 2D
 156++91FF 2D 2D 2D 2D
 156++9203 2D 2D 2D 2D
 156++9207 2D 2D 2D 2D
 156++920B 2D 2D 2D 2D
 156++920F 2D 2D 2D 2D
 156++9213 2D 2D 2D 2D
 156++9217 2D 2D
 157++9219 93 A2 A8 A4    db " ५  﫮 ⨬,", 13
 157++921D A5 AD AD AE
 157++9221 A5 20 A7 E0
 157++9225 A5 AB A8 E9
 157++9229 A5 20 AD A5
 157++922D 20 A4 AE A1
 157++9231 A0 A2 AB EF
 157++9235 AB AE 20 AE
 157++9239 AF E2 A8 AC
 157++923D A8 A7 AC A0
 157++9241 2C 0D
 158++9243 AF AE ED E2    db "⮬   ⠫ 뢠 樮", 13
 158++9247 AE AC E3 20
 158++924B EF 20 AD A5
 158++924F 20 E1 E2 A0
 158++9253 AB 20 A2 EB
 158++9257 A7 EB A2 A0
 158++925B E2 EC 20 ED
 158++925F A2 A0 AA E3
 158++9263 A0 E6 A8 AE
 158++9267 AD AD E3 EE
 158++926B 0D
 159++926C AA AE AC A0    db ",   ࠧ஬ ", 13
 159++9270 AD A4 E3 2C
 159++9274 20 A0 20 AF
 159++9278 AE AA A8 AD
 159++927C E3 AB 20 E0
 159++9280 A0 A7 A3 E0
 159++9284 AE AC AB A5
 159++9288 AD AD E3 EE
 159++928C 20 A1 A0 A7
 159++9290 E3 0D
 160++9292 E1 A2 AE A8    db "᢮ 室.    ᬮ.. "
 160++9296 AC 20 E5 AE
 160++929A A4 AE AC 2E
 160++929E 20 84 AE A1
 160++92A2 E0 A0 E2 EC
 160++92A6 E1 EF 20 A1
 160++92AA EB 20 A4 AE
 160++92AE 20 AA AE E1
 160++92B2 AC AE AF AE
 160++92B6 E0 E2 A0 2E
 160++92BA 2E 20
 161++92BC 2D 2D 2D 2D    db "------------------------------------------"
 161++92C0 2D 2D 2D 2D
 161++92C4 2D 2D 2D 2D
 161++92C8 2D 2D 2D 2D
 161++92CC 2D 2D 2D 2D
 161++92D0 2D 2D 2D 2D
 161++92D4 2D 2D 2D 2D
 161++92D8 2D 2D 2D 2D
 161++92DC 2D 2D 2D 2D
 161++92E0 2D 2D 2D 2D
 161++92E4 2D 2D
 162++92E6 82 EB 20 AF    db " 諨 ! --!"
 162++92EA E0 AE E8 AB
 162++92EE A8 20 A8 A3
 162++92F2 E0 E3 21 20
 162++92F6 93 E0 A0 2D
 162++92FA E3 E0 A0 2D
 162++92FE E3 E0 A0 21
 163++9302 00             db _endByte
 164++9303
 165++9303              GAMEOVER_5: ;       
 166++9303 2D 2D 2D 2D    db "------------------------------------------"
 166++9307 2D 2D 2D 2D
 166++930B 2D 2D 2D 2D
 166++930F 2D 2D 2D 2D
 166++9313 2D 2D 2D 2D
 166++9317 2D 2D 2D 2D
 166++931B 2D 2D 2D 2D
 166++931F 2D 2D 2D 2D
 166++9323 2D 2D 2D 2D
 166++9327 2D 2D 2D 2D
 166++932B 2D 2D
 167++932D 20 8A AE AD    db "  ", 13
 167++9331 A5 E6 20 A8
 167++9335 A3 E0 EB 0D
 168++9339 2D 2D 2D 2D    db "------------------------------------------"
 168++933D 2D 2D 2D 2D
 168++9341 2D 2D 2D 2D
 168++9345 2D 2D 2D 2D
 168++9349 2D 2D 2D 2D
 168++934D 2D 2D 2D 2D
 168++9351 2D 2D 2D 2D
 168++9355 2D 2D 2D 2D
 168++9359 2D 2D 2D 2D
 168++935D 2D 2D 2D 2D
 168++9361 2D 2D
 169++9363 81 A5 A7 20    db " ।   ᫮⭮ ⬮  "
 169++9367 E1 E0 A5 A4
 169++936B E1 E2 A2 20
 169++936F A7 A0 E9 A8
 169++9373 E2 EB 20 A2
 169++9377 20 AA A8 E1
 169++937B AB AE E2 AD
 169++937F AE A9 20 A0
 169++9383 E2 AC AE E1
 169++9387 E4 A5 E0 A5
 169++938B 20 20
 170++938D AF AB A0 AD    db " ⢮  ..        "
 170++9391 A5 E2 EB 20
 170++9395 AF E0 AE E1
 170++9399 E3 E9 A5 E1
 170++939D E2 A2 AE A2
 170++93A1 A0 AB 20 EF
 170++93A5 20 AD A5 A4
 170++93A9 AE AB A3 AE
 170++93AD 2E 2E 20 20
 170++93B1 20 20 20 20
 170++93B5 20 20
 171++93B7 2D 2D 2D 2D    db "------------------------------------------"
 171++93BB 2D 2D 2D 2D
 171++93BF 2D 2D 2D 2D
 171++93C3 2D 2D 2D 2D
 171++93C7 2D 2D 2D 2D
 171++93CB 2D 2D 2D 2D
 171++93CF 2D 2D 2D 2D
 171++93D3 2D 2D 2D 2D
 171++93D7 2D 2D 2D 2D
 171++93DB 2D 2D 2D 2D
 171++93DF 2D 2D
 172++93E1 83 A5 E0 AE    db "ன , ⠪  稫."
 172++93E5 A9 20 AF AE
 172++93E9 A3 A8 A1 2C
 172++93ED 20 E2 A0 AA
 172++93F1 20 E3 A6 20
 172++93F5 AF AE AB E3
 172++93F9 E7 A8 AB AE
 172++93FD E1 EC 2E
 173++9400 00             db _endByte
 174++9401
 175++9401              PRIVATE_HELP:
 176++9401 8F E0 AE A3    db "ணࠬ ᫥. ⭮.", 13
 176++9405 E0 A0 AC AC
 176++9409 A0 20 A8 E1
 176++940D E1 AB A5 A4
 176++9411 AE A2 A0 AD
 176++9415 A8 A9 2E 20
 176++9419 91 A5 AA E0
 176++941D A5 E2 AD AE
 176++9421 2E 0D
 177++9423 2D 2D 2D 2D    db "------------------------------------------"
 177++9427 2D 2D 2D 2D
 177++942B 2D 2D 2D 2D
 177++942F 2D 2D 2D 2D
 177++9433 2D 2D 2D 2D
 177++9437 2D 2D 2D 2D
 177++943B 2D 2D 2D 2D
 177++943F 2D 2D 2D 2D
 177++9443 2D 2D 2D 2D
 177++9447 2D 2D 2D 2D
 177++944B 2D 2D
 178++944D 2E 2E 8F AE    db "..-,ॡ뢠   MURK "
 178++9451 2D A2 A8 A4
 178++9455 A8 AC AE AC
 178++9459 E3 2C AF E0
 178++945D A5 A1 EB A2
 178++9461 A0 AD A8 A5
 178++9465 20 AD A0 20
 178++9469 AF AB A0 AD
 178++946D A5 E2 A5 20
 178++9471 4D 55 52 4B
 178++9475 20 A8
 179++9477 AA AE AD E2    db "⠪  ࠭ ਢ  "
 179++947B A0 AA E2 20
 179++947F E1 AE 20 91
 179++9483 E2 E0 A0 AD
 179++9487 AD A8 AA AE
 179++948B AC 20 AF E0
 179++948F A8 A2 A5 AB
 179++9493 A8 20 AA 20
 179++9497 A8 A7 AC A5
 179++949B AD A5 AD A8
 179++949F EF AC
 180++94A1 A2 20 A3 A5    db "  ਠ  ꥪ N1..", 13
 180++94A5 AD AD AE AC
 180++94A9 20 AC A0 E2
 180++94AD A5 E0 A8 A0
 180++94B1 AB A5 20 E3
 180++94B5 20 AE A1 EA
 180++94B9 A5 AA E2 A0
 180++94BD 20 4E 31 2E
 180++94C1 2E 0D
 181++94C3 2E 2E 88 E1    db "..᫥ ⠪ 뢠 'Z-஬ᮬ"
 181++94C7 E1 AB A5 A4
 181++94CB AE A2 A0 AD
 181++94CF A8 EF 20 E2
 181++94D3 A0 AA 20 AD
 181++94D7 A0 A7 EB A2
 181++94DB A0 A5 AC AE
 181++94DF A9 20 27 5A
 181++94E3 2D E5 E0 AE
 181++94E7 AC AE E1 AE
 181++94EB AC EB
 182++94ED 91 E2 E0 A0    db "࠭'  .."
 182++94F1 AD AD A8 AA
 182++94F5 AE A2 27 20
 182++94F9 AF AE A7 A2
 182++94FD AE AB EF E2
 182++9501 20 AD A0 AC
 182++9505 2E 2E
 183++9507                ; db "..    -  "
 184++9507                ; db "     .. "
 185++9507 00             db _endByte
 186++9508
 187++9508              ALARM_HELP:
 188++9508 87 A0 AF E3    db " ਩ ⮪", 13
 188++950C E1 AA 20 A0
 188++9510 A2 A0 E0 A8
 188++9514 A9 AD AE A3
 188++9518 AE 20 AF E0
 188++951C AE E2 AE AA
 188++9520 AE AB A0 0D
 189++9524 2D 2D 2D 2D    db "------------------------------------------"
 189++9528 2D 2D 2D 2D
 189++952C 2D 2D 2D 2D
 189++9530 2D 2D 2D 2D
 189++9534 2D 2D 2D 2D
 189++9538 2D 2D 2D 2D
 189++953C 2D 2D 2D 2D
 189++9540 2D 2D 2D 2D
 189++9544 2D 2D 2D 2D
 189++9548 2D 2D 2D 2D
 189++954C 2D 2D
 190++954E 2E 2E AE E2    db ".. ᥩ ᮭ쭮 -⮩,", 13
 190++9552 AA E0 EB E2
 190++9556 EC 20 E1 A5
 190++955A A9 E4 20 AF
 190++955E A5 E0 E1 AE
 190++9562 AD A0 AB EC
 190++9566 AD AE A9 20
 190++956A AA AB EE E7
 190++956E 2D AA A0 E0
 190++9572 E2 AE A9 2C
 190++9576 0D
 191++9577 A2 A7 EF E2    db "    ਩묨 ,"
 191++957B EC 20 AA E0
 191++957F A0 E1 AD EB
 191++9583 A9 20 AA AE
 191++9587 AD A2 A5 E0
 191++958B E2 20 E1 20
 191++958F A0 A2 A0 E0
 191++9593 A8 A9 AD EB
 191++9597 AC A8 20 AA
 191++959B AE A4 A0 AC
 191++959F A8 2C
 192++95A1 A2 A2 A5 E1    db "  ᪠  ନ  -"
 192++95A5 E2 A8 20 AA
 192++95A9 AE A4 EB 20
 192++95AD A7 A0 AF E3
 192++95B1 E1 AA A0 20
 192++95B5 AD A0 20 E2
 192++95B9 A5 E0 AC A8
 192++95BD AD A0 AB A5
 192++95C1 20 A2 20 AA
 192++95C5 A0 A1 A8 AD
 192++95C9 A5 2D
 193++95CB E2 A5 20 E1    db " ᮢ頭.."
 193++95CF AE A2 A5 E9
 193++95D3 A0 AD A8 A9
 193++95D7 2E 2E
 194++95D9 00             db _endByte
 195++95DA
 196++95DA              GENETIC_HELP:
 197++95DA 83 A5 AD A5    db "᪨ ࠢ筨", 13
 197++95DE E2 A8 E7 A5
 197++95E2 E1 AA A8 A9
 197++95E6 20 E1 AF E0
 197++95EA A0 A2 AE E7
 197++95EE AD A8 AA 0D
 198++95F2 2D 2D 2D 2D    db "------------------------------------------"
 198++95F6 2D 2D 2D 2D
 198++95FA 2D 2D 2D 2D
 198++95FE 2D 2D 2D 2D
 198++9602 2D 2D 2D 2D
 198++9606 2D 2D 2D 2D
 198++960A 2D 2D 2D 2D
 198++960E 2D 2D 2D 2D
 198++9612 2D 2D 2D 2D
 198++9616 2D 2D 2D 2D
 198++961A 2D 2D
 199++961C 2E 2E 5A 2D    db "..Z-஭  ஫ , ন- "
 199++9620 A8 AD E2 E0
 199++9624 AE AD EB 20
 199++9628 A8 A3 E0 A0
 199++962C EE E2 20 E0
 199++9630 AE AB EC 20
 199++9634 A1 E3 E4 A5
 199++9638 E0 A0 2C 20
 199++963C AF AE A4 A4
 199++9640 A5 E0 A6 A8
 199++9644 2D 20
 200++9646 A2 A0 EE E9    db "饣 । ஢ ᯨࠫ樨 "
 200++964A A5 A3 AE 20
 200++964E AE AF E0 A5
 200++9652 A4 A5 AB A5
 200++9656 AD AD EB A9
 200++965A 20 E3 E0 AE
 200++965E A2 A5 AD EC
 200++9662 20 E1 AF A8
 200++9666 E0 A0 AB A8
 200++966A A7 A0 E6 A8
 200++966E A8 20
 201++9670 84 8D 8A 20    db "   ⨢ ࠭ਡ㥬 -"
 201++9674 A2 20 A7 AE
 201++9678 AD A0 E5 20
 201++967C A0 AA E2 A8
 201++9680 A2 AD AE 20
 201++9684 E2 E0 A0 AD
 201++9688 E1 AA E0 A8
 201++968C A1 A8 E0 E3
 201++9690 A5 AC EB E5
 201++9694 20 AB AE AA
 201++9698 E3 2D
 202++969A E1 AE A2 2E    db "ᮢ.."
 202++969E 2E
 203++969F 00             db _endByte
 204++96A0
 205++96A0              BIOTESLA_HELP:
 206++96A0 8D A0 E1 E2    db "ன  㦨 ॠ", 13
 206++96A4 E0 AE A9 AA
 206++96A8 A0 20 A8 20
 206++96AC AE A1 E1 AB
 206++96B0 E3 A6 A8 A2
 206++96B4 A0 AD A8 A5
 206++96B8 20 A1 A8 AE
 206++96BC E0 A5 A0 AA
 206++96C0 E2 AE E0 A0
 206++96C4 0D
 207++96C5 2D 2D 2D 2D    db "------------------------------------------"
 207++96C9 2D 2D 2D 2D
 207++96CD 2D 2D 2D 2D
 207++96D1 2D 2D 2D 2D
 207++96D5 2D 2D 2D 2D
 207++96D9 2D 2D 2D 2D
 207++96DD 2D 2D 2D 2D
 207++96E1 2D 2D 2D 2D
 207++96E5 2D 2D 2D 2D
 207++96E9 2D 2D 2D 2D
 207++96ED 2D 2D
 208++96EF                ; db "..    "
 209++96EF                ; db "      "
 210++96EF                ; db "   .."
 211++96EF                ; db "                                          "
 212++96EF 2E 2E 84 AB    db ".. ᪠ 横 ந⢠ ࣨ", 13
 212++96F3 EF 20 A7 A0
 212++96F7 AF E3 E1 AA
 212++96FB A0 20 E6 A8
 212++96FF AA AB A0 20
 212++9703 AF E0 AE A8
 212++9707 A7 A2 AE A4
 212++970B E1 E2 A2 A0
 212++970F 20 ED AD A5
 212++9713 E0 A3 A8 A8
 212++9717 0D
 213++9718 AD A5 AE A1    db "室   6 ⥩஢..", 13
 213++971C E5 AE A4 A8
 213++9720 AC AE 20 AD
 213++9724 A5 20 AC A5
 213++9728 AD A5 A5 20
 213++972C 36 20 A1 A8
 213++9730 AE AA AE AD
 213++9734 E2 A5 A9 AD
 213++9738 A5 E0 AE A2
 213++973C 2E 2E 0D
 214++973F 0D             db 13
 215++9740 2E 2E 81 A8    db "..⥩  ࠢ  -"
 215++9744 AE AA AE AD
 215++9748 E2 A5 A9 AD
 215++974C A5 E0 20 AC
 215++9750 AE A6 AD AE
 215++9754 20 A7 A0 AF
 215++9758 E0 A0 A2 AB
 215++975C EF E2 EC 20
 215++9760 AA A0 AA 20
 215++9764 E0 A0 E1 E2
 215++9768 A8 2D
 216++976A E2 A5 AB EC    db "⥫,⠪   ਠ. ।", 13
 216++976E AD EB AC 2C
 216++9772 E2 A0 AA 20
 216++9776 A8 20 A6 A8
 216++977A A2 AE E2 AD
 216++977E EB AC 20 AC
 216++9782 A0 E2 A5 E0
 216++9786 A8 A0 AB AE
 216++978A AC 2E 20 8F
 216++978E A5 E0 A5 A4
 216++9792 0D
 217++9793 A7 A0 AF E0    db "ࠢ ਠ ᫥  ", 13
 217++9797 A0 A2 AA AE
 217++979B A9 20 AC A0
 217++979F E2 A5 E0 A8
 217++97A3 A0 AB 20 E1
 217++97A7 AB A5 A4 E3
 217++97AB A5 E2 20 A8
 217++97AF A7 AC A5 AB
 217++97B3 EC E7 A8 E2
 217++97B7 EC 20 A4 AE
 217++97BB 0D
 218++97BC AF E0 A8 A5    db "ਥ ࠧ஢,⮡  窨", 13
 218++97C0 AC AB A5 AC
 218++97C4 EB E5 20 E0
 218++97C8 A0 A7 AC A5
 218++97CC E0 AE A2 2C
 218++97D0 E7 E2 AE A1
 218++97D4 EB 20 A5 A3
 218++97D8 AE 20 E7 A0
 218++97DC E1 E2 A8 E7
 218++97E0 AA A8 0D
 219++97E3 AF E0 AE E8    db "諨   १ -ᡮ୨", 13
 219++97E7 AB A8 20 A1
 219++97EB A5 A7 20 AF
 219++97EF AE AC A5 E5
 219++97F3 20 E7 A5 E0
 219++97F7 A5 A7 20 A2
 219++97FB A0 AA E3 E3
 219++97FF AC 2D E1 A1
 219++9803 AE E0 AD A8
 219++9807 AA 0D
 220++9809 A1 A8 AE AA    db "⥩.."
 220++980D AE AD E2 A5
 220++9811 A9 AD A5 E0
 220++9815 A0 2E 2E
 221++9818 00             db _endByte
 222++9819
 223++9819              GAMEOVER_4_0:
 224++9819 37 89 20 8E    db "7  ", 13
 224++981D 92 84 85 8B
 224++9821 20 91 8F 85
 224++9825 96 8E 8F 85
 224++9829 90 80 96 88
 224++982D 89 0D
 225++982F 91 8E 82 85    db " ", 13
 225++9833 90 98 85 8D
 225++9837 8D 8E 20 91
 225++983B 85 8A 90 85
 225++983F 92 8D 8E 0D
 226++9843 31 36 2E 31    db "16.11.3326", 13
 226++9847 31 2E 33 33
 226++984B 32 36 0D
 227++984E 92 85 8C 80    db ": \" \"", 13
 227++9852 3A 20 22 8C
 227++9856 80 83 88 97
 227++985A 85 91 8A 88
 227++985E 89 20 98 80
 227++9862 90 22 0D
 228++9865 0D             db 13
 229++9866 20 20 20 20    db "       \"\" - \"\"", 13
 229++986A 20 20 20 22
 229++986E 96 85 90 81
 229++9872 85 90 22 20
 229++9876 2D 20 22 8F
 229++987A 85 90 82 8E
 229++987E 8C 93 22 0D
 230++9882 0D             db 13
 231++9883 2E 2E AC AE    db ".. ⥬ 'ࠡ' , ⥬"
 231++9887 A4 E3 AB EC
 231++988B 20 E1 A8 E1
 231++988F E2 A5 AC EB
 231++9893 20 27 8A A0
 231++9897 E0 A0 A1 A0
 231++989B E1 27 20 A2
 231++989F E1 AA E0 EB
 231++98A3 E2 2C 20 E1
 231++98A7 A8 E1 E2 A5
 231++98AB AC A0
 232++98AD AF A5 E0 A5    db "ॢ  ० 樨 ᮭ,", 13
 232++98B1 A2 A5 A4 A5
 232++98B5 AD A0 20 A2
 232++98B9 20 E0 A5 A6
 232++98BD A8 AC 20 AB
 232++98C1 A8 AA A2 A8
 232++98C5 A4 A0 E6 A8
 232++98C9 A8 20 AF A5
 232++98CD E0 E1 AE AD
 232++98D1 A0 AB A0 2C
 232++98D5 0D
 233++98D6 27 96 A8 AA    db "'' 㡨,  ꥪ N1", 13
 233++98DA AB AE AF 27
 233++98DE 20 E3 A1 A8
 233++98E2 E2 2C 20 A0
 233++98E6 AD A0 A1 A8
 233++98EA AE AA A0 AC
 233++98EE A5 E0 A0 20
 233++98F2 AE A1 EA A5
 233++98F6 AA E2 A0 20
 233++98FA 4E 31 0D
 234++98FD AF E3 E1 E2    db "..", 13
 234++9901 A0 2E 2E 0D
 235++9905 0D             db 13
 236++9906 20 2E 2E AA    db " .. -12,-115,-123 㡨 -"
 236++990A AB AE AD EB
 236++990E 20 95 85 2D
 236++9912 31 32 2C 83
 236++9916 85 2D 31 31
 236++991A 35 2C 97 8F
 236++991E 2D 31 32 33
 236++9922 20 E3 A1 A8
 236++9926 E2 EB 20 A2
 236++992A EB E1 E2 E0
 236++992E A5 2D
 237++9930 AB A0 AC A8    db "  ࣥ᪮ ⮫ '- "
 237++9934 20 A8 A7 20
 237++9938 ED AD A5 E0
 237++993C A3 A5 E2 A8
 237++9940 E7 A5 E1 AA
 237++9944 AE A3 AE 20
 237++9948 AF A8 E1 E2
 237++994C AE AB A5 E2
 237++9950 A0 20 27 96
 237++9954 A8 AA AB AE
 237++9958 2D 20
 238++995A AF A0 27 2C    db "', -118 㭨⮦ 祭 ⥬", 13
 238++995E 20 8F 97 2D
 238++9962 31 31 38 20
 238++9966 E3 AD A8 E7
 238++996A E2 AE A6 A5
 238++996E AD 20 A8 A7
 238++9972 AB E3 E7 A5
 238++9976 AD A8 A5 AC
 238++997A 20 E1 A8 E1
 238++997E E2 A5 AC EB
 238++9982 0D
 239++9983 27 8A A0 E0    db "'ࠡ'..", 13
 239++9987 A0 A1 A0 E1
 239++998B 27 2E 2E 0D
 240++998F 0D             db 13
 241++9990 20 2E 2E AA    db " .. -153 뤥ঠ த⥫쭮", 13
 241++9994 AB AE AD 20
 241++9998 88 90 2D 31
 241++999C 35 33 20 A2
 241++99A0 EB A4 A5 E0
 241++99A4 A6 A0 AB 20
 241++99A8 AF E0 AE A4
 241++99AC AE AB A6 A8
 241++99B0 E2 A5 AB EC
 241++99B4 AD AE A5 0D
 242++99B8 A6 A5 E1 E2    db "⪮ 祭 ᪠  ", 13
 242++99BC AA AE A5 20
 242++99C0 A8 A7 AB E3
 242++99C4 E7 A5 AD A8
 242++99C8 A5 20 AC A5
 242++99CC AD E2 AE E1
 242++99D0 AA A0 AD A5
 242++99D4 E0 A0 20 A2
 242++99D8 AF AB AE E2
 242++99DC EC 20 A4 AE
 242++99E0 0D
 243++99E1 A2 EB E0 A0    db "ࠡ⪨ ॠ஬ ᢮ ,", 13
 243++99E5 A1 AE E2 AA
 243++99E9 A8 20 A1 A8
 243++99ED AE E0 A5 A0
 243++99F1 AA E2 AE E0
 243++99F5 AE AC 20 E1
 243++99F9 A2 AE A5 A3
 243++99FD AE 20 E0 A5
 243++9A01 E1 E3 E0 E1
 243++9A05 A0 2C 0D
 244++9A08 AF E0 AE AD    db "஭   'ࠡ'   ", 13
 244++9A0C A8 AA 20 A2
 244++9A10 20 AC AE A4
 244++9A14 E3 AB EC 20
 244++9A18 27 8A A0 E0
 244++9A1C A0 A1 A0 E1
 244++9A20 27 20 A8 20
 244++9A24 E1 AA E0 EB
 244++9A28 AB E1 EF 20
 244++9A2C A2 0D
 245++9A2E A4 A6 E3 AD    db "㭣  殮 ᪠䠭,", 13
 245++9A32 A3 AB EF E5
 245++9A36 20 A2 20 E2
 245++9A3A EF A6 A5 AB
 245++9A3E AE AC 20 E1
 245++9A42 AA A0 E4 A0
 245++9A46 AD A4 E0 A5
 245++9A4A 2C A2 A5 A4
 245++9A4E A5 E2 E1 EF
 245++9A52 0D
 246++9A53 AF AE A8 E1    db ".."
 246++9A57 AA 2E 2E
 247++9A5A 00             db _endByte
 248++9A5B
 249++9A5B                ;  
 250++9A5B                ;  
 251++9A5B                ;  
 252++9A5B                ;  
 253++9A5B
 254++9A5B              ; Base_energy_off:
 255++9A5B              ; db "     ,   "
 256++9A5B              ; db "      -    "
 257++9A5B              ; db " . ",0
 258++9A5B
 259++9A5B              Base_energy_on:
 260++9A5B 9F 20 A2 E1    db " ⠢ ᫥ ⥩  蠫"
 260++9A5F E2 A0 A2 A8
 260++9A63 AB 20 AF AE
 260++9A67 E1 AB A5 A4
 260++9A6B AD A8 A9 20
 260++9A6F A1 A8 AE AA
 260++9A73 AE AD E2 A5
 260++9A77 A9 AD A5 E0
 260++9A7B 20 A8 20 E3
 260++9A7F E1 AB EB E8
 260++9A83 A0 AB
 261++9A85 AA A0 AA 20    db " 㤥 ॠ..",0
 261++9A89 A7 A0 A3 E3
 261++9A8D A4 A5 AB 20
 261++9A91 A1 A8 AE E0
 261++9A95 A5 A0 AA E2
 261++9A99 AE E0 2E 2E
 261++9A9D 00
 262++9A9E
 263++9A9E              Energy_monitor_show:
 264++9A9E 9D AD A5 E0    db "࣮ᯥ祭 : 100%",0
 264++9AA2 A3 AE AE A1
 264++9AA6 A5 E1 AF A5
 264++9AAA E7 A5 AD AD
 264++9AAE AE E1 E2 EC
 264++9AB2 20 A1 A0 A7
 264++9AB6 EB 3A 20 31
 264++9ABA 30 30 25 00
 265++9ABE
 266++9ABE              Tambur_open:
 267++9ABE 98 AB EE A7    db " ",0
 267++9AC2 20 AE E2 AA
 267++9AC6 E0 EB E2 00
 268++9ACA
 269++9ACA              Tambur_close:
 270++9ACA 98 AB EE A7    db " ",0
 270++9ACE 20 A7 A0 AA
 270++9AD2 E0 EB E2 00
 271++9AD6
 272++9AD6              CALL_HELP_NO_CODE:
 273++9AD6 9D E2 AE 20    db "  ਩ ନ,      "
 273++9ADA A1 EB AB 20
 273++9ADE A0 A2 A0 E0
 273++9AE2 A8 A9 AD EB
 273++9AE6 A9 20 E2 A5
 273++9AEA E0 AC A8 AD
 273++9AEE A0 AB 2C 20
 273++9AF2 AD AE 20 EF
 273++9AF6 20 AD A5 20
 273++9AFA A7 AD A0 AB
 273++9AFE 20 20
 274++9B00 AA AE A4 EB    db " ᪠ ⮪ 樨.."
 274++9B04 20 A7 A0 AF
 274++9B08 E3 E1 AA A0
 274++9B0C 20 AF E0 AE
 274++9B10 E2 AE AA AE
 274++9B14 AB A0 20 ED
 274++9B18 A2 A0 AA E3
 274++9B1C A0 E6 A8 A8
 274++9B20 2E 2E
 275++9B22 00             db _endByte
 276++9B23
 277++9B23              NO_WAY_SCAF:
 278++9B23 9F 20 AD A5    db "  ᪭ 室   ᪠䠭  "
 278++9B27 20 E0 A8 E1
 278++9B2B AA AD E3 AB
 278++9B2F 20 AE E2 E5
 278++9B33 AE A4 A8 E2
 278++9B37 EC 20 A2 20
 278++9B3B AB A5 A3 AA
 278++9B3F AE AC 20 E1
 278++9B43 AA A0 E4 A0
 278++9B47 AD A4 E0 A5
 278++9B4B 20 20
 279++9B4D E1 AB A8 E8    db "᫨誮   .."
 279++9B51 AA AE AC 20
 279++9B55 A4 A0 AB A5
 279++9B59 AA AE 20 AE
 279++9B5D E2 20 A1 A0
 279++9B61 A7 EB 2E 2E
 280++9B65 00             db _endByte
 281++9B66
 282++9B66              SHOW_SIREN:
 283++9B66 8F E0 AE A7    db "஧砫 ।।⥫쭠 ७    "
 283++9B6A A2 E3 E7 A0
 283++9B6E AB A0 20 AF
 283++9B72 E0 A5 A4 E3
 283++9B76 AF E0 A5 A4
 283++9B7A A8 E2 A5 AB
 283++9B7E EC AD A0 EF
 283++9B82 20 E1 A8 E0
 283++9B86 A5 AD A0 20
 283++9B8A A8 20 AF AE
 283++9B8E 20 20
 284++9B90 A2 E1 A5 A9    db "ᥩ  ⪫稫 ⢮.."
 284++9B94 20 A1 A0 A7
 284++9B98 A5 20 AE E2
 284++9B9C AA AB EE E7
 284++9BA0 A8 AB AE E1
 284++9BA4 EC 20 ED AB
 284++9BA8 A5 AA E2 E0
 284++9BAC A8 E7 A5 E1
 284++9BB0 E2 A2 AE 2E
 284++9BB4 2E
 285++9BB5 00             db _endByte
 286++9BB6
 287++9BB6              FOUND_ALERT_CODE:
 288++9BB6 91 A5 A9 E4    db " .     ⠫  "
 288++9BBA 20 AE E2 AA
 288++9BBE E0 EB AB E1
 288++9BC2 EF 2E 20 9F
 288++9BC6 20 A2 A7 EF
 288++9BCA AB 20 AA AE
 288++9BCE AD A2 A5 E0
 288++9BD2 E2 20 A8 20
 288++9BD6 AF E0 AE E7
 288++9BDA A8 E2 A0 AB
 288++9BDE 20 20
 289++9BE0 A2 20 AD A5    db "   ᪠ ਩ ⮪.."
 289++9BE4 AC 20 AA AE
 289++9BE8 A4 20 A7 A0
 289++9BEC AF E3 E1 AA
 289++9BF0 A0 20 A0 A2
 289++9BF4 A0 E0 A8 A9
 289++9BF8 AD AE A3 AE
 289++9BFC 20 AF E0 AE
 289++9C00 E2 AE AA AE
 289++9C04 AB A0 2E 2E
 290++9C08 00             db _endByte
 291++9C09
 292++9C09              CELL_TYPE_NAMES:
 293++9C09 20 00        Empty_cell_name: db " ",0
 294++9C0B 8F AB A8 E2  Floor_cell_name: db "⪠",0
 294++9C0F AA A0 00
 295++9C12 92 A5 E0 AC  Computer_cell_name: db "ନ",0
 295++9C16 A8 AD A0 AB
 295++9C1A 00
 296++9C1B 90 A0 A7 A1  Computer_break_cell_name: db " ନ",0
 296++9C1F A8 E2 EB A9
 296++9C23 20 E2 A5 E0
 296++9C27 AC A8 AD A0
 296++9C2B AB 00
 297++9C2D
 298++9C2D 84 A2 A5 E0  Door_cell_name: db "",0
 298++9C31 EC 00
 299++9C33 98 AB EE A7  DoorHard_cell_name: db " ",0
 299++9C37 AE A2 A0 EF
 299++9C3B 20 A4 A2 A5
 299++9C3F E0 EC 00
 300++9C42 92 EF A6 A5  Wall_cell_name: db "殮 ஭",0
 300++9C46 AB A0 EF 20
 300++9C4A A1 E0 AE AD
 300++9C4E A5 AF AB A8
 300++9C52 E2 A0 00
 301++9C55              ; Ballon_cell_name: db "",0
 302++9C55 8A E0 AE A2  Bed_cell_name: db "஢",0
 302++9C59 A0 E2 EC 00
 303++9C5D 8C A5 AB AA  Trash_cell_name: db "   ",0
 303++9C61 A8 A5 20 AE
 303++9C65 A1 AB AE AC
 303++9C69 AA A8 20 A8
 303++9C6D 20 AC E3 E1
 303++9C71 AE E0 00
 304++9C74
 305++9C74 8C EF A3 AA  Soft_wall_name: db " ⨢ ⥭",0
 305++9C78 A0 EF 20 A4
 305++9C7C A5 AA AE E0
 305++9C80 A0 E2 A8 A2
 305++9C84 AD A0 EF 20
 305++9C88 E1 E2 A5 AD
 305++9C8C A0 00
 306++9C8E
 307++9C8E 8E E1 E2 E0  Shard_item_name: db " ⨪ ",0
 307++9C92 EB A9 20 AF
 307++9C96 AB A0 E1 E2
 307++9C9A A8 AA AE A2
 307++9C9E EB A9 20 AE
 307++9CA2 A1 AB AE AC
 307++9CA6 AE AA 00
 308++9CA9 91 E2 E3 AB  Chair_item_name: db "",0
 308++9CAD 00
 309++9CAE
 310++9CAE              ; 
 311++9CAE 8A AB AE AD  player_name1: db " \" \"", 0
 311++9CB2 20 22 95 A0
 311++9CB6 A4 A6 A8 A5
 311++9CBA A2 20 85 AC
 311++9CBE A8 AB 22 00
 312++9CC2              ; 
 313++9CC2 8A AB AE AD  player_name2: db " \"࠭ \"", 0
 313++9CC6 20 22 83 AE
 313++9CCA E0 A0 AD AE
 313++9CCE A2 20 85 AD
 313++9CD2 E7 AE 22 00
 314++9CD6              ; 
 315++9CD6 8A AB AE AD  player_name3: db " \"஢ \"", 0
 315++9CDA 20 22 97 A0
 315++9CDE AA EA E0 AE
 315++9CE2 A2 20 8F A5
 315++9CE6 E2 EC E0 22
 315++9CEA 00
 316++9CEB              ; 
 317++9CEB 8A AB AE AD  player_name4: db " \" ਭ\"", 0
 317++9CEF 20 22 88 A2
 317++9CF3 A0 AD 20 90
 317++9CF7 A5 A1 E0 A8
 317++9CFB AD 22 00
 318++9CFE              ; 
 319++9CFE 8A AB AE AD  player_name5: db " \"祢 ⪮\"", 0
 319++9D02 20 22 8F A0
 319++9D06 AD E7 A5 A2
 319++9D0A 20 87 AB A0
 319++9D0E E2 AA AE 22
 319++9D12 00
 320++9D13
 321++9D13 9D AB A5 AA  Electronic_cell_name: db "஭  ࠢ",0
 321++9D17 E2 E0 AE AD
 321++9D1B AD EB A9 20
 321++9D1F A1 AB AE AA
 321++9D23 20 E3 AF E0
 321++9D27 A0 A2 AB A5
 321++9D2B AD A8 EF 00
 322++9D2F 91 AB AE AC  Electronic_break_name: db " ஭", 0
 322++9D33 A0 AD AD A0
 322++9D37 EF 20 ED AB
 322++9D3B A5 AA E2 E0
 322++9D3F AE AD A8 AA
 322++9D43 A0 00
 323++9D45
 324++9D45              Not_get_plant:
 325++9D45 90 A0 E1 E2    db "⥭  ஫  -ᡮ୨",13
 325++9D49 A5 AD A8 A5
 325++9D4D 20 AD A5 20
 325++9D51 AF E0 AE AB
 325++9D55 A5 A7 A0 AB
 325++9D59 AE 20 A2 20
 325++9D5D A2 A0 AA E3
 325++9D61 E3 AC 2D E1
 325++9D65 A1 AE E0 AD
 325++9D69 A8 AA 0D
 326++9D6C A1 A8 AE AA    db "⥩", 0
 326++9D70 AE AD E2 A5
 326++9D74 A9 AD A5 E0
 326++9D78 A0 00
 327++9D7A
 328++9D7A              Not_get_body:
 329++9D7A 92 A5 AB AE    db "  ஫  -ᡮ୨",13
 329++9D7E 20 AD A5 20
 329++9D82 AF E0 AE AB
 329++9D86 A5 A7 A0 AB
 329++9D8A AE 20 A2 20
 329++9D8E A2 A0 AA E3
 329++9D92 E3 AC 2D E1
 329++9D96 A1 AE E0 AD
 329++9D9A A8 AA 0D
 330++9D9D A1 A8 AE AA    db "⥩", 0
 330++9DA1 AE AD E2 A5
 330++9DA5 A9 AD A5 E0
 330++9DA9 A0 00
 331++9DAB
 332++9DAB              Canister_fill:
 333++9DAB 82 A0 AA E3    db "-ᡮ୨ ᠫ   ",13
 333++9DAF E3 AC 2D E1
 333++9DB3 A1 AE E0 AD
 333++9DB7 A8 AA 20 A7
 333++9DBB A0 E1 AE E1
 333++9DBF A0 AB 20 A1
 333++9DC3 A8 AE AC A0
 333++9DC7 E1 E1 E3 20
 333++9DCB A8 20 0D
 334++9DCE AA AE AD E2    db "⥩ ",0
 334++9DD2 A5 A9 AD A5
 334++9DD6 E0 20 AD A0
 334++9DDA AF AE AB AD
 334++9DDE A8 AB E1 EF
 334++9DE2 00
 335++9DE3
 336++9DE3 92 E0 A0 A2  Grass_cell_name: db "ࠢ", 0
 336++9DE7 A0 00
 337++9DE9 8A E3 E1 E2  Bush_cell_name: db "୨", 0
 337++9DED A0 E0 AD A8
 337++9DF1 AA 00
 338++9DF3 90 A0 E1 E2  PlantPot_cell_name: db "⥭  誥", 0
 338++9DF7 A5 AD A8 A5
 338++9DFB 20 A2 20 A3
 338++9DFF AE E0 E8 AA
 338++9E03 A5 00
 339++9E05 83 E0 A0 A2  Gravel_cell_name: db "ࠢ", 0
 339++9E09 A8 A9 00
 340++9E0C 8F A5 E1 AE  Sand_cell_name: db "᮪", 0
 340++9E10 AA 00
 341++9E12 82 AC EF E2  CraterSmall_cell_name: db "⨭  ", 0
 341++9E16 A8 AD A0 20
 341++9E1A AD A0 20 A7
 341++9E1E A5 AC AB A5
 341++9E22 00
 342++9E23 8F AE E1 A0  AirLand_cell_name: db "ᠤ筠 頤", 0
 342++9E27 A4 AE E7 AD
 342++9E2B A0 EF 20 AF
 342++9E2F AB AE E9 A0
 342++9E33 A4 AA A0 00
 343++9E37 8D A0 A2 A8  NavLight_cell_name: db "樮 ", 0
 343++9E3B A3 A0 E6 A8
 343++9E3F AE AD AD EB
 343++9E43 A5 20 AE A3
 343++9E47 AD A8 00
 344++9E4A 8B E3 A6 A8  Acid_cell_name: db "㦨 ᫮⭮ ᮪", 0
 344++9E4E E6 A0 20 AA
 344++9E52 A8 E1 AB AE
 344++9E56 E2 AD AE A3
 344++9E5A AE 20 E1 AE
 344++9E5E AA A0 00
 345++9E61
 346++9E61              ; Toilet_cell_name: db "",0
 347++9E61              ; Sink_cell_name: db "",0
 348++9E61 91 E2 AE AB  Table_cell_name: db "⮫", 0
 348++9E65 00
 349++9E66 8A A5 E0 A0  Keramit_cell_name: db "ࠬ", 0
 349++9E6A AC A8 E2 00
 350++9E6E
 351++9E6E
 352++9E6E              ; Locker_cell_name: db "", 0
 353++9E6E 91 A5 A9 E4  Safe_cell_name: db "", 0
 353++9E72 00
 354++9E73              Safe_try_hit_mess:
 355++9E73 8D A0 20 E1    db " ᥩ  ⨭  ⠫...", 0
 355++9E77 A5 A9 E4 A5
 355++9E7B 20 A4 A0 A6
 355++9E7F A5 20 A2 AC
 355++9E83 EF E2 A8 AD
 355++9E87 EB 20 AD A5
 355++9E8B 20 AE E1 E2
 355++9E8F A0 AB AE E1
 355++9E93 EC 2E 2E 2E
 355++9E97 00
 356++9E98
 357++9E98              ; TODO:
 358++9E98              ;           ,
 359++9E98              ;      .        
 360++9E98
 361++9E98              ;    ( )
 362++9E98
 363++9E98              ; fixed :
 364++9E98              ;   -  ,     .   , .
 365++9E98              ; :             
 366++9E98              ;  -
 367++9E98              ;  - 
 368++9E98              ; -  ( )
 369++9E98              ;   ( )
 370++9E98              ;   ( )
 371++9E98              ;   ( )
 372++9E98              ;    ( )
 373++9E98
 374++9E98 9D AB A5 AA  PDA_cell_name: db "஭ ", 0
 374++9E9C E2 E0 AE AD
 374++9EA0 AD EB A9 20
 374++9EA4 AF AB A0 AD
 374++9EA8 E8 A5 E2 00
 375++9EAC 8A AD A8 A3  Book_cell_name: db "", 0
 375++9EB0 A0 00
 376++9EB2
 377++9EB2 8A AB EE E7  RedCard_cell_name: db "-  ᥩ 砫쭨 ", 0
 377++9EB6 2D AA A0 E0
 377++9EBA E2 A0 20 AE
 377++9EBE E2 20 E1 A5
 377++9EC2 A9 E4 A0 20
 377++9EC6 AD A0 E7 A0
 377++9ECA AB EC AD A8
 377++9ECE AA A0 20 00
 378++9ED2
 379++9ED2 8F AE AB AD  Canister_cell_name: db " ⥩", 0
 379++9ED6 EB A9 20 A1
 379++9EDA A8 AE AA AE
 379++9EDE AD E2 A5 A9
 379++9EE2 AD A5 E0 00
 380++9EE6 8F E3 E1 E2  CanisterEmpty_cell_name: db "⮩ ⥩", 0
 380++9EEA AE A9 20 A1
 380++9EEE A8 AE AA AE
 380++9EF2 AD E2 A5 A9
 380++9EF6 AD A5 E0 00
 381++9EFA 80 AA E2 A8  CanisterPowered_cell_name: db "⨢ ⥩", 0
 381++9EFE A2 AD EB A9
 381++9F02 20 A1 A8 AE
 381++9F06 AA AE AD E2
 381++9F0A A5 A9 AD A5
 381++9F0E E0 00
 382++9F10 81 A8 AE E2  Generator_cell_name: db "⮯ ॠ", 0
 382++9F14 AE AF AB A8
 382++9F18 A2 AD EB A9
 382++9F1C 20 E0 A5 A0
 382++9F20 AA E2 AE E0
 382++9F24 00
 383++9F25
 384++9F25 81 AE AB EC  WallHole_name: db "   ⥭",0
 384++9F29 E8 A0 EF 20
 384++9F2D A4 EB E0 A0
 384++9F31 20 A2 20 E1
 384++9F35 E2 A5 AD A5
 384++9F39 00
 385++9F3A 8C A5 E2 A0  WallGrid_name: db "⠫᪠ ⪠", 0
 385++9F3E AB AB A8 E7
 385++9F42 A5 E1 AA A0
 385++9F46 EF 20 E0 A5
 385++9F4A E8 A5 E2 AA
 385++9F4E A0 00
 386++9F50 8F E3 E1 E2  WallCavity_name: db "⮩ ஡  ஭", 0
 386++9F54 AE A9 20 AA
 386++9F58 AE E0 AE A1
 386++9F5C 20 A4 AB EF
 386++9F60 20 ED AB A5
 386++9F64 AA E2 E0 AE
 386++9F68 AD A8 AA A8
 386++9F6C 00
 387++9F6D
 388++9F6D              Body_no_get:
 389++9F6D 8C AD A5 20    db "   ᪠ ⢮ ⥫..", 0
 389++9F71 AD A5 20 E5
 389++9F75 AE E7 A5 E2
 389++9F79 E1 EF 20 E2
 389++9F7D A0 E1 AA A0
 389++9F81 E2 EC 20 AC
 389++9F85 A5 E0 E2 A2
 389++9F89 AE A5 20 E2
 389++9F8D A5 AB AE 2E
 389++9F91 2E 00
 390++9F93
 391++9F93              Body_cell_name:
 392++9F93 92 E0 E3 AF    db " 祫, 㡨  ࣥ᪮",13
 392++9F97 20 E7 A5 AB
 392++9F9B AE A2 A5 AA
 392++9F9F A0 2C 20 E3
 392++9FA3 A1 A8 E2 20
 392++9FA7 A8 A7 20 ED
 392++9FAB AD A5 E0 A3
 392++9FAF A5 E2 A8 E7
 392++9FB3 A5 E1 AA AE
 392++9FB7 A3 AE 0D
 393++9FBA AE E0 E3 A6    db "㦨", 0
 393++9FBE A8 EF 00
 394++9FC1
 395++9FC1              BodyTech_cell_name:
 396++9FC1 92 A5 AB AE    db " 祫  ⪥ 孨, ",13
 396++9FC5 20 E7 A5 AB
 396++9FC9 AE A2 A5 AA
 396++9FCD A0 20 A2 20
 396++9FD1 AA E3 E0 E2
 396++9FD5 AA A5 20 E2
 396++9FD9 A5 E5 AD A8
 396++9FDD AA A0 2C 20
 396++9FE1 A2 A8 A4 A8
 396++9FE5 AC EB E5 0D
 397++9FE9 AF AE A2 E0    db "० ", 0
 397++9FED A5 A6 A4 A5
 397++9FF1 AD A8 A9 20
 397++9FF5 AD A5 E2 00
 398++9FF9
 399++9FF9              BodyInScaf_cell_name:
 400++9FF9 92 A5 AB AE    db " 祫  ᪠䠭, ᪠䠭 ஡"
 400++9FFD 20 E7 A5 AB
 400++A001 AE A2 A5 AA
 400++A005 A0 20 A2 20
 400++A009 E1 AA A0 E4
 400++A00D A0 AD A4 E0
 400++A011 A5 2C 20 E1
 400++A015 AA A0 E4 A0
 400++A019 AD A4 E0 20
 400++A01D AF E0 AE A1
 400++A021 A8 E2
 401++A023 ED AD A5 E0    db "ࣥ᪨ 㦨  ਣ." , 0
 401++A027 A3 A5 E2 A8
 401++A02B E7 A5 E1 AA
 401++A02F A8 AC 20 AE
 401++A033 E0 E3 A6 A8
 401++A037 A5 AC 20 A8
 401++A03B 20 AD A5 AF
 401++A03F E0 A8 A3 AE
 401++A043 A4 A5 AD 2E
 401++A047 00
 402++A048
 403++A048              ; Memo_cell_name: db "", 0
 404++A048 80 AD A0 A1  Anabiose_cell_name: db " ", 0
 404++A04C A8 AE A7 AD
 404++A050 A0 EF 20 AA
 404++A054 A0 AC A5 E0
 404++A058 A0 00
 405++A05A 8E E2 AA E0  AnabioseOpen_cell_name: db "  ", 0
 405++A05E EB E2 A0 EF
 405++A062 20 A0 AD A0
 405++A066 A1 A8 AE A7
 405++A06A AD A0 EF 20
 405++A06E AA A0 AC A5
 405++A072 E0 A0 00
 406++A075
 407++A075              Anaboise_do_open:
 408++A075 9F 20 AE E2    db "  , ନ஢訩   "
 408++A079 AA E0 EB AB
 408++A07D 20 AA A0 AC
 408++A081 A5 E0 E3 2C
 408++A085 20 AD A5 E1
 408++A089 E4 AE E0 AC
 408++A08D A8 E0 AE A2
 408++A091 A0 A2 E8 A8
 408++A095 A9 E1 EF 20
 408++A099 AA AB AE AD
 408++A09D 20 20
 409++A09F A2 EB AB A8    db "뫨 אַ   ..",0
 409++A0A3 AB E1 EF 20
 409++A0A7 AF E0 EF AC
 409++A0AB AE 20 AC AD
 409++A0AF A5 20 AF AE
 409++A0B3 A4 20 AD AE
 409++A0B7 A3 A8 2E 2E
 409++A0BB 00
 410++A0BC
 411++A0BC 81 A8 AE AB  Blood_cell_name: db "᪨ ⠭", 0
 411++A0C0 AE A3 A8 E7
 411++A0C4 A5 E1 AA A8
 411++A0C8 A5 20 AE E1
 411++A0CC E2 A0 AD AA
 411++A0D0 A8 00
 412++A0D2
 413++A0D2 80 AD A0 AB  Analyzer_cell_name: db "", 0
 413++A0D6 A8 A7 A0 E2
 413++A0DA AE E0 00
 414++A0DD 8C A5 AD E2  Mentoscanner_cell_name: db "᪠", 0
 414++A0E1 AE E1 AA A0
 414++A0E5 AD AD A5 E0
 414++A0E9 00
 415++A0EA              ; Medicbox_cell_name: db "  . ", 0
 416++A0EA              ; FoodDispenser_cell_name: db " ", 0
 417++A0EA 8E A1 AB AE  ElectonicDestroy_cell_name: db " 㤮..", 0
 417++A0EE AC AA A8 20
 417++A0F2 AE A1 AE E0
 417++A0F6 E3 A4 AE A2
 417++A0FA A0 AD A8 EF
 417++A0FE 2E 2E 00
 418++A101
 419++A101 8A A8 E1 AB  Nippers_item_name: db "᫮⮩ ࠢ᪨ १", 0
 419++A105 AE E2 AE E1
 419++A109 E2 AE A9 AA
 419++A10D A8 A9 20 A3
 419++A111 A8 A4 E0 A0
 419++A115 A2 AB A8 E7
 419++A119 A5 E1 AA A8
 419++A11D A9 20 E0 A5
 419++A121 A7 A0 AA 00
 420++A125 83 A0 A5 E7  Wrench_cell_name: db " -", 0
 420++A129 AD EB A9 20
 420++A12D AA AB EE E7
 420++A131 2D AB AE AC
 420++A135 A8 AA 00
 421++A138
 422++A138 91 E2 AE A9  ScafPlace_cell_name: db "⮩  ᪠䠭", 0
 422++A13C AA A0 20 A4
 422++A140 AB EF 20 E1
 422++A144 AA A0 E4 A0
 422++A148 AD A4 E0 A0
 422++A14C 00
 423++A14D 8B A5 A3 AA  Scaf_cell_name: db " ᪠䠭", 0
 423++A151 A8 A9 20 E1
 423++A155 AA A0 E4 A0
 423++A159 AD A4 E0 00
 424++A15D 92 EF A6 A5  HardScaf_cell_name: db "殮  ᪠䠭", 0
 424++A161 AB EB A9 20
 424++A165 A1 AE A5 A2
 424++A169 AE A9 20 E1
 424++A16D AA A0 E4 A0
 424++A171 AD A4 E0 00
 425++A175
 426++A175 8F A0 E2 E0  Nipple_cell_name: db "㡮  ⥩", 0
 426++A179 E3 A1 AE AA
 426++A17D 20 A4 AB EF
 426++A181 20 A1 A8 AE
 426++A185 AA AE AD E2
 426++A189 A5 A9 AD A5
 426++A18D E0 A0 00
 427++A190
 428++A190              ; Pistol_cell_name: db "  ",0
 429++A190
 430++A190              ; Mentoscanner_kick_mess:
 431++A190                ; db "     ...",0
 432++A190
 433++A190              ; tHeroName1 defb "",0
 434++A190 20 00        tHeroName2 defb " ",0
 435++A192
 436++A192              WallGrid_false_mess:
 437++A192 92 AE AB E1    db "  ⪨  ..",0
 437++A196 E2 EB A5 20
 437++A19A AF E0 E3 E2
 437++A19E EC EF 20 E0
 437++A1A2 A5 E8 A5 E2
 437++A1A6 AA A8 20 AD
 437++A1AA A5 20 AF AE
 437++A1AE A4 A4 A0 A2
 437++A1B2 A0 AB A8 E1
 437++A1B6 EC 2E 2E 00
 438++A1BA
 439++A1BA              Soft_wall_show_electronic:
 440++A1BA 8F AE A4 20    db " ⨢ ⥭ 㦨     "
 440++A1BE A4 A5 AA AE
 440++A1C2 E0 A0 E2 A8
 440++A1C6 A2 AD AE A9
 440++A1CA 20 E1 E2 A5
 440++A1CE AD AA AE A9
 440++A1D2 20 AE A1 AD
 440++A1D6 A0 E0 E3 A6
 440++A1DA A8 AB A0 E1
 440++A1DE EC 20 20 20
 440++A1E2 20 20
 441++A1E4 AF A0 AD A5    db " ࠢ..",0
 441++A1E8 AB EC 20 E3
 441++A1EC AF E0 A0 A2
 441++A1F0 AB A5 AD A8
 441++A1F4 EF 2E 2E 00
 442++A1F8
 443++A1F8              Not_away_from_base:
 444++A1F8 9F 20 AD A5    db "  ᪭ 室  ᫮ 㭣  "
 444++A1FC 20 E0 A8 E1
 444++A200 AA AD E3 AB
 444++A204 20 E3 E5 AE
 444++A208 A4 A8 E2 EC
 444++A20C 20 A2 20 AA
 444++A210 A8 E1 AB AE
 444++A214 E2 AD EB A5
 444++A218 20 A4 A6 E3
 444++A21C AD A3 AB A8
 444++A220 20 20
 445++A222 A2 E1 A5 A3    db "ᥣ    ᪠䠭..",0
 445++A226 AE 20 AB A8
 445++A22A E8 EC 20 A2
 445++A22E 20 AB A5 A3
 445++A232 AA AE AC 20
 445++A236 E1 AA A0 E4
 445++A23A A0 AD A4 E0
 445++A23E A5 2E 2E 00
 446++A242
 447++A242              Electronic_kick_mess:
 448++A242 95 E0 E3 AF    db "㯪 奬 ᫮!!",0
 448++A246 AA A8 A5 20
 448++A24A AC A8 AA E0
 448++A24E AE E1 E5 A5
 448++A252 AC EB 20 E1
 448++A256 AB AE AC A0
 448++A25A AB A8 E1 EC
 448++A25E 21 21 00
 449++A261
 450++A261              Electronic_kick_open_mess:
 451++A261 83 AE E2 AE    db "⮢! ⠭   .",0
 451++A265 A2 AE 21 20
 451++A269 8F A8 E2 A0
 451++A26D AD A8 A5 20
 451++A271 E1 20 A4 A2
 451++A275 A5 E0 A8 20
 451++A279 E1 AD EF E2
 451++A27D AE 2E 00
 452++A280
 453++A280              Kick_fault_mess:
 454++A280 81 A5 A7 E0    db "१⭮. 祣  ந諮..",0
 454++A284 A5 A7 E3 AB
 454++A288 EC E2 A0 E2
 454++A28C AD AE 2E 20
 454++A290 8D A8 E7 A5
 454++A294 A3 AE 20 AD
 454++A298 A5 20 AF E0
 454++A29C AE A8 A7 AE
 454++A2A0 E8 AB AE 2E
 454++A2A4 2E 00
 455++A2A6
 456++A2A6              Kick_shard_mess:
 457++A2A6 84 A0 A6 A5    db " ࠯  ⠫..",0
 457++A2AA 20 E6 A0 E0
 457++A2AE A0 AF A8 AD
 457++A2B2 EB 20 AD A5
 457++A2B6 20 AE E1 E2
 457++A2BA A0 AB AE E1
 457++A2BE EC 2E 2E 00
 458++A2C2
 459++A2C2              Door_not_open_mess:
 460++A2C2 84 A2 A5 E0    db "  뢠..",0
 460++A2C6 EC 20 AD A5
 460++A2CA 20 AE E2 AA
 460++A2CE E0 EB A2 A0
 460++A2D2 AB A0 E1 EC
 460++A2D6 2E 2E 00
 461++A2D9
 462++A2D9              Take_bed_mess:
 463++A2D9 8A E0 AE A2    db "஢ 뫠 ਪ९          "
 463++A2DD A0 E2 EC 20
 463++A2E1 A1 EB AB A0
 463++A2E5 20 AF E0 A8
 463++A2E9 AA E0 A5 AF
 463++A2ED AB A5 AD A0
 463++A2F1 20 AA 20 AF
 463++A2F5 AE AB E3 20
 463++A2F9 A8 20 AD A5
 463++A2FD 20 20 20 20
 463++A301 20 20
 464++A303 AF AE A4 AD    db ".. ",0
 464++A307 A8 AC A0 AB
 464++A30B A0 E1 EC 2E
 464++A30F 2E 20 00
 465++A312
 466++A312              ; Take_floor_mess:
 467++A312                ; db "   ...",0
 468++A312
 469++A312              Take_trash_mess:
 470++A312 9F 20 AF AE    db " ࠫ     ᮪  "
 470++A316 A4 AE A1 E0
 470++A31A A0 AB 20 A8
 470++A31E A7 20 AA E3
 470++A322 E7 A8 20 AE
 470++A326 A1 AB AE AC
 470++A32A AA AE A2 20
 470++A32E AE E1 E2 E0
 470++A332 EB A9 20 AA
 470++A336 E3 E1 AE AA
 470++A33A 20 20
 471++A33C AF AB A0 E1    db "⨪..",0
 471++A340 E2 A8 AA A0
 471++A344 2E 2E 00
 472++A347
 473++A347              ; Take_chair_mess
 474++A347              ;   db "  ..",0
 475++A347
 476++A347              ; Wall_mess:
 477++A347              ;   db "        "
 478++A347              ;   db "... .",0
 479++A347
 480++A347              ; Table_mess:
 481++A347              ;   db "   .   .  ",0
 482++A347
 483++A347              ; Sink_mess:
 484++A347              ;   db "   .   .",0
 485++A347
 486++A347              ; Toilet_mess:
 487++A347              ;   db "   .   .",0
 488++A347
 489++A347              ; Break_shard_mess
 490++A347                ; db "     ..",0
 491++A347
 492++A347              ; Bush_mess:
 493++A347              ;   db "    ..",0
 494++A347
 495++A347              ; Locker_mess:
 496++A347              ;   db "  ..", 0
 497++A347
 498++A347              ; Safe_mess:
 499++A347              ;   db "     ..", 0
 500++A347
 501++A347              Keramit_nohit_mess:
 502++A347 91 E2 E3 E7    db "  ࠬ 뫮 ᫥..", 0
 502++A34B A0 E2 EC 20
 502++A34F AF AE 20 AA
 502++A353 A5 E0 A0 AC
 502++A357 A8 E2 E3 20
 502++A35B A1 EB AB AE
 502++A35F 20 A1 A5 E1
 502++A363 E1 AC EB E1
 502++A367 AB A5 AD AD
 502++A36B AE 2E 2E 00
 503++A36F
 504++A36F              ; Statis_on_mess
 505++A36F                ; db "          "
 506++A36F                ; db "  -...",0
 507++A36F
 508++A36F              ; Take_shard_mess
 509++A36F                ; db "    ..",0
 510++A36F
 511++A36F              Shard_to_soft_wall_mess
 512++A36F 9F 20 AF E0    db " १    ⨢    "
 512++A373 AE E0 A5 A7
 512++A377 A0 AB 20 A4
 512++A37B EB E0 AA E3
 512++A37F 20 A2 20 AC
 512++A383 EF A3 AA AE
 512++A387 A9 20 A4 A5
 512++A38B AA AE E0 A0
 512++A38F E2 A8 A2 AD
 512++A393 AE A9 20 20
 512++A397 20 20
 513++A399 E1 E2 A5 AD    db "⥭..",0
 513++A39D AA A5 2E 2E
 513++A3A1 00
 514++A3A2
 515++A3A2              Soft_wall_clean
 516++A3A2 9F 20 E1 AE    db " ᮤࠫ ⪨ ⨢ ⥭.",0
 516++A3A6 A4 E0 A0 AB
 516++A3AA 20 AE E1 E2
 516++A3AE A0 E2 AA A8
 516++A3B2 20 A4 A5 AA
 516++A3B6 AE E0 A0 E2
 516++A3BA A8 A2 AD AE
 516++A3BE A9 20 E1 E2
 516++A3C2 A5 AD AA A8
 516++A3C6 2E 00
 517++A3C8
 518++A3C8              Computer_break_chair_mess:
 519++A3C8 91 E2 E3 AB    db "  㪠 ࠧ,  ࠭ .",0
 519++A3CC 20 A2 20 E0
 519++A3D0 E3 AA A0 E5
 519++A3D4 20 E0 A0 A7
 519++A3D8 A2 A0 AB A8
 519++A3DC AB E1 EF 2C
 519++A3E0 20 AD AE 20
 519++A3E4 A7 AA E0 A0
 519++A3E8 AD 20 E2 E0
 519++A3EC A5 E1 AD E3
 519++A3F0 AB 2E 00
 520++A3F3
 521++A3F3              Computer_break_mess:
 522++A3F3 9D AA E0 A0    db "࠭  ..",0
 522++A3F7 AD 20 AA AE
 522++A3FB AC AF EC EE
 522++A3FF E2 A5 E0 A0
 522++A403 20 E2 E0 A5
 522++A407 E1 AD E3 AB
 522++A40B 2E 2E 00
 523++A40E
 524++A40E              Computer_add_shard_mess
 525++A40E 85 E9 A5 20    db "  訩 㤠  ନ       "
 525++A412 AE A4 A8 AD
 525++A416 20 E5 AE E0
 525++A41A AE E8 A8 A9
 525++A41E 20 E3 A4 A0
 525++A422 E0 20 A8 20
 525++A426 E2 A5 E0 AC
 525++A42A A8 AD A0 AB
 525++A42E 20 A1 EB AB
 525++A432 20 20 20 20
 525++A436 20 20
 526++A438 AF AE AB AD    db " ࠧ..",0
 526++A43C AE E1 E2 EC
 526++A440 EE 20 E0 A0
 526++A444 A7 A1 A8 E2
 526++A448 2E 2E 00
 527++A44B
 528++A44B              Soft_wall_hit_mess:
 529++A44B 93 A4 A0 E0    db " 饭  ⥭.",0
 529++A44F 20 AF AE A3
 529++A453 AB AE E9 A5
 529++A457 AD 20 AC EF
 529++A45B A3 AA AE A9
 529++A45F 20 E1 E2 A5
 529++A463 AD AA AE A9
 529++A467 2E 00
 530++A469
 531++A469              Computer_off_mess:
 532++A469 92 A5 E0 AC    db "ନ  ஫.  "
 532++A46D A8 AD A0 AB
 532++A471 20 A1 EB AB
 532++A475 20 A7 A0 AF
 532++A479 A0 E0 AE AB
 532++A47D A5 AD 2E 9F
 532++A481 20 AF AE AD
 532++A485 A0 A6 A8 AC
 532++A489 A0 AB 20 AA
 532++A48D AB A0 A2 A8
 532++A491 E8 A8
 533++A493 AD A0 E3 A3    db "㣠   ⪫稫..", 0
 533++A497 A0 A4 20 A8
 533++A49B 20 AE AD 20
 533++A49F AE E2 AA AB
 533++A4A3 EE E7 A8 AB
 533++A4A7 E1 EF 2E 2E
 533++A4AB 00
 534++A4AC
 535++A4AC              Computer_off_hit_mess:
 536++A4AC 82 EB AA AB    db "몫祭..", 0
 536++A4B0 EE E7 A5 AD
 536++A4B4 AE 2E 2E 00
 537++A4B8
# file closed: /Users/random/zx-engine/data/lang/lang_ru.asm
  13++A4B8              LANG_SET_END
  14++A4B8
  15++A4B8              ORG (high $+1)*256
  16++A500              p68_font:
  17++A500                ; incbin "data/fonts/tripfont_revert.fnt"
  18++A500                incbin "data/fonts/Font57_revert.fnt"
  19++AD00                ; incbin "data/fonts/casa2_revert.fnt"
  20++AD00              _after_font:
  21++AD00
  22++AD00              START_SCRIPT:
  23++AD00                include "data/script.asm"
# file opened: /Users/random/zx-engine/data/script.asm
   1++AD00              BEGIN_SCRIPT:
   2++AD00                setBorder PEN_BLACK
   2++AD00 34 65       >    defw beeper.set_border
   2++AD02 00          >    defb PEN_BLACK
   3++AD03                ; goto game_over_3
   4++AD03                printScreen PAPER_BLACK or PEN_GREEN, HELLO_TXT
   4++AD03 03 67       >      dw text.print_screen_me
   4++AD05 04          >      db PAPER_BLACK or PEN_GREEN
   4++AD06 96 87       >      dw HELLO_TXT
   5++AD08                CallCode binary_play_intro
   5++AD08 99 61       >    defw zxengine.call_code_me
   5++AD0A 94 AD       >    defw binary_play_intro
   6++AD0C                CallCode binary_init
   6++AD0C 99 61       >    defw zxengine.call_code_me
   6++AD0E 8A AD       >    defw binary_init
   7++AD10                ; CallScript Nipple.power_start_
   8++AD10
   9++AD10              ; TODO
  10++AD10              ; ломаем биоконтейнер
  11++AD10              ; убрать на складе мягкую обшивку слева вверху дабы не смущать
  12++AD10              ; при финале press g to restart надо а то иногда схлопывается
  13++AD10              ; внятное сообщение при ударе ломиком о растение
  14++AD10
  15++AD10              ; непонятно что подсадили клону часть днк от объекта N1
  16++AD10              ; клон 'xx xxx' [Режим: запись информации в носителя...]
  17++AD10              ; разбитие анализаторов и ментосканеров
  18++AD10              ; решетку из комнаты совещаний в кабинет начальника для симметрии снизу
  19++AD10
  20++AD10              ; при движении с ломиком на зеленую дверь она открыается(?)
  21++AD10              ; затыкать чем-то дыры в стенах(!)
  22++AD10              ; компьютер в комнате начальника активация (?)
  23++AD10              ; когда встал на кровать при включенной электроэнергии то убивает ментоизлучением(?)
  24++AD10              ; разбиваем биоконтейнер и вытекает
  25++AD10
  26++AD10              LOOP_SCRIPT:
  27++AD10                ; CallScript GAME_LOOP
  28++AD10                ScanKeyTable key_table_hero
  28++AD10 D8 61       >    defw zxengine.scan_keys_me
  28++AD12 C5 AD       >    defw key_table_hero
  29++AD14                IfVarN Vars.game_over, 0, game_over
  29++AD14 2D 62       >	  defw zxengine.if_var_not_me
  29++AD16 05          >	  defb Vars.game_over
  29++AD17 00          >	  defb 0
  29++AD18 1F AD       >	  defw game_over
  30++AD1A                goto LOOP_SCRIPT
  30++AD1A A7 61       >    defw zxengine.goto_me
  30++AD1C 10 AD       >    defw LOOP_SCRIPT
  31++AD1E 00             defb _endByte
  32++AD1F
  33++AD1F              ; ABOUT_INTRO:
  34++AD1F              ;   CallCode binary_clear_screen
  35++AD1F              ;   setScreen PAPER_BLACK or PEN_GREEN
  36++AD1F              ;   printAt 0,0,ABOUT_TXT
  37++AD1F              ;   CallCode input.waitKey
  38++AD1F              ;   goto BEGIN_SCRIPT
  39++AD1F              ;   defb _endByte
  40++AD1F
  41++AD1F              ; HELP_SCRIPT_INTRO:
  42++AD1F              ;   CallCode binary_clear_screen
  43++AD1F              ;   setScreen PAPER_BLACK or PEN_GREEN
  44++AD1F              ;   printAt 0,0,HELP
  45++AD1F              ;   ; shiruFX 46
  46++AD1F              ;   CallCode input.waitKey
  47++AD1F              ;   goto BEGIN_SCRIPT
  48++AD1F              ;   ; CallCode input.noKey
  49++AD1F              ;   ; CallCode binary_show_screen
  50++AD1F              ;   defb _endByte
  51++AD1F
  52++AD1F              ; HELP_SCRIPT:
  53++AD1F              ;   CallCode binary_clear_screen
  54++AD1F              ;   setScreen PAPER_BLACK or PEN_CYAN
  55++AD1F              ;   printAt 0,0,HELP
  56++AD1F              ;   shiruFX 46
  57++AD1F              ;   CallCode input.waitKey
  58++AD1F              ;   CallCode input.noKey
  59++AD1F              ;   CallCode binary_show_screen
  60++AD1F              ;   defb _endByte
  61++AD1F
  62++AD1F              ; END_SCRIPT:
  63++AD1F              ;   shiruFX 46
  64++AD1F              ;   CallCode input.waitKey
  65++AD1F              ;   CallCode input.noKey
  66++AD1F              ;   goto RESTART
  67++AD1F
  68++AD1F              game_over:
  69++AD1F                ; CallCode binary_clear_screen
  70++AD1F                ; goto game_over_3
  71++AD1F                IfVar Vars.game_over, 2, game_over_2
  71++AD1F 1E 62       >	  defw zxengine.if_var_me
  71++AD21 05          >	  defb Vars.game_over
  71++AD22 02          >	  defb 2
  71++AD23 44 AD       >	  defw game_over_2
  72++AD25                IfVar Vars.game_over, 3, game_over_3
  72++AD25 1E 62       >	  defw zxengine.if_var_me
  72++AD27 05          >	  defb Vars.game_over
  72++AD28 03          >	  defb 3
  72++AD29 51 AD       >	  defw game_over_3
  73++AD2B                IfVar Vars.game_over, 4, game_over_4
  73++AD2B 1E 62       >	  defw zxengine.if_var_me
  73++AD2D 05          >	  defb Vars.game_over
  73++AD2E 04          >	  defb 4
  73++AD2F 67 AD       >	  defw game_over_4
  74++AD31                IfVar Vars.game_over, 5, game_over_5
  74++AD31 1E 62       >	  defw zxengine.if_var_me
  74++AD33 05          >	  defb Vars.game_over
  74++AD34 05          >	  defb 5
  74++AD35 7D AD       >	  defw game_over_5
  75++AD37
  76++AD37              game_over_1:
  77++AD37                printScreen PAPER_BLACK or PEN_RED, GAMEOVER_1
  77++AD37 03 67       >      dw text.print_screen_me
  77++AD39 02          >      db PAPER_BLACK or PEN_RED
  77++AD3A 11 8B       >      dw GAMEOVER_1
  78++AD3C                CallCode play_gameover
  78++AD3C 99 61       >    defw zxengine.call_code_me
  78++AD3E 9D AD       >    defw play_gameover
  79++AD40                goto RESTART
  79++AD40 A7 61       >    defw zxengine.goto_me
  79++AD42 04 AE       >    defw RESTART
  80++AD44
  81++AD44              game_over_2
  82++AD44                printScreen PAPER_BLACK or PEN_RED, GAMEOVER_2
  82++AD44 03 67       >      dw text.print_screen_me
  82++AD46 02          >      db PAPER_BLACK or PEN_RED
  82++AD47 53 8C       >      dw GAMEOVER_2
  83++AD49                CallCode play_gameover
  83++AD49 99 61       >    defw zxengine.call_code_me
  83++AD4B 9D AD       >    defw play_gameover
  84++AD4D                goto RESTART
  84++AD4D A7 61       >    defw zxengine.goto_me
  84++AD4F 04 AE       >    defw RESTART
  85++AD51
  86++AD51              game_over_3
  87++AD51                printScreen PAPER_BLACK or PEN_YELLOW, GAMEOVER_3
  87++AD51 03 67       >      dw text.print_screen_me
  87++AD53 06          >      db PAPER_BLACK or PEN_YELLOW
  87++AD54 E1 8D       >      dw GAMEOVER_3
  88++AD56                CallCode play_gameover
  88++AD56 99 61       >    defw zxengine.call_code_me
  88++AD58 9D AD       >    defw play_gameover
  89++AD5A                printScreen PAPER_BLACK or PEN_WHITE, GAMEOVER_3_1
  89++AD5A 03 67       >      dw text.print_screen_me
  89++AD5C 07          >      db PAPER_BLACK or PEN_WHITE
  89++AD5D E7 8F       >      dw GAMEOVER_3_1
  90++AD5F                CallCode play_gameover
  90++AD5F 99 61       >    defw zxengine.call_code_me
  90++AD61 9D AD       >    defw play_gameover
  91++AD63                goto RESTART
  91++AD63 A7 61       >    defw zxengine.goto_me
  91++AD65 04 AE       >    defw RESTART
  92++AD67
  93++AD67              game_over_4
  94++AD67                printScreen PAPER_BLACK or PEN_GREEN, GAMEOVER_4
  94++AD67 03 67       >      dw text.print_screen_me
  94++AD69 04          >      db PAPER_BLACK or PEN_GREEN
  94++AD6A B9 91       >      dw GAMEOVER_4
  95++AD6C                CallCode play_happy
  95++AD6C 99 61       >    defw zxengine.call_code_me
  95++AD6E A9 AD       >    defw play_happy
  96++AD70                printScreen PAPER_BLACK or PEN_WHITE, GAMEOVER_4_0
  96++AD70 03 67       >      dw text.print_screen_me
  96++AD72 07          >      db PAPER_BLACK or PEN_WHITE
  96++AD73 19 98       >      dw GAMEOVER_4_0
  97++AD75                CallCode play_happy
  97++AD75 99 61       >    defw zxengine.call_code_me
  97++AD77 A9 AD       >    defw play_happy
  98++AD79                goto RESTART
  98++AD79 A7 61       >    defw zxengine.goto_me
  98++AD7B 04 AE       >    defw RESTART
  99++AD7D
 100++AD7D              game_over_5
 101++AD7D                printScreen PAPER_BLACK or PEN_RED, GAMEOVER_5
 101++AD7D 03 67       >      dw text.print_screen_me
 101++AD7F 02          >      db PAPER_BLACK or PEN_RED
 101++AD80 03 93       >      dw GAMEOVER_5
 102++AD82                CallCode play_gameover
 102++AD82 99 61       >    defw zxengine.call_code_me
 102++AD84 9D AD       >    defw play_gameover
 103++AD86                goto RESTART
 103++AD86 A7 61       >    defw zxengine.goto_me
 103++AD88 04 AE       >    defw RESTART
 104++AD8A
 105++AD8A              ; binary_clear_screen:
 106++AD8A              ;   LD D, 0
 107++AD8A              ;   LD E, 24
 108++AD8A              ;   CALL screenfx.clear_window
 109++AD8A              ;   RET
 110++AD8A
 111++AD8A              binary_init:
 112++AD8A                ; LD DE, #1008
 113++AD8A                ; LD ( Vars.Cursor_pos ), DE
 114++AD8A CD 15 68       CALL Entities.initHeroes
 115++AD8D CD 81 68       CALL Entities.lookChar
 116++AD90 CD 65 68       CALL Entities.lookCharSeeCellInfo
 117++AD93 C9             RET
 118++AD94
 119++AD94              ; GAME_LOOP:
 120++AD94                ; IfVar Vars.var_mode, 1, cursor_look
 121++AD94                ; ScanKeyTable key_table_hero
 122++AD94                ; wait_halt 1
 123++AD94                ; CallCode screenfx.show_frames
 124++AD94                ; CallScript look_char
 125++AD94                ; defb _endByte
 126++AD94
 127++AD94              binary_play_intro:
 128++AD94 3A 95 6C       LD A, (IS_GAME_OVER)
 129++AD97 A7             AND A
 130++AD98 28 09          JR Z, play_normal
 131++AD9A 3D             DEC A
 132++AD9B 28 0C          JR Z, play_happy
 133++AD9D              play_gameover:
 134++AD9D 21 E7 CC       LD HL, gameover.MUSICDATA
 135++ADA0 C3 AF AD       JP just_play
 136++ADA3              play_normal:
 137++ADA3 21 7F C7       LD HL,MUSICDATA
 138++ADA6 C3 AF AD       JP just_play
 139++ADA9              play_happy:
 140++ADA9 21 82 CD       LD HL, gameend.MUSICDATA
 141++ADAC C3 AF AD       JP just_play
 142++ADAF
 143++ADAF              just_play:
 144++ADAF CD C0 C5       CALL TRI_PLAY
 145++ADB2 CD E6 64       CALL input.noKey
 146++ADB5 C9             RET
 147++ADB6
 148++ADB6              binary_show_screen:
 149++ADB6 CD 81 68       CALL Entities.lookChar
 150++ADB9
 151++ADB9              ; показать GUI поверх карты =)
 152++ADB9              binary_show_gui:
 153++ADB9
 154++ADB9              show_hand_item:
 155++ADB9 CD C1 6B       CALL items.get_hero_hand_item
 156++ADBC 30 06          JR NC, binary_show_gui_ret
 157++ADBE 11 01 01       LD DE, #0101
 158++ADC1 CD E7 65       CALL screenfx.show_sprite
 159++ADC4
 160++ADC4              binary_show_gui_ret:
 161++ADC4 C9             RET
 162++ADC5
 163++ADC5              ; key_table_intro:
 164++ADC5              ;   ; KEY_H, HELP_SCRIPT_INTRO
 165++ADC5              ;   KEY_I, ABOUT_INTRO
 166++ADC5              ;   defb _endByte
 167++ADC5
 168++ADC5              key_table_hero:
 169++ADC5 FE 01 EE AD    dw 0x01fe, scan_cursor_keys
 170++ADC9
 171++ADC9 7F 08 08 AE    dw 0x087f, next_char
 172++ADCD
 173++ADCD FB 01 15 AE    dw 0x01fb, char_up
 174++ADD1 FD 01 1C AE    dw 0x01fd, char_down
 175++ADD5 DF 02 23 AE    dw 0x02df, char_left
 176++ADD9 DF 01 2A AE    dw 0x01df, char_right
 177++ADDD
 178++ADDD                ; KEY_I, set_cursor_look
 179++ADDD
 180++ADDD                ; KEY_H, HELP_SCRIPT
 181++ADDD
 182++ADDD FD 10 04 AE    dw 0x10fd, RESTART
 183++ADE1
 184++ADE1 BF 01 31 AE    dw 0x01bf, char_loot
 185++ADE5 7F 04 31 AE    dw 0x047f, char_loot
 186++ADE9 7F 01 31 AE    dw 0x017f, char_loot
 187++ADED
 188++ADED 00             defb _endByte
 189++ADEE
 190++ADEE              ; set_cursor_look:
 191++ADEE                ; CallCode binary_calc_hero_cursor_pos
 192++ADEE                ; SetVar Vars.var_mode, 1; cursor_look
 193++ADEE                ; CallCode input.noKey
 194++ADEE                ; defb _endByte
 195++ADEE
 196++ADEE              ; binary_calc_hero_cursor_pos
 197++ADEE                ; CALL Entities.calc_hero_cursor_pos
 198++ADEE                ; ADD HL, HL
 199++ADEE                ; LD ( Vars.Cursor_pos ), HL
 200++ADEE                ; RET
 201++ADEE
 202++ADEE              scan_cursor_keys:
 203++ADEE                ScanKeyTable cursor_table_hero
 203++ADEE D8 61       >    defw zxengine.scan_keys_me
 203++ADF0 F3 AD       >    defw cursor_table_hero
 204++ADF2 00             defb _endByte
 205++ADF3
 206++ADF3              cursor_table_hero:
 207++ADF3 EF 04 2A AE    dw 0x04ef, char_right
 208++ADF7 EF 08 15 AE    dw 0x08ef, char_up
 209++ADFB EF 10 1C AE    dw 0x10ef, char_down
 210++ADFF F7 10 23 AE    dw 0x10f7, char_left
 211++AE03 00             defb _endByte
 212++AE04
 213++AE04              ; LOOK_CURSOR_LOOP:
 214++AE04                ; SkanKeyTable cursor_table_hero
 215++AE04                ; wait_halt 1
 216++AE04                ; CallCode screenfx.show_frames
 217++AE04                ; goto LOOK_CURSOR_LOOP
 218++AE04                ; CallScript look_char
 219++AE04                ; defb _endByte
 220++AE04
 221++AE04
 222++AE04              RESTART
 223++AE04                  ; CallCode zxengine.clear_data
 224++AE04                  CallCode zxengine.init; переходим на инициализацию
 224++AE04 99 61       >    defw zxengine.call_code_me
 224++AE06 67 61       >    defw zxengine.init
 225++AE08
 226++AE08              next_char:
 227++AE08                  CallCode Entities.loopNextChar
 227++AE08 99 61       >    defw zxengine.call_code_me
 227++AE0A 3D 68       >    defw Entities.loopNextChar
 228++AE0C              look_char:
 229++AE0C                  CallCode Entities.lookChar
 229++AE0C 99 61       >    defw zxengine.call_code_me
 229++AE0E 81 68       >    defw Entities.lookChar
 230++AE10                  CallCode binary_show_gui
 230++AE10 99 61       >    defw zxengine.call_code_me
 230++AE12 B9 AD       >    defw binary_show_gui
 231++AE14                  ; CallCode input.noKey ; ждем пока отпустит клавишу
 232++AE14                  ; wait_halt 5
 233++AE14 00               defb _endByte
 234++AE15
 235++AE15              char_up:
 236++AE15                ; CharDo do_stand, dir_up
 237++AE15                CharRotMove dir_up
 237++AE15 8F 67       >    defw Entities.char_rot_move_me
 237++AE17 04          >    defb dir_up
 238++AE18                ; CallCode Entities.lookCharSeeCellInfo
 239++AE18                ; CharDoForward do_stand
 240++AE18                goto look_char
 240++AE18 A7 61       >    defw zxengine.goto_me
 240++AE1A 0C AE       >    defw look_char
 241++AE1C
 242++AE1C              char_down:
 243++AE1C                ; CharDo do_stand, dir_down
 244++AE1C                CharRotMove dir_down
 244++AE1C 8F 67       >    defw Entities.char_rot_move_me
 244++AE1E 00          >    defb dir_down
 245++AE1F                ; CallCode Entities.lookCharSeeCellInfo
 246++AE1F                goto look_char
 246++AE1F A7 61       >    defw zxengine.goto_me
 246++AE21 0C AE       >    defw look_char
 247++AE23
 248++AE23              char_left:
 249++AE23                ; CharRotLeft
 250++AE23                ; CharDo do_stand, dir_left
 251++AE23                CharRotMove dir_left
 251++AE23 8F 67       >    defw Entities.char_rot_move_me
 251++AE25 02          >    defb dir_left
 252++AE26                ; CallCode Entities.lookCharSeeCellInfo
 253++AE26                goto look_char
 253++AE26 A7 61       >    defw zxengine.goto_me
 253++AE28 0C AE       >    defw look_char
 254++AE2A
 255++AE2A              char_right:
 256++AE2A                ; CharDo do_stand, dir_right
 257++AE2A                ; CharRotRight
 258++AE2A                CharRotMove dir_right
 258++AE2A 8F 67       >    defw Entities.char_rot_move_me
 258++AE2C 06          >    defb dir_right
 259++AE2D                ; CallCode Entities.lookCharSeeCellInfo
 260++AE2D                goto look_char
 260++AE2D A7 61       >    defw zxengine.goto_me
 260++AE2F 0C AE       >    defw look_char
 261++AE31
 262++AE31              ; char_up_left:
 263++AE31              ;   CharDo do_stand, dir_up_left
 264++AE31              ;   goto look_char
 265++AE31              ; char_up_right:
 266++AE31              ;   CharDo do_stand, dir_up_right
 267++AE31              ;   goto look_char
 268++AE31              ; char_down_left:
 269++AE31              ;   CharDo do_stand, dir_down_left
 270++AE31              ;   goto look_char
 271++AE31              ; char_down_right:
 272++AE31              ;   CharDo do_stand, dir_down_right
 273++AE31              ;   goto look_char
 274++AE31
 275++AE31              char_loot:
 276++AE31                ; CharDo do_get_drop, dir_center
 277++AE31                CharDoDir do_get_drop
 277++AE31 99 67       >    defw Entities.char_do_dir_me
 277++AE33 10          >    defb do_get_drop
 278++AE34                CallCode input.noKey
 278++AE34 99 61       >    defw zxengine.call_code_me
 278++AE36 E6 64       >    defw input.noKey
 279++AE38                goto look_char
 279++AE38 A7 61       >    defw zxengine.goto_me
 279++AE3A 0C AE       >    defw look_char
# file closed: /Users/random/zx-engine/data/script.asm
  24++AE3C                ; include "data/cursor_look.asm"
  25++AE3C
  26++AE3C              ENCOUNTER_SET:
  27++AE3C              	include "data/rebelstar_enc.asm"
# file opened: /Users/random/zx-engine/data/rebelstar_enc.asm
   1++AE3C
   2++AE3C                ; MACRO SETUP_CELL_TYPE _name, _script
   3++AE3C                ;   ORG CELL_TYPES+spr*CellType
   4++AE3C                ;   CellType _name, _script
   5++AE3C                ; ENDM
   6++AE3C
   7++AE3C                MACRO SETUP_CELL_TYPE_N _name, _script
   8++AE3C ~            ._temp equ $; запоминаем адрес
   9++AE3C ~                ORG CELL_TYPES+spr*CellType
  10++AE3C ~                CellType _name, _script
  11++AE3C ~                ORG ._temp
  12++AE3C                ENDM
  13++AE3C
  14++AE3C                ; MACRO SETUP_ITEM_TYPE
  15++AE3C                ;   ORG ITEM_TYPES+item*ItemType
  16++AE3C                ;   ItemType spr, 0, 10
  17++AE3C                ; ENDM
  18++AE3C
  19++AE3C                MACRO SETUP_ITEM_TYPE_N
  20++AE3C ~            ._temp equ $; запоминаем адрес
  21++AE3C ~                ORG ITEM_TYPES+item*ItemType
  22++AE3C ~                ItemType spr, 0, 10
  23++AE3C ~                ORG ._temp
  24++AE3C                ENDM
  25++AE3C
  26++AE3C              Ring_expl_1 equ #b0
  27++AE3C              Ring_expl_2 equ #b1
  28++AE3C              Ring_expl_3 equ #b2
  29++AE3C              Ring_expl_4 equ #b3
  30++AE3C
  31++AE3C              ; Hero_hand_item_spr: equ #0B
  32++AE3C              ; Hero_hand_empty: equ #09
  33++AE3C
  34++AE3C              FX_Nope equ 53
  35++AE3C              FX_Drop equ 5
  36++AE3C              FX_Pickup equ 4
  37++AE3C              FX_Poweroff equ 36
  38++AE3C              FX_Computer equ 55
  39++AE3C              FX_Yeah equ 56
  40++AE3C              FX_No equ 10
  41++AE3C
  42++AE3C              FX_DoorOpen equ 43
  43++AE3C              FX_Boom equ 21
  44++AE3C              FX_Wall equ 51
  45++AE3C              FX_Cutt equ 7
  46++AE3C              FX_Cutt1 equ 8
  47++AE3C              FX_GridCut equ 39
  48++AE3C
  49++AE3C              CELL_TYPES:
  50++AE3C                DUP CellType*256
  51++AE3C             >    ; CellType Empty_cell_name, no_way_script
  52++AE3C 00          >    defb 00
  51++AE3D             >    ; CellType Empty_cell_name, no_way_script
  52++AE3D 00          >    defb 00
  51++AE3E             >    ; CellType Empty_cell_name, no_way_script
  52++AE3E 00          >    defb 00
  51++AE3F             >    ; CellType Empty_cell_name, no_way_script
  52++AE3F 00          >    defb 00
  51++AE40             >    ; CellType Empty_cell_name, no_way_script
  52++AE40 00          >    defb 00
  51++AE41             >    ; CellType Empty_cell_name, no_way_script
  52++AE41 00          >    defb 00
  51++AE42             >    ; CellType Empty_cell_name, no_way_script
  52++AE42 00          >    defb 00
  51++AE43             >    ; CellType Empty_cell_name, no_way_script
  52++AE43 00          >    defb 00
  51++AE44             >    ; CellType Empty_cell_name, no_way_script
  52++AE44 00          >    defb 00
  51++AE45             >    ; CellType Empty_cell_name, no_way_script
  52++AE45 00          >    defb 00
  51++AE46             >    ; CellType Empty_cell_name, no_way_script
  52++AE46 00          >    defb 00
  51++AE47             >    ; CellType Empty_cell_name, no_way_script
  52++AE47 00          >    defb 00
  51++AE48             >    ; CellType Empty_cell_name, no_way_script
  52++AE48 00          >    defb 00
  51++AE49             >    ; CellType Empty_cell_name, no_way_script
  52++AE49 00          >    defb 00
  51++AE4A             >    ; CellType Empty_cell_name, no_way_script
  52++AE4A 00          >    defb 00
  51++AE4B             >    ; CellType Empty_cell_name, no_way_script
  52++AE4B 00          >    defb 00
  51++AE4C             >    ; CellType Empty_cell_name, no_way_script
  52++AE4C 00          >    defb 00
  51++AE4D             >    ; CellType Empty_cell_name, no_way_script
  52++AE4D 00          >    defb 00
  51++AE4E             >    ; CellType Empty_cell_name, no_way_script
  52++AE4E 00          >    defb 00
  51++AE4F             >    ; CellType Empty_cell_name, no_way_script
  52++AE4F 00          >    defb 00
  51++AE50             >    ; CellType Empty_cell_name, no_way_script
  52++AE50 00          >    defb 00
  51++AE51             >    ; CellType Empty_cell_name, no_way_script
  52++AE51 00          >    defb 00
  51++AE52             >    ; CellType Empty_cell_name, no_way_script
  52++AE52 00          >    defb 00
  51++AE53             >    ; CellType Empty_cell_name, no_way_script
  52++AE53 00          >    defb 00
  51++AE54             >    ; CellType Empty_cell_name, no_way_script
  52++AE54 00          >    defb 00
  51++AE55             >    ; CellType Empty_cell_name, no_way_script
  52++AE55 00          >    defb 00
  51++AE56             >    ; CellType Empty_cell_name, no_way_script
  52++AE56 00          >    defb 00
  51++AE57             >    ; CellType Empty_cell_name, no_way_script
  52++AE57 00          >    defb 00
  51++AE58             >    ; CellType Empty_cell_name, no_way_script
  52++AE58 00          >    defb 00
  51++AE59             >    ; CellType Empty_cell_name, no_way_script
  52++AE59 00          >    defb 00
  51++AE5A             >    ; CellType Empty_cell_name, no_way_script
  52++AE5A 00          >    defb 00
  51++AE5B             >    ; CellType Empty_cell_name, no_way_script
  52++AE5B 00          >    defb 00
  51++AE5C             >    ; CellType Empty_cell_name, no_way_script
  52++AE5C 00          >    defb 00
  51++AE5D             >    ; CellType Empty_cell_name, no_way_script
  52++AE5D 00          >    defb 00
  51++AE5E             >    ; CellType Empty_cell_name, no_way_script
  52++AE5E 00          >    defb 00
  51++AE5F             >    ; CellType Empty_cell_name, no_way_script
  52++AE5F 00          >    defb 00
  51++AE60             >    ; CellType Empty_cell_name, no_way_script
  52++AE60 00          >    defb 00
  51++AE61             >    ; CellType Empty_cell_name, no_way_script
  52++AE61 00          >    defb 00
  51++AE62             >    ; CellType Empty_cell_name, no_way_script
  52++AE62 00          >    defb 00
  51++AE63             >    ; CellType Empty_cell_name, no_way_script
  52++AE63 00          >    defb 00
  51++AE64             >    ; CellType Empty_cell_name, no_way_script
  52++AE64 00          >    defb 00
  51++AE65             >    ; CellType Empty_cell_name, no_way_script
  52++AE65 00          >    defb 00
  51++AE66             >    ; CellType Empty_cell_name, no_way_script
  52++AE66 00          >    defb 00
  51++AE67             >    ; CellType Empty_cell_name, no_way_script
  52++AE67 00          >    defb 00
  51++AE68             >    ; CellType Empty_cell_name, no_way_script
  52++AE68 00          >    defb 00
  51++AE69             >    ; CellType Empty_cell_name, no_way_script
  52++AE69 00          >    defb 00
  51++AE6A             >    ; CellType Empty_cell_name, no_way_script
  52++AE6A 00          >    defb 00
  51++AE6B             >    ; CellType Empty_cell_name, no_way_script
  52++AE6B 00          >    defb 00
  51++AE6C             >    ; CellType Empty_cell_name, no_way_script
  52++AE6C 00          >    defb 00
  51++AE6D             >    ; CellType Empty_cell_name, no_way_script
  52++AE6D 00          >    defb 00
  51++AE6E             >    ; CellType Empty_cell_name, no_way_script
  52++AE6E 00          >    defb 00
  51++AE6F             >    ; CellType Empty_cell_name, no_way_script
  52++AE6F 00          >    defb 00
  51++AE70             >    ; CellType Empty_cell_name, no_way_script
  52++AE70 00          >    defb 00
  51++AE71             >    ; CellType Empty_cell_name, no_way_script
  52++AE71 00          >    defb 00
  51++AE72             >    ; CellType Empty_cell_name, no_way_script
  52++AE72 00          >    defb 00
  51++AE73             >    ; CellType Empty_cell_name, no_way_script
  52++AE73 00          >    defb 00
  51++AE74             >    ; CellType Empty_cell_name, no_way_script
  52++AE74 00          >    defb 00
  51++AE75             >    ; CellType Empty_cell_name, no_way_script
  52++AE75 00          >    defb 00
  51++AE76             >    ; CellType Empty_cell_name, no_way_script
  52++AE76 00          >    defb 00
  51++AE77             >    ; CellType Empty_cell_name, no_way_script
  52++AE77 00          >    defb 00
  51++AE78             >    ; CellType Empty_cell_name, no_way_script
  52++AE78 00          >    defb 00
  51++AE79             >    ; CellType Empty_cell_name, no_way_script
  52++AE79 00          >    defb 00
  51++AE7A             >    ; CellType Empty_cell_name, no_way_script
  52++AE7A 00          >    defb 00
  51++AE7B             >    ; CellType Empty_cell_name, no_way_script
  52++AE7B 00          >    defb 00
  51++AE7C             >    ; CellType Empty_cell_name, no_way_script
  52++AE7C 00          >    defb 00
  51++AE7D             >    ; CellType Empty_cell_name, no_way_script
  52++AE7D 00          >    defb 00
  51++AE7E             >    ; CellType Empty_cell_name, no_way_script
  52++AE7E 00          >    defb 00
  51++AE7F             >    ; CellType Empty_cell_name, no_way_script
  52++AE7F 00          >    defb 00
  51++AE80             >    ; CellType Empty_cell_name, no_way_script
  52++AE80 00          >    defb 00
  51++AE81             >    ; CellType Empty_cell_name, no_way_script
  52++AE81 00          >    defb 00
  51++AE82             >    ; CellType Empty_cell_name, no_way_script
  52++AE82 00          >    defb 00
  51++AE83             >    ; CellType Empty_cell_name, no_way_script
  52++AE83 00          >    defb 00
  51++AE84             >    ; CellType Empty_cell_name, no_way_script
  52++AE84 00          >    defb 00
  51++AE85             >    ; CellType Empty_cell_name, no_way_script
  52++AE85 00          >    defb 00
  51++AE86             >    ; CellType Empty_cell_name, no_way_script
  52++AE86 00          >    defb 00
  51++AE87             >    ; CellType Empty_cell_name, no_way_script
  52++AE87 00          >    defb 00
  51++AE88             >    ; CellType Empty_cell_name, no_way_script
  52++AE88 00          >    defb 00
  51++AE89             >    ; CellType Empty_cell_name, no_way_script
  52++AE89 00          >    defb 00
  51++AE8A             >    ; CellType Empty_cell_name, no_way_script
  52++AE8A 00          >    defb 00
  51++AE8B             >    ; CellType Empty_cell_name, no_way_script
  52++AE8B 00          >    defb 00
  51++AE8C             >    ; CellType Empty_cell_name, no_way_script
  52++AE8C 00          >    defb 00
  51++AE8D             >    ; CellType Empty_cell_name, no_way_script
  52++AE8D 00          >    defb 00
  51++AE8E             >    ; CellType Empty_cell_name, no_way_script
  52++AE8E 00          >    defb 00
  51++AE8F             >    ; CellType Empty_cell_name, no_way_script
  52++AE8F 00          >    defb 00
  51++AE90             >    ; CellType Empty_cell_name, no_way_script
  52++AE90 00          >    defb 00
  51++AE91             >    ; CellType Empty_cell_name, no_way_script
  52++AE91 00          >    defb 00
  51++AE92             >    ; CellType Empty_cell_name, no_way_script
  52++AE92 00          >    defb 00
  51++AE93             >    ; CellType Empty_cell_name, no_way_script
  52++AE93 00          >    defb 00
  51++AE94             >    ; CellType Empty_cell_name, no_way_script
  52++AE94 00          >    defb 00
  51++AE95             >    ; CellType Empty_cell_name, no_way_script
  52++AE95 00          >    defb 00
  51++AE96             >    ; CellType Empty_cell_name, no_way_script
  52++AE96 00          >    defb 00
  51++AE97             >    ; CellType Empty_cell_name, no_way_script
  52++AE97 00          >    defb 00
  51++AE98             >    ; CellType Empty_cell_name, no_way_script
  52++AE98 00          >    defb 00
  51++AE99             >    ; CellType Empty_cell_name, no_way_script
  52++AE99 00          >    defb 00
  51++AE9A             >    ; CellType Empty_cell_name, no_way_script
  52++AE9A 00          >    defb 00
  51++AE9B             >    ; CellType Empty_cell_name, no_way_script
  52++AE9B 00          >    defb 00
  51++AE9C             >    ; CellType Empty_cell_name, no_way_script
  52++AE9C 00          >    defb 00
  51++AE9D             >    ; CellType Empty_cell_name, no_way_script
  52++AE9D 00          >    defb 00
  51++AE9E             >    ; CellType Empty_cell_name, no_way_script
  52++AE9E 00          >    defb 00
  51++AE9F             >    ; CellType Empty_cell_name, no_way_script
  52++AE9F 00          >    defb 00
  51++AEA0             >    ; CellType Empty_cell_name, no_way_script
  52++AEA0 00          >    defb 00
  51++AEA1             >    ; CellType Empty_cell_name, no_way_script
  52++AEA1 00          >    defb 00
  51++AEA2             >    ; CellType Empty_cell_name, no_way_script
  52++AEA2 00          >    defb 00
  51++AEA3             >    ; CellType Empty_cell_name, no_way_script
  52++AEA3 00          >    defb 00
  51++AEA4             >    ; CellType Empty_cell_name, no_way_script
  52++AEA4 00          >    defb 00
  51++AEA5             >    ; CellType Empty_cell_name, no_way_script
  52++AEA5 00          >    defb 00
  51++AEA6             >    ; CellType Empty_cell_name, no_way_script
  52++AEA6 00          >    defb 00
  51++AEA7             >    ; CellType Empty_cell_name, no_way_script
  52++AEA7 00          >    defb 00
  51++AEA8             >    ; CellType Empty_cell_name, no_way_script
  52++AEA8 00          >    defb 00
  51++AEA9             >    ; CellType Empty_cell_name, no_way_script
  52++AEA9 00          >    defb 00
  51++AEAA             >    ; CellType Empty_cell_name, no_way_script
  52++AEAA 00          >    defb 00
  51++AEAB             >    ; CellType Empty_cell_name, no_way_script
  52++AEAB 00          >    defb 00
  51++AEAC             >    ; CellType Empty_cell_name, no_way_script
  52++AEAC 00          >    defb 00
  51++AEAD             >    ; CellType Empty_cell_name, no_way_script
  52++AEAD 00          >    defb 00
  51++AEAE             >    ; CellType Empty_cell_name, no_way_script
  52++AEAE 00          >    defb 00
  51++AEAF             >    ; CellType Empty_cell_name, no_way_script
  52++AEAF 00          >    defb 00
  51++AEB0             >    ; CellType Empty_cell_name, no_way_script
  52++AEB0 00          >    defb 00
  51++AEB1             >    ; CellType Empty_cell_name, no_way_script
  52++AEB1 00          >    defb 00
  51++AEB2             >    ; CellType Empty_cell_name, no_way_script
  52++AEB2 00          >    defb 00
  51++AEB3             >    ; CellType Empty_cell_name, no_way_script
  52++AEB3 00          >    defb 00
  51++AEB4             >    ; CellType Empty_cell_name, no_way_script
  52++AEB4 00          >    defb 00
  51++AEB5             >    ; CellType Empty_cell_name, no_way_script
  52++AEB5 00          >    defb 00
  51++AEB6             >    ; CellType Empty_cell_name, no_way_script
  52++AEB6 00          >    defb 00
  51++AEB7             >    ; CellType Empty_cell_name, no_way_script
  52++AEB7 00          >    defb 00
  51++AEB8             >    ; CellType Empty_cell_name, no_way_script
  52++AEB8 00          >    defb 00
  51++AEB9             >    ; CellType Empty_cell_name, no_way_script
  52++AEB9 00          >    defb 00
  51++AEBA             >    ; CellType Empty_cell_name, no_way_script
  52++AEBA 00          >    defb 00
  51++AEBB             >    ; CellType Empty_cell_name, no_way_script
  52++AEBB 00          >    defb 00
  51++AEBC             >    ; CellType Empty_cell_name, no_way_script
  52++AEBC 00          >    defb 00
  51++AEBD             >    ; CellType Empty_cell_name, no_way_script
  52++AEBD 00          >    defb 00
  51++AEBE             >    ; CellType Empty_cell_name, no_way_script
  52++AEBE 00          >    defb 00
  51++AEBF             >    ; CellType Empty_cell_name, no_way_script
  52++AEBF 00          >    defb 00
  51++AEC0             >    ; CellType Empty_cell_name, no_way_script
  52++AEC0 00          >    defb 00
  51++AEC1             >    ; CellType Empty_cell_name, no_way_script
  52++AEC1 00          >    defb 00
  51++AEC2             >    ; CellType Empty_cell_name, no_way_script
  52++AEC2 00          >    defb 00
  51++AEC3             >    ; CellType Empty_cell_name, no_way_script
  52++AEC3 00          >    defb 00
  51++AEC4             >    ; CellType Empty_cell_name, no_way_script
  52++AEC4 00          >    defb 00
  51++AEC5             >    ; CellType Empty_cell_name, no_way_script
  52++AEC5 00          >    defb 00
  51++AEC6             >    ; CellType Empty_cell_name, no_way_script
  52++AEC6 00          >    defb 00
  51++AEC7             >    ; CellType Empty_cell_name, no_way_script
  52++AEC7 00          >    defb 00
  51++AEC8             >    ; CellType Empty_cell_name, no_way_script
  52++AEC8 00          >    defb 00
  51++AEC9             >    ; CellType Empty_cell_name, no_way_script
  52++AEC9 00          >    defb 00
  51++AECA             >    ; CellType Empty_cell_name, no_way_script
  52++AECA 00          >    defb 00
  51++AECB             >    ; CellType Empty_cell_name, no_way_script
  52++AECB 00          >    defb 00
  51++AECC             >    ; CellType Empty_cell_name, no_way_script
  52++AECC 00          >    defb 00
  51++AECD             >    ; CellType Empty_cell_name, no_way_script
  52++AECD 00          >    defb 00
  51++AECE             >    ; CellType Empty_cell_name, no_way_script
  52++AECE 00          >    defb 00
  51++AECF             >    ; CellType Empty_cell_name, no_way_script
  52++AECF 00          >    defb 00
  51++AED0             >    ; CellType Empty_cell_name, no_way_script
  52++AED0 00          >    defb 00
  51++AED1             >    ; CellType Empty_cell_name, no_way_script
  52++AED1 00          >    defb 00
  51++AED2             >    ; CellType Empty_cell_name, no_way_script
  52++AED2 00          >    defb 00
  51++AED3             >    ; CellType Empty_cell_name, no_way_script
  52++AED3 00          >    defb 00
  51++AED4             >    ; CellType Empty_cell_name, no_way_script
  52++AED4 00          >    defb 00
  51++AED5             >    ; CellType Empty_cell_name, no_way_script
  52++AED5 00          >    defb 00
  51++AED6             >    ; CellType Empty_cell_name, no_way_script
  52++AED6 00          >    defb 00
  51++AED7             >    ; CellType Empty_cell_name, no_way_script
  52++AED7 00          >    defb 00
  51++AED8             >    ; CellType Empty_cell_name, no_way_script
  52++AED8 00          >    defb 00
  51++AED9             >    ; CellType Empty_cell_name, no_way_script
  52++AED9 00          >    defb 00
  51++AEDA             >    ; CellType Empty_cell_name, no_way_script
  52++AEDA 00          >    defb 00
  51++AEDB             >    ; CellType Empty_cell_name, no_way_script
  52++AEDB 00          >    defb 00
  51++AEDC             >    ; CellType Empty_cell_name, no_way_script
  52++AEDC 00          >    defb 00
  51++AEDD             >    ; CellType Empty_cell_name, no_way_script
  52++AEDD 00          >    defb 00
  51++AEDE             >    ; CellType Empty_cell_name, no_way_script
  52++AEDE 00          >    defb 00
  51++AEDF             >    ; CellType Empty_cell_name, no_way_script
  52++AEDF 00          >    defb 00
  51++AEE0             >    ; CellType Empty_cell_name, no_way_script
  52++AEE0 00          >    defb 00
  51++AEE1             >    ; CellType Empty_cell_name, no_way_script
  52++AEE1 00          >    defb 00
  51++AEE2             >    ; CellType Empty_cell_name, no_way_script
  52++AEE2 00          >    defb 00
  51++AEE3             >    ; CellType Empty_cell_name, no_way_script
  52++AEE3 00          >    defb 00
  51++AEE4             >    ; CellType Empty_cell_name, no_way_script
  52++AEE4 00          >    defb 00
  51++AEE5             >    ; CellType Empty_cell_name, no_way_script
  52++AEE5 00          >    defb 00
  51++AEE6             >    ; CellType Empty_cell_name, no_way_script
  52++AEE6 00          >    defb 00
  51++AEE7             >    ; CellType Empty_cell_name, no_way_script
  52++AEE7 00          >    defb 00
  51++AEE8             >    ; CellType Empty_cell_name, no_way_script
  52++AEE8 00          >    defb 00
  51++AEE9             >    ; CellType Empty_cell_name, no_way_script
  52++AEE9 00          >    defb 00
  51++AEEA             >    ; CellType Empty_cell_name, no_way_script
  52++AEEA 00          >    defb 00
  51++AEEB             >    ; CellType Empty_cell_name, no_way_script
  52++AEEB 00          >    defb 00
  51++AEEC             >    ; CellType Empty_cell_name, no_way_script
  52++AEEC 00          >    defb 00
  51++AEED             >    ; CellType Empty_cell_name, no_way_script
  52++AEED 00          >    defb 00
  51++AEEE             >    ; CellType Empty_cell_name, no_way_script
  52++AEEE 00          >    defb 00
  51++AEEF             >    ; CellType Empty_cell_name, no_way_script
  52++AEEF 00          >    defb 00
  51++AEF0             >    ; CellType Empty_cell_name, no_way_script
  52++AEF0 00          >    defb 00
  51++AEF1             >    ; CellType Empty_cell_name, no_way_script
  52++AEF1 00          >    defb 00
  51++AEF2             >    ; CellType Empty_cell_name, no_way_script
  52++AEF2 00          >    defb 00
  51++AEF3             >    ; CellType Empty_cell_name, no_way_script
  52++AEF3 00          >    defb 00
  51++AEF4             >    ; CellType Empty_cell_name, no_way_script
  52++AEF4 00          >    defb 00
  51++AEF5             >    ; CellType Empty_cell_name, no_way_script
  52++AEF5 00          >    defb 00
  51++AEF6             >    ; CellType Empty_cell_name, no_way_script
  52++AEF6 00          >    defb 00
  51++AEF7             >    ; CellType Empty_cell_name, no_way_script
  52++AEF7 00          >    defb 00
  51++AEF8             >    ; CellType Empty_cell_name, no_way_script
  52++AEF8 00          >    defb 00
  51++AEF9             >    ; CellType Empty_cell_name, no_way_script
  52++AEF9 00          >    defb 00
  51++AEFA             >    ; CellType Empty_cell_name, no_way_script
  52++AEFA 00          >    defb 00
  51++AEFB             >    ; CellType Empty_cell_name, no_way_script
  52++AEFB 00          >    defb 00
  51++AEFC             >    ; CellType Empty_cell_name, no_way_script
  52++AEFC 00          >    defb 00
  51++AEFD             >    ; CellType Empty_cell_name, no_way_script
  52++AEFD 00          >    defb 00
  51++AEFE             >    ; CellType Empty_cell_name, no_way_script
  52++AEFE 00          >    defb 00
  51++AEFF             >    ; CellType Empty_cell_name, no_way_script
  52++AEFF 00          >    defb 00
  51++AF00             >    ; CellType Empty_cell_name, no_way_script
  52++AF00 00          >    defb 00
  51++AF01             >    ; CellType Empty_cell_name, no_way_script
  52++AF01 00          >    defb 00
  51++AF02             >    ; CellType Empty_cell_name, no_way_script
  52++AF02 00          >    defb 00
  51++AF03             >    ; CellType Empty_cell_name, no_way_script
  52++AF03 00          >    defb 00
  51++AF04             >    ; CellType Empty_cell_name, no_way_script
  52++AF04 00          >    defb 00
  51++AF05             >    ; CellType Empty_cell_name, no_way_script
  52++AF05 00          >    defb 00
  51++AF06             >    ; CellType Empty_cell_name, no_way_script
  52++AF06 00          >    defb 00
  51++AF07             >    ; CellType Empty_cell_name, no_way_script
  52++AF07 00          >    defb 00
  51++AF08             >    ; CellType Empty_cell_name, no_way_script
  52++AF08 00          >    defb 00
  51++AF09             >    ; CellType Empty_cell_name, no_way_script
  52++AF09 00          >    defb 00
  51++AF0A             >    ; CellType Empty_cell_name, no_way_script
  52++AF0A 00          >    defb 00
  51++AF0B             >    ; CellType Empty_cell_name, no_way_script
  52++AF0B 00          >    defb 00
  51++AF0C             >    ; CellType Empty_cell_name, no_way_script
  52++AF0C 00          >    defb 00
  51++AF0D             >    ; CellType Empty_cell_name, no_way_script
  52++AF0D 00          >    defb 00
  51++AF0E             >    ; CellType Empty_cell_name, no_way_script
  52++AF0E 00          >    defb 00
  51++AF0F             >    ; CellType Empty_cell_name, no_way_script
  52++AF0F 00          >    defb 00
  51++AF10             >    ; CellType Empty_cell_name, no_way_script
  52++AF10 00          >    defb 00
  51++AF11             >    ; CellType Empty_cell_name, no_way_script
  52++AF11 00          >    defb 00
  51++AF12             >    ; CellType Empty_cell_name, no_way_script
  52++AF12 00          >    defb 00
  51++AF13             >    ; CellType Empty_cell_name, no_way_script
  52++AF13 00          >    defb 00
  51++AF14             >    ; CellType Empty_cell_name, no_way_script
  52++AF14 00          >    defb 00
  51++AF15             >    ; CellType Empty_cell_name, no_way_script
  52++AF15 00          >    defb 00
  51++AF16             >    ; CellType Empty_cell_name, no_way_script
  52++AF16 00          >    defb 00
  51++AF17             >    ; CellType Empty_cell_name, no_way_script
  52++AF17 00          >    defb 00
  51++AF18             >    ; CellType Empty_cell_name, no_way_script
  52++AF18 00          >    defb 00
  51++AF19             >    ; CellType Empty_cell_name, no_way_script
  52++AF19 00          >    defb 00
  51++AF1A             >    ; CellType Empty_cell_name, no_way_script
  52++AF1A 00          >    defb 00
  51++AF1B             >    ; CellType Empty_cell_name, no_way_script
  52++AF1B 00          >    defb 00
  51++AF1C             >    ; CellType Empty_cell_name, no_way_script
  52++AF1C 00          >    defb 00
  51++AF1D             >    ; CellType Empty_cell_name, no_way_script
  52++AF1D 00          >    defb 00
  51++AF1E             >    ; CellType Empty_cell_name, no_way_script
  52++AF1E 00          >    defb 00
  51++AF1F             >    ; CellType Empty_cell_name, no_way_script
  52++AF1F 00          >    defb 00
  51++AF20             >    ; CellType Empty_cell_name, no_way_script
  52++AF20 00          >    defb 00
  51++AF21             >    ; CellType Empty_cell_name, no_way_script
  52++AF21 00          >    defb 00
  51++AF22             >    ; CellType Empty_cell_name, no_way_script
  52++AF22 00          >    defb 00
  51++AF23             >    ; CellType Empty_cell_name, no_way_script
  52++AF23 00          >    defb 00
  51++AF24             >    ; CellType Empty_cell_name, no_way_script
  52++AF24 00          >    defb 00
  51++AF25             >    ; CellType Empty_cell_name, no_way_script
  52++AF25 00          >    defb 00
  51++AF26             >    ; CellType Empty_cell_name, no_way_script
  52++AF26 00          >    defb 00
  51++AF27             >    ; CellType Empty_cell_name, no_way_script
  52++AF27 00          >    defb 00
  51++AF28             >    ; CellType Empty_cell_name, no_way_script
  52++AF28 00          >    defb 00
  51++AF29             >    ; CellType Empty_cell_name, no_way_script
  52++AF29 00          >    defb 00
  51++AF2A             >    ; CellType Empty_cell_name, no_way_script
  52++AF2A 00          >    defb 00
  51++AF2B             >    ; CellType Empty_cell_name, no_way_script
  52++AF2B 00          >    defb 00
  51++AF2C             >    ; CellType Empty_cell_name, no_way_script
  52++AF2C 00          >    defb 00
  51++AF2D             >    ; CellType Empty_cell_name, no_way_script
  52++AF2D 00          >    defb 00
  51++AF2E             >    ; CellType Empty_cell_name, no_way_script
  52++AF2E 00          >    defb 00
  51++AF2F             >    ; CellType Empty_cell_name, no_way_script
  52++AF2F 00          >    defb 00
  51++AF30             >    ; CellType Empty_cell_name, no_way_script
  52++AF30 00          >    defb 00
  51++AF31             >    ; CellType Empty_cell_name, no_way_script
  52++AF31 00          >    defb 00
  51++AF32             >    ; CellType Empty_cell_name, no_way_script
  52++AF32 00          >    defb 00
  51++AF33             >    ; CellType Empty_cell_name, no_way_script
  52++AF33 00          >    defb 00
  51++AF34             >    ; CellType Empty_cell_name, no_way_script
  52++AF34 00          >    defb 00
  51++AF35             >    ; CellType Empty_cell_name, no_way_script
  52++AF35 00          >    defb 00
  51++AF36             >    ; CellType Empty_cell_name, no_way_script
  52++AF36 00          >    defb 00
  51++AF37             >    ; CellType Empty_cell_name, no_way_script
  52++AF37 00          >    defb 00
  51++AF38             >    ; CellType Empty_cell_name, no_way_script
  52++AF38 00          >    defb 00
  51++AF39             >    ; CellType Empty_cell_name, no_way_script
  52++AF39 00          >    defb 00
  51++AF3A             >    ; CellType Empty_cell_name, no_way_script
  52++AF3A 00          >    defb 00
  51++AF3B             >    ; CellType Empty_cell_name, no_way_script
  52++AF3B 00          >    defb 00
  51++AF3C             >    ; CellType Empty_cell_name, no_way_script
  52++AF3C 00          >    defb 00
  51++AF3D             >    ; CellType Empty_cell_name, no_way_script
  52++AF3D 00          >    defb 00
  51++AF3E             >    ; CellType Empty_cell_name, no_way_script
  52++AF3E 00          >    defb 00
  51++AF3F             >    ; CellType Empty_cell_name, no_way_script
  52++AF3F 00          >    defb 00
  51++AF40             >    ; CellType Empty_cell_name, no_way_script
  52++AF40 00          >    defb 00
  51++AF41             >    ; CellType Empty_cell_name, no_way_script
  52++AF41 00          >    defb 00
  51++AF42             >    ; CellType Empty_cell_name, no_way_script
  52++AF42 00          >    defb 00
  51++AF43             >    ; CellType Empty_cell_name, no_way_script
  52++AF43 00          >    defb 00
  51++AF44             >    ; CellType Empty_cell_name, no_way_script
  52++AF44 00          >    defb 00
  51++AF45             >    ; CellType Empty_cell_name, no_way_script
  52++AF45 00          >    defb 00
  51++AF46             >    ; CellType Empty_cell_name, no_way_script
  52++AF46 00          >    defb 00
  51++AF47             >    ; CellType Empty_cell_name, no_way_script
  52++AF47 00          >    defb 00
  51++AF48             >    ; CellType Empty_cell_name, no_way_script
  52++AF48 00          >    defb 00
  51++AF49             >    ; CellType Empty_cell_name, no_way_script
  52++AF49 00          >    defb 00
  51++AF4A             >    ; CellType Empty_cell_name, no_way_script
  52++AF4A 00          >    defb 00
  51++AF4B             >    ; CellType Empty_cell_name, no_way_script
  52++AF4B 00          >    defb 00
  51++AF4C             >    ; CellType Empty_cell_name, no_way_script
  52++AF4C 00          >    defb 00
  51++AF4D             >    ; CellType Empty_cell_name, no_way_script
  52++AF4D 00          >    defb 00
  51++AF4E             >    ; CellType Empty_cell_name, no_way_script
  52++AF4E 00          >    defb 00
  51++AF4F             >    ; CellType Empty_cell_name, no_way_script
  52++AF4F 00          >    defb 00
  51++AF50             >    ; CellType Empty_cell_name, no_way_script
  52++AF50 00          >    defb 00
  51++AF51             >    ; CellType Empty_cell_name, no_way_script
  52++AF51 00          >    defb 00
  51++AF52             >    ; CellType Empty_cell_name, no_way_script
  52++AF52 00          >    defb 00
  51++AF53             >    ; CellType Empty_cell_name, no_way_script
  52++AF53 00          >    defb 00
  51++AF54             >    ; CellType Empty_cell_name, no_way_script
  52++AF54 00          >    defb 00
  51++AF55             >    ; CellType Empty_cell_name, no_way_script
  52++AF55 00          >    defb 00
  51++AF56             >    ; CellType Empty_cell_name, no_way_script
  52++AF56 00          >    defb 00
  51++AF57             >    ; CellType Empty_cell_name, no_way_script
  52++AF57 00          >    defb 00
  51++AF58             >    ; CellType Empty_cell_name, no_way_script
  52++AF58 00          >    defb 00
  51++AF59             >    ; CellType Empty_cell_name, no_way_script
  52++AF59 00          >    defb 00
  51++AF5A             >    ; CellType Empty_cell_name, no_way_script
  52++AF5A 00          >    defb 00
  51++AF5B             >    ; CellType Empty_cell_name, no_way_script
  52++AF5B 00          >    defb 00
  51++AF5C             >    ; CellType Empty_cell_name, no_way_script
  52++AF5C 00          >    defb 00
  51++AF5D             >    ; CellType Empty_cell_name, no_way_script
  52++AF5D 00          >    defb 00
  51++AF5E             >    ; CellType Empty_cell_name, no_way_script
  52++AF5E 00          >    defb 00
  51++AF5F             >    ; CellType Empty_cell_name, no_way_script
  52++AF5F 00          >    defb 00
  51++AF60             >    ; CellType Empty_cell_name, no_way_script
  52++AF60 00          >    defb 00
  51++AF61             >    ; CellType Empty_cell_name, no_way_script
  52++AF61 00          >    defb 00
  51++AF62             >    ; CellType Empty_cell_name, no_way_script
  52++AF62 00          >    defb 00
  51++AF63             >    ; CellType Empty_cell_name, no_way_script
  52++AF63 00          >    defb 00
  51++AF64             >    ; CellType Empty_cell_name, no_way_script
  52++AF64 00          >    defb 00
  51++AF65             >    ; CellType Empty_cell_name, no_way_script
  52++AF65 00          >    defb 00
  51++AF66             >    ; CellType Empty_cell_name, no_way_script
  52++AF66 00          >    defb 00
  51++AF67             >    ; CellType Empty_cell_name, no_way_script
  52++AF67 00          >    defb 00
  51++AF68             >    ; CellType Empty_cell_name, no_way_script
  52++AF68 00          >    defb 00
  51++AF69             >    ; CellType Empty_cell_name, no_way_script
  52++AF69 00          >    defb 00
  51++AF6A             >    ; CellType Empty_cell_name, no_way_script
  52++AF6A 00          >    defb 00
  51++AF6B             >    ; CellType Empty_cell_name, no_way_script
  52++AF6B 00          >    defb 00
  51++AF6C             >    ; CellType Empty_cell_name, no_way_script
  52++AF6C 00          >    defb 00
  51++AF6D             >    ; CellType Empty_cell_name, no_way_script
  52++AF6D 00          >    defb 00
  51++AF6E             >    ; CellType Empty_cell_name, no_way_script
  52++AF6E 00          >    defb 00
  51++AF6F             >    ; CellType Empty_cell_name, no_way_script
  52++AF6F 00          >    defb 00
  51++AF70             >    ; CellType Empty_cell_name, no_way_script
  52++AF70 00          >    defb 00
  51++AF71             >    ; CellType Empty_cell_name, no_way_script
  52++AF71 00          >    defb 00
  51++AF72             >    ; CellType Empty_cell_name, no_way_script
  52++AF72 00          >    defb 00
  51++AF73             >    ; CellType Empty_cell_name, no_way_script
  52++AF73 00          >    defb 00
  51++AF74             >    ; CellType Empty_cell_name, no_way_script
  52++AF74 00          >    defb 00
  51++AF75             >    ; CellType Empty_cell_name, no_way_script
  52++AF75 00          >    defb 00
  51++AF76             >    ; CellType Empty_cell_name, no_way_script
  52++AF76 00          >    defb 00
  51++AF77             >    ; CellType Empty_cell_name, no_way_script
  52++AF77 00          >    defb 00
  51++AF78             >    ; CellType Empty_cell_name, no_way_script
  52++AF78 00          >    defb 00
  51++AF79             >    ; CellType Empty_cell_name, no_way_script
  52++AF79 00          >    defb 00
  51++AF7A             >    ; CellType Empty_cell_name, no_way_script
  52++AF7A 00          >    defb 00
  51++AF7B             >    ; CellType Empty_cell_name, no_way_script
  52++AF7B 00          >    defb 00
  51++AF7C             >    ; CellType Empty_cell_name, no_way_script
  52++AF7C 00          >    defb 00
  51++AF7D             >    ; CellType Empty_cell_name, no_way_script
  52++AF7D 00          >    defb 00
  51++AF7E             >    ; CellType Empty_cell_name, no_way_script
  52++AF7E 00          >    defb 00
  51++AF7F             >    ; CellType Empty_cell_name, no_way_script
  52++AF7F 00          >    defb 00
  51++AF80             >    ; CellType Empty_cell_name, no_way_script
  52++AF80 00          >    defb 00
  51++AF81             >    ; CellType Empty_cell_name, no_way_script
  52++AF81 00          >    defb 00
  51++AF82             >    ; CellType Empty_cell_name, no_way_script
  52++AF82 00          >    defb 00
  51++AF83             >    ; CellType Empty_cell_name, no_way_script
  52++AF83 00          >    defb 00
  51++AF84             >    ; CellType Empty_cell_name, no_way_script
  52++AF84 00          >    defb 00
  51++AF85             >    ; CellType Empty_cell_name, no_way_script
  52++AF85 00          >    defb 00
  51++AF86             >    ; CellType Empty_cell_name, no_way_script
  52++AF86 00          >    defb 00
  51++AF87             >    ; CellType Empty_cell_name, no_way_script
  52++AF87 00          >    defb 00
  51++AF88             >    ; CellType Empty_cell_name, no_way_script
  52++AF88 00          >    defb 00
  51++AF89             >    ; CellType Empty_cell_name, no_way_script
  52++AF89 00          >    defb 00
  51++AF8A             >    ; CellType Empty_cell_name, no_way_script
  52++AF8A 00          >    defb 00
  51++AF8B             >    ; CellType Empty_cell_name, no_way_script
  52++AF8B 00          >    defb 00
  51++AF8C             >    ; CellType Empty_cell_name, no_way_script
  52++AF8C 00          >    defb 00
  51++AF8D             >    ; CellType Empty_cell_name, no_way_script
  52++AF8D 00          >    defb 00
  51++AF8E             >    ; CellType Empty_cell_name, no_way_script
  52++AF8E 00          >    defb 00
  51++AF8F             >    ; CellType Empty_cell_name, no_way_script
  52++AF8F 00          >    defb 00
  51++AF90             >    ; CellType Empty_cell_name, no_way_script
  52++AF90 00          >    defb 00
  51++AF91             >    ; CellType Empty_cell_name, no_way_script
  52++AF91 00          >    defb 00
  51++AF92             >    ; CellType Empty_cell_name, no_way_script
  52++AF92 00          >    defb 00
  51++AF93             >    ; CellType Empty_cell_name, no_way_script
  52++AF93 00          >    defb 00
  51++AF94             >    ; CellType Empty_cell_name, no_way_script
  52++AF94 00          >    defb 00
  51++AF95             >    ; CellType Empty_cell_name, no_way_script
  52++AF95 00          >    defb 00
  51++AF96             >    ; CellType Empty_cell_name, no_way_script
  52++AF96 00          >    defb 00
  51++AF97             >    ; CellType Empty_cell_name, no_way_script
  52++AF97 00          >    defb 00
  51++AF98             >    ; CellType Empty_cell_name, no_way_script
  52++AF98 00          >    defb 00
  51++AF99             >    ; CellType Empty_cell_name, no_way_script
  52++AF99 00          >    defb 00
  51++AF9A             >    ; CellType Empty_cell_name, no_way_script
  52++AF9A 00          >    defb 00
  51++AF9B             >    ; CellType Empty_cell_name, no_way_script
  52++AF9B 00          >    defb 00
  51++AF9C             >    ; CellType Empty_cell_name, no_way_script
  52++AF9C 00          >    defb 00
  51++AF9D             >    ; CellType Empty_cell_name, no_way_script
  52++AF9D 00          >    defb 00
  51++AF9E             >    ; CellType Empty_cell_name, no_way_script
  52++AF9E 00          >    defb 00
  51++AF9F             >    ; CellType Empty_cell_name, no_way_script
  52++AF9F 00          >    defb 00
  51++AFA0             >    ; CellType Empty_cell_name, no_way_script
  52++AFA0 00          >    defb 00
  51++AFA1             >    ; CellType Empty_cell_name, no_way_script
  52++AFA1 00          >    defb 00
  51++AFA2             >    ; CellType Empty_cell_name, no_way_script
  52++AFA2 00          >    defb 00
  51++AFA3             >    ; CellType Empty_cell_name, no_way_script
  52++AFA3 00          >    defb 00
  51++AFA4             >    ; CellType Empty_cell_name, no_way_script
  52++AFA4 00          >    defb 00
  51++AFA5             >    ; CellType Empty_cell_name, no_way_script
  52++AFA5 00          >    defb 00
  51++AFA6             >    ; CellType Empty_cell_name, no_way_script
  52++AFA6 00          >    defb 00
  51++AFA7             >    ; CellType Empty_cell_name, no_way_script
  52++AFA7 00          >    defb 00
  51++AFA8             >    ; CellType Empty_cell_name, no_way_script
  52++AFA8 00          >    defb 00
  51++AFA9             >    ; CellType Empty_cell_name, no_way_script
  52++AFA9 00          >    defb 00
  51++AFAA             >    ; CellType Empty_cell_name, no_way_script
  52++AFAA 00          >    defb 00
  51++AFAB             >    ; CellType Empty_cell_name, no_way_script
  52++AFAB 00          >    defb 00
  51++AFAC             >    ; CellType Empty_cell_name, no_way_script
  52++AFAC 00          >    defb 00
  51++AFAD             >    ; CellType Empty_cell_name, no_way_script
  52++AFAD 00          >    defb 00
  51++AFAE             >    ; CellType Empty_cell_name, no_way_script
  52++AFAE 00          >    defb 00
  51++AFAF             >    ; CellType Empty_cell_name, no_way_script
  52++AFAF 00          >    defb 00
  51++AFB0             >    ; CellType Empty_cell_name, no_way_script
  52++AFB0 00          >    defb 00
  51++AFB1             >    ; CellType Empty_cell_name, no_way_script
  52++AFB1 00          >    defb 00
  51++AFB2             >    ; CellType Empty_cell_name, no_way_script
  52++AFB2 00          >    defb 00
  51++AFB3             >    ; CellType Empty_cell_name, no_way_script
  52++AFB3 00          >    defb 00
  51++AFB4             >    ; CellType Empty_cell_name, no_way_script
  52++AFB4 00          >    defb 00
  51++AFB5             >    ; CellType Empty_cell_name, no_way_script
  52++AFB5 00          >    defb 00
  51++AFB6             >    ; CellType Empty_cell_name, no_way_script
  52++AFB6 00          >    defb 00
  51++AFB7             >    ; CellType Empty_cell_name, no_way_script
  52++AFB7 00          >    defb 00
  51++AFB8             >    ; CellType Empty_cell_name, no_way_script
  52++AFB8 00          >    defb 00
  51++AFB9             >    ; CellType Empty_cell_name, no_way_script
  52++AFB9 00          >    defb 00
  51++AFBA             >    ; CellType Empty_cell_name, no_way_script
  52++AFBA 00          >    defb 00
  51++AFBB             >    ; CellType Empty_cell_name, no_way_script
  52++AFBB 00          >    defb 00
  51++AFBC             >    ; CellType Empty_cell_name, no_way_script
  52++AFBC 00          >    defb 00
  51++AFBD             >    ; CellType Empty_cell_name, no_way_script
  52++AFBD 00          >    defb 00
  51++AFBE             >    ; CellType Empty_cell_name, no_way_script
  52++AFBE 00          >    defb 00
  51++AFBF             >    ; CellType Empty_cell_name, no_way_script
  52++AFBF 00          >    defb 00
  51++AFC0             >    ; CellType Empty_cell_name, no_way_script
  52++AFC0 00          >    defb 00
  51++AFC1             >    ; CellType Empty_cell_name, no_way_script
  52++AFC1 00          >    defb 00
  51++AFC2             >    ; CellType Empty_cell_name, no_way_script
  52++AFC2 00          >    defb 00
  51++AFC3             >    ; CellType Empty_cell_name, no_way_script
  52++AFC3 00          >    defb 00
  51++AFC4             >    ; CellType Empty_cell_name, no_way_script
  52++AFC4 00          >    defb 00
  51++AFC5             >    ; CellType Empty_cell_name, no_way_script
  52++AFC5 00          >    defb 00
  51++AFC6             >    ; CellType Empty_cell_name, no_way_script
  52++AFC6 00          >    defb 00
  51++AFC7             >    ; CellType Empty_cell_name, no_way_script
  52++AFC7 00          >    defb 00
  51++AFC8             >    ; CellType Empty_cell_name, no_way_script
  52++AFC8 00          >    defb 00
  51++AFC9             >    ; CellType Empty_cell_name, no_way_script
  52++AFC9 00          >    defb 00
  51++AFCA             >    ; CellType Empty_cell_name, no_way_script
  52++AFCA 00          >    defb 00
  51++AFCB             >    ; CellType Empty_cell_name, no_way_script
  52++AFCB 00          >    defb 00
  51++AFCC             >    ; CellType Empty_cell_name, no_way_script
  52++AFCC 00          >    defb 00
  51++AFCD             >    ; CellType Empty_cell_name, no_way_script
  52++AFCD 00          >    defb 00
  51++AFCE             >    ; CellType Empty_cell_name, no_way_script
  52++AFCE 00          >    defb 00
  51++AFCF             >    ; CellType Empty_cell_name, no_way_script
  52++AFCF 00          >    defb 00
  51++AFD0             >    ; CellType Empty_cell_name, no_way_script
  52++AFD0 00          >    defb 00
  51++AFD1             >    ; CellType Empty_cell_name, no_way_script
  52++AFD1 00          >    defb 00
  51++AFD2             >    ; CellType Empty_cell_name, no_way_script
  52++AFD2 00          >    defb 00
  51++AFD3             >    ; CellType Empty_cell_name, no_way_script
  52++AFD3 00          >    defb 00
  51++AFD4             >    ; CellType Empty_cell_name, no_way_script
  52++AFD4 00          >    defb 00
  51++AFD5             >    ; CellType Empty_cell_name, no_way_script
  52++AFD5 00          >    defb 00
  51++AFD6             >    ; CellType Empty_cell_name, no_way_script
  52++AFD6 00          >    defb 00
  51++AFD7             >    ; CellType Empty_cell_name, no_way_script
  52++AFD7 00          >    defb 00
  51++AFD8             >    ; CellType Empty_cell_name, no_way_script
  52++AFD8 00          >    defb 00
  51++AFD9             >    ; CellType Empty_cell_name, no_way_script
  52++AFD9 00          >    defb 00
  51++AFDA             >    ; CellType Empty_cell_name, no_way_script
  52++AFDA 00          >    defb 00
  51++AFDB             >    ; CellType Empty_cell_name, no_way_script
  52++AFDB 00          >    defb 00
  51++AFDC             >    ; CellType Empty_cell_name, no_way_script
  52++AFDC 00          >    defb 00
  51++AFDD             >    ; CellType Empty_cell_name, no_way_script
  52++AFDD 00          >    defb 00
  51++AFDE             >    ; CellType Empty_cell_name, no_way_script
  52++AFDE 00          >    defb 00
  51++AFDF             >    ; CellType Empty_cell_name, no_way_script
  52++AFDF 00          >    defb 00
  51++AFE0             >    ; CellType Empty_cell_name, no_way_script
  52++AFE0 00          >    defb 00
  51++AFE1             >    ; CellType Empty_cell_name, no_way_script
  52++AFE1 00          >    defb 00
  51++AFE2             >    ; CellType Empty_cell_name, no_way_script
  52++AFE2 00          >    defb 00
  51++AFE3             >    ; CellType Empty_cell_name, no_way_script
  52++AFE3 00          >    defb 00
  51++AFE4             >    ; CellType Empty_cell_name, no_way_script
  52++AFE4 00          >    defb 00
  51++AFE5             >    ; CellType Empty_cell_name, no_way_script
  52++AFE5 00          >    defb 00
  51++AFE6             >    ; CellType Empty_cell_name, no_way_script
  52++AFE6 00          >    defb 00
  51++AFE7             >    ; CellType Empty_cell_name, no_way_script
  52++AFE7 00          >    defb 00
  51++AFE8             >    ; CellType Empty_cell_name, no_way_script
  52++AFE8 00          >    defb 00
  51++AFE9             >    ; CellType Empty_cell_name, no_way_script
  52++AFE9 00          >    defb 00
  51++AFEA             >    ; CellType Empty_cell_name, no_way_script
  52++AFEA 00          >    defb 00
  51++AFEB             >    ; CellType Empty_cell_name, no_way_script
  52++AFEB 00          >    defb 00
  51++AFEC             >    ; CellType Empty_cell_name, no_way_script
  52++AFEC 00          >    defb 00
  51++AFED             >    ; CellType Empty_cell_name, no_way_script
  52++AFED 00          >    defb 00
  51++AFEE             >    ; CellType Empty_cell_name, no_way_script
  52++AFEE 00          >    defb 00
  51++AFEF             >    ; CellType Empty_cell_name, no_way_script
  52++AFEF 00          >    defb 00
  51++AFF0             >    ; CellType Empty_cell_name, no_way_script
  52++AFF0 00          >    defb 00
  51++AFF1             >    ; CellType Empty_cell_name, no_way_script
  52++AFF1 00          >    defb 00
  51++AFF2             >    ; CellType Empty_cell_name, no_way_script
  52++AFF2 00          >    defb 00
  51++AFF3             >    ; CellType Empty_cell_name, no_way_script
  52++AFF3 00          >    defb 00
  51++AFF4             >    ; CellType Empty_cell_name, no_way_script
  52++AFF4 00          >    defb 00
  51++AFF5             >    ; CellType Empty_cell_name, no_way_script
  52++AFF5 00          >    defb 00
  51++AFF6             >    ; CellType Empty_cell_name, no_way_script
  52++AFF6 00          >    defb 00
  51++AFF7             >    ; CellType Empty_cell_name, no_way_script
  52++AFF7 00          >    defb 00
  51++AFF8             >    ; CellType Empty_cell_name, no_way_script
  52++AFF8 00          >    defb 00
  51++AFF9             >    ; CellType Empty_cell_name, no_way_script
  52++AFF9 00          >    defb 00
  51++AFFA             >    ; CellType Empty_cell_name, no_way_script
  52++AFFA 00          >    defb 00
  51++AFFB             >    ; CellType Empty_cell_name, no_way_script
  52++AFFB 00          >    defb 00
  51++AFFC             >    ; CellType Empty_cell_name, no_way_script
  52++AFFC 00          >    defb 00
  51++AFFD             >    ; CellType Empty_cell_name, no_way_script
  52++AFFD 00          >    defb 00
  51++AFFE             >    ; CellType Empty_cell_name, no_way_script
  52++AFFE 00          >    defb 00
  51++AFFF             >    ; CellType Empty_cell_name, no_way_script
  52++AFFF 00          >    defb 00
  51++B000             >    ; CellType Empty_cell_name, no_way_script
  52++B000 00          >    defb 00
  51++B001             >    ; CellType Empty_cell_name, no_way_script
  52++B001 00          >    defb 00
  51++B002             >    ; CellType Empty_cell_name, no_way_script
  52++B002 00          >    defb 00
  51++B003             >    ; CellType Empty_cell_name, no_way_script
  52++B003 00          >    defb 00
  51++B004             >    ; CellType Empty_cell_name, no_way_script
  52++B004 00          >    defb 00
  51++B005             >    ; CellType Empty_cell_name, no_way_script
  52++B005 00          >    defb 00
  51++B006             >    ; CellType Empty_cell_name, no_way_script
  52++B006 00          >    defb 00
  51++B007             >    ; CellType Empty_cell_name, no_way_script
  52++B007 00          >    defb 00
  51++B008             >    ; CellType Empty_cell_name, no_way_script
  52++B008 00          >    defb 00
  51++B009             >    ; CellType Empty_cell_name, no_way_script
  52++B009 00          >    defb 00
  51++B00A             >    ; CellType Empty_cell_name, no_way_script
  52++B00A 00          >    defb 00
  51++B00B             >    ; CellType Empty_cell_name, no_way_script
  52++B00B 00          >    defb 00
  51++B00C             >    ; CellType Empty_cell_name, no_way_script
  52++B00C 00          >    defb 00
  51++B00D             >    ; CellType Empty_cell_name, no_way_script
  52++B00D 00          >    defb 00
  51++B00E             >    ; CellType Empty_cell_name, no_way_script
  52++B00E 00          >    defb 00
  51++B00F             >    ; CellType Empty_cell_name, no_way_script
  52++B00F 00          >    defb 00
  51++B010             >    ; CellType Empty_cell_name, no_way_script
  52++B010 00          >    defb 00
  51++B011             >    ; CellType Empty_cell_name, no_way_script
  52++B011 00          >    defb 00
  51++B012             >    ; CellType Empty_cell_name, no_way_script
  52++B012 00          >    defb 00
  51++B013             >    ; CellType Empty_cell_name, no_way_script
  52++B013 00          >    defb 00
  51++B014             >    ; CellType Empty_cell_name, no_way_script
  52++B014 00          >    defb 00
  51++B015             >    ; CellType Empty_cell_name, no_way_script
  52++B015 00          >    defb 00
  51++B016             >    ; CellType Empty_cell_name, no_way_script
  52++B016 00          >    defb 00
  51++B017             >    ; CellType Empty_cell_name, no_way_script
  52++B017 00          >    defb 00
  51++B018             >    ; CellType Empty_cell_name, no_way_script
  52++B018 00          >    defb 00
  51++B019             >    ; CellType Empty_cell_name, no_way_script
  52++B019 00          >    defb 00
  51++B01A             >    ; CellType Empty_cell_name, no_way_script
  52++B01A 00          >    defb 00
  51++B01B             >    ; CellType Empty_cell_name, no_way_script
  52++B01B 00          >    defb 00
  51++B01C             >    ; CellType Empty_cell_name, no_way_script
  52++B01C 00          >    defb 00
  51++B01D             >    ; CellType Empty_cell_name, no_way_script
  52++B01D 00          >    defb 00
  51++B01E             >    ; CellType Empty_cell_name, no_way_script
  52++B01E 00          >    defb 00
  51++B01F             >    ; CellType Empty_cell_name, no_way_script
  52++B01F 00          >    defb 00
  51++B020             >    ; CellType Empty_cell_name, no_way_script
  52++B020 00          >    defb 00
  51++B021             >    ; CellType Empty_cell_name, no_way_script
  52++B021 00          >    defb 00
  51++B022             >    ; CellType Empty_cell_name, no_way_script
  52++B022 00          >    defb 00
  51++B023             >    ; CellType Empty_cell_name, no_way_script
  52++B023 00          >    defb 00
  51++B024             >    ; CellType Empty_cell_name, no_way_script
  52++B024 00          >    defb 00
  51++B025             >    ; CellType Empty_cell_name, no_way_script
  52++B025 00          >    defb 00
  51++B026             >    ; CellType Empty_cell_name, no_way_script
  52++B026 00          >    defb 00
  51++B027             >    ; CellType Empty_cell_name, no_way_script
  52++B027 00          >    defb 00
  51++B028             >    ; CellType Empty_cell_name, no_way_script
  52++B028 00          >    defb 00
  51++B029             >    ; CellType Empty_cell_name, no_way_script
  52++B029 00          >    defb 00
  51++B02A             >    ; CellType Empty_cell_name, no_way_script
  52++B02A 00          >    defb 00
  51++B02B             >    ; CellType Empty_cell_name, no_way_script
  52++B02B 00          >    defb 00
  51++B02C             >    ; CellType Empty_cell_name, no_way_script
  52++B02C 00          >    defb 00
  51++B02D             >    ; CellType Empty_cell_name, no_way_script
  52++B02D 00          >    defb 00
  51++B02E             >    ; CellType Empty_cell_name, no_way_script
  52++B02E 00          >    defb 00
  51++B02F             >    ; CellType Empty_cell_name, no_way_script
  52++B02F 00          >    defb 00
  51++B030             >    ; CellType Empty_cell_name, no_way_script
  52++B030 00          >    defb 00
  51++B031             >    ; CellType Empty_cell_name, no_way_script
  52++B031 00          >    defb 00
  51++B032             >    ; CellType Empty_cell_name, no_way_script
  52++B032 00          >    defb 00
  51++B033             >    ; CellType Empty_cell_name, no_way_script
  52++B033 00          >    defb 00
  51++B034             >    ; CellType Empty_cell_name, no_way_script
  52++B034 00          >    defb 00
  51++B035             >    ; CellType Empty_cell_name, no_way_script
  52++B035 00          >    defb 00
  51++B036             >    ; CellType Empty_cell_name, no_way_script
  52++B036 00          >    defb 00
  51++B037             >    ; CellType Empty_cell_name, no_way_script
  52++B037 00          >    defb 00
  51++B038             >    ; CellType Empty_cell_name, no_way_script
  52++B038 00          >    defb 00
  51++B039             >    ; CellType Empty_cell_name, no_way_script
  52++B039 00          >    defb 00
  51++B03A             >    ; CellType Empty_cell_name, no_way_script
  52++B03A 00          >    defb 00
  51++B03B             >    ; CellType Empty_cell_name, no_way_script
  52++B03B 00          >    defb 00
  51++B03C             >    ; CellType Empty_cell_name, no_way_script
  52++B03C 00          >    defb 00
  51++B03D             >    ; CellType Empty_cell_name, no_way_script
  52++B03D 00          >    defb 00
  51++B03E             >    ; CellType Empty_cell_name, no_way_script
  52++B03E 00          >    defb 00
  51++B03F             >    ; CellType Empty_cell_name, no_way_script
  52++B03F 00          >    defb 00
  51++B040             >    ; CellType Empty_cell_name, no_way_script
  52++B040 00          >    defb 00
  51++B041             >    ; CellType Empty_cell_name, no_way_script
  52++B041 00          >    defb 00
  51++B042             >    ; CellType Empty_cell_name, no_way_script
  52++B042 00          >    defb 00
  51++B043             >    ; CellType Empty_cell_name, no_way_script
  52++B043 00          >    defb 00
  51++B044             >    ; CellType Empty_cell_name, no_way_script
  52++B044 00          >    defb 00
  51++B045             >    ; CellType Empty_cell_name, no_way_script
  52++B045 00          >    defb 00
  51++B046             >    ; CellType Empty_cell_name, no_way_script
  52++B046 00          >    defb 00
  51++B047             >    ; CellType Empty_cell_name, no_way_script
  52++B047 00          >    defb 00
  51++B048             >    ; CellType Empty_cell_name, no_way_script
  52++B048 00          >    defb 00
  51++B049             >    ; CellType Empty_cell_name, no_way_script
  52++B049 00          >    defb 00
  51++B04A             >    ; CellType Empty_cell_name, no_way_script
  52++B04A 00          >    defb 00
  51++B04B             >    ; CellType Empty_cell_name, no_way_script
  52++B04B 00          >    defb 00
  51++B04C             >    ; CellType Empty_cell_name, no_way_script
  52++B04C 00          >    defb 00
  51++B04D             >    ; CellType Empty_cell_name, no_way_script
  52++B04D 00          >    defb 00
  51++B04E             >    ; CellType Empty_cell_name, no_way_script
  52++B04E 00          >    defb 00
  51++B04F             >    ; CellType Empty_cell_name, no_way_script
  52++B04F 00          >    defb 00
  51++B050             >    ; CellType Empty_cell_name, no_way_script
  52++B050 00          >    defb 00
  51++B051             >    ; CellType Empty_cell_name, no_way_script
  52++B051 00          >    defb 00
  51++B052             >    ; CellType Empty_cell_name, no_way_script
  52++B052 00          >    defb 00
  51++B053             >    ; CellType Empty_cell_name, no_way_script
  52++B053 00          >    defb 00
  51++B054             >    ; CellType Empty_cell_name, no_way_script
  52++B054 00          >    defb 00
  51++B055             >    ; CellType Empty_cell_name, no_way_script
  52++B055 00          >    defb 00
  51++B056             >    ; CellType Empty_cell_name, no_way_script
  52++B056 00          >    defb 00
  51++B057             >    ; CellType Empty_cell_name, no_way_script
  52++B057 00          >    defb 00
  51++B058             >    ; CellType Empty_cell_name, no_way_script
  52++B058 00          >    defb 00
  51++B059             >    ; CellType Empty_cell_name, no_way_script
  52++B059 00          >    defb 00
  51++B05A             >    ; CellType Empty_cell_name, no_way_script
  52++B05A 00          >    defb 00
  51++B05B             >    ; CellType Empty_cell_name, no_way_script
  52++B05B 00          >    defb 00
  51++B05C             >    ; CellType Empty_cell_name, no_way_script
  52++B05C 00          >    defb 00
  51++B05D             >    ; CellType Empty_cell_name, no_way_script
  52++B05D 00          >    defb 00
  51++B05E             >    ; CellType Empty_cell_name, no_way_script
  52++B05E 00          >    defb 00
  51++B05F             >    ; CellType Empty_cell_name, no_way_script
  52++B05F 00          >    defb 00
  51++B060             >    ; CellType Empty_cell_name, no_way_script
  52++B060 00          >    defb 00
  51++B061             >    ; CellType Empty_cell_name, no_way_script
  52++B061 00          >    defb 00
  51++B062             >    ; CellType Empty_cell_name, no_way_script
  52++B062 00          >    defb 00
  51++B063             >    ; CellType Empty_cell_name, no_way_script
  52++B063 00          >    defb 00
  51++B064             >    ; CellType Empty_cell_name, no_way_script
  52++B064 00          >    defb 00
  51++B065             >    ; CellType Empty_cell_name, no_way_script
  52++B065 00          >    defb 00
  51++B066             >    ; CellType Empty_cell_name, no_way_script
  52++B066 00          >    defb 00
  51++B067             >    ; CellType Empty_cell_name, no_way_script
  52++B067 00          >    defb 00
  51++B068             >    ; CellType Empty_cell_name, no_way_script
  52++B068 00          >    defb 00
  51++B069             >    ; CellType Empty_cell_name, no_way_script
  52++B069 00          >    defb 00
  51++B06A             >    ; CellType Empty_cell_name, no_way_script
  52++B06A 00          >    defb 00
  51++B06B             >    ; CellType Empty_cell_name, no_way_script
  52++B06B 00          >    defb 00
  51++B06C             >    ; CellType Empty_cell_name, no_way_script
  52++B06C 00          >    defb 00
  51++B06D             >    ; CellType Empty_cell_name, no_way_script
  52++B06D 00          >    defb 00
  51++B06E             >    ; CellType Empty_cell_name, no_way_script
  52++B06E 00          >    defb 00
  51++B06F             >    ; CellType Empty_cell_name, no_way_script
  52++B06F 00          >    defb 00
  51++B070             >    ; CellType Empty_cell_name, no_way_script
  52++B070 00          >    defb 00
  51++B071             >    ; CellType Empty_cell_name, no_way_script
  52++B071 00          >    defb 00
  51++B072             >    ; CellType Empty_cell_name, no_way_script
  52++B072 00          >    defb 00
  51++B073             >    ; CellType Empty_cell_name, no_way_script
  52++B073 00          >    defb 00
  51++B074             >    ; CellType Empty_cell_name, no_way_script
  52++B074 00          >    defb 00
  51++B075             >    ; CellType Empty_cell_name, no_way_script
  52++B075 00          >    defb 00
  51++B076             >    ; CellType Empty_cell_name, no_way_script
  52++B076 00          >    defb 00
  51++B077             >    ; CellType Empty_cell_name, no_way_script
  52++B077 00          >    defb 00
  51++B078             >    ; CellType Empty_cell_name, no_way_script
  52++B078 00          >    defb 00
  51++B079             >    ; CellType Empty_cell_name, no_way_script
  52++B079 00          >    defb 00
  51++B07A             >    ; CellType Empty_cell_name, no_way_script
  52++B07A 00          >    defb 00
  51++B07B             >    ; CellType Empty_cell_name, no_way_script
  52++B07B 00          >    defb 00
  51++B07C             >    ; CellType Empty_cell_name, no_way_script
  52++B07C 00          >    defb 00
  51++B07D             >    ; CellType Empty_cell_name, no_way_script
  52++B07D 00          >    defb 00
  51++B07E             >    ; CellType Empty_cell_name, no_way_script
  52++B07E 00          >    defb 00
  51++B07F             >    ; CellType Empty_cell_name, no_way_script
  52++B07F 00          >    defb 00
  51++B080             >    ; CellType Empty_cell_name, no_way_script
  52++B080 00          >    defb 00
  51++B081             >    ; CellType Empty_cell_name, no_way_script
  52++B081 00          >    defb 00
  51++B082             >    ; CellType Empty_cell_name, no_way_script
  52++B082 00          >    defb 00
  51++B083             >    ; CellType Empty_cell_name, no_way_script
  52++B083 00          >    defb 00
  51++B084             >    ; CellType Empty_cell_name, no_way_script
  52++B084 00          >    defb 00
  51++B085             >    ; CellType Empty_cell_name, no_way_script
  52++B085 00          >    defb 00
  51++B086             >    ; CellType Empty_cell_name, no_way_script
  52++B086 00          >    defb 00
  51++B087             >    ; CellType Empty_cell_name, no_way_script
  52++B087 00          >    defb 00
  51++B088             >    ; CellType Empty_cell_name, no_way_script
  52++B088 00          >    defb 00
  51++B089             >    ; CellType Empty_cell_name, no_way_script
  52++B089 00          >    defb 00
  51++B08A             >    ; CellType Empty_cell_name, no_way_script
  52++B08A 00          >    defb 00
  51++B08B             >    ; CellType Empty_cell_name, no_way_script
  52++B08B 00          >    defb 00
  51++B08C             >    ; CellType Empty_cell_name, no_way_script
  52++B08C 00          >    defb 00
  51++B08D             >    ; CellType Empty_cell_name, no_way_script
  52++B08D 00          >    defb 00
  51++B08E             >    ; CellType Empty_cell_name, no_way_script
  52++B08E 00          >    defb 00
  51++B08F             >    ; CellType Empty_cell_name, no_way_script
  52++B08F 00          >    defb 00
  51++B090             >    ; CellType Empty_cell_name, no_way_script
  52++B090 00          >    defb 00
  51++B091             >    ; CellType Empty_cell_name, no_way_script
  52++B091 00          >    defb 00
  51++B092             >    ; CellType Empty_cell_name, no_way_script
  52++B092 00          >    defb 00
  51++B093             >    ; CellType Empty_cell_name, no_way_script
  52++B093 00          >    defb 00
  51++B094             >    ; CellType Empty_cell_name, no_way_script
  52++B094 00          >    defb 00
  51++B095             >    ; CellType Empty_cell_name, no_way_script
  52++B095 00          >    defb 00
  51++B096             >    ; CellType Empty_cell_name, no_way_script
  52++B096 00          >    defb 00
  51++B097             >    ; CellType Empty_cell_name, no_way_script
  52++B097 00          >    defb 00
  51++B098             >    ; CellType Empty_cell_name, no_way_script
  52++B098 00          >    defb 00
  51++B099             >    ; CellType Empty_cell_name, no_way_script
  52++B099 00          >    defb 00
  51++B09A             >    ; CellType Empty_cell_name, no_way_script
  52++B09A 00          >    defb 00
  51++B09B             >    ; CellType Empty_cell_name, no_way_script
  52++B09B 00          >    defb 00
  51++B09C             >    ; CellType Empty_cell_name, no_way_script
  52++B09C 00          >    defb 00
  51++B09D             >    ; CellType Empty_cell_name, no_way_script
  52++B09D 00          >    defb 00
  51++B09E             >    ; CellType Empty_cell_name, no_way_script
  52++B09E 00          >    defb 00
  51++B09F             >    ; CellType Empty_cell_name, no_way_script
  52++B09F 00          >    defb 00
  51++B0A0             >    ; CellType Empty_cell_name, no_way_script
  52++B0A0 00          >    defb 00
  51++B0A1             >    ; CellType Empty_cell_name, no_way_script
  52++B0A1 00          >    defb 00
  51++B0A2             >    ; CellType Empty_cell_name, no_way_script
  52++B0A2 00          >    defb 00
  51++B0A3             >    ; CellType Empty_cell_name, no_way_script
  52++B0A3 00          >    defb 00
  51++B0A4             >    ; CellType Empty_cell_name, no_way_script
  52++B0A4 00          >    defb 00
  51++B0A5             >    ; CellType Empty_cell_name, no_way_script
  52++B0A5 00          >    defb 00
  51++B0A6             >    ; CellType Empty_cell_name, no_way_script
  52++B0A6 00          >    defb 00
  51++B0A7             >    ; CellType Empty_cell_name, no_way_script
  52++B0A7 00          >    defb 00
  51++B0A8             >    ; CellType Empty_cell_name, no_way_script
  52++B0A8 00          >    defb 00
  51++B0A9             >    ; CellType Empty_cell_name, no_way_script
  52++B0A9 00          >    defb 00
  51++B0AA             >    ; CellType Empty_cell_name, no_way_script
  52++B0AA 00          >    defb 00
  51++B0AB             >    ; CellType Empty_cell_name, no_way_script
  52++B0AB 00          >    defb 00
  51++B0AC             >    ; CellType Empty_cell_name, no_way_script
  52++B0AC 00          >    defb 00
  51++B0AD             >    ; CellType Empty_cell_name, no_way_script
  52++B0AD 00          >    defb 00
  51++B0AE             >    ; CellType Empty_cell_name, no_way_script
  52++B0AE 00          >    defb 00
  51++B0AF             >    ; CellType Empty_cell_name, no_way_script
  52++B0AF 00          >    defb 00
  51++B0B0             >    ; CellType Empty_cell_name, no_way_script
  52++B0B0 00          >    defb 00
  51++B0B1             >    ; CellType Empty_cell_name, no_way_script
  52++B0B1 00          >    defb 00
  51++B0B2             >    ; CellType Empty_cell_name, no_way_script
  52++B0B2 00          >    defb 00
  51++B0B3             >    ; CellType Empty_cell_name, no_way_script
  52++B0B3 00          >    defb 00
  51++B0B4             >    ; CellType Empty_cell_name, no_way_script
  52++B0B4 00          >    defb 00
  51++B0B5             >    ; CellType Empty_cell_name, no_way_script
  52++B0B5 00          >    defb 00
  51++B0B6             >    ; CellType Empty_cell_name, no_way_script
  52++B0B6 00          >    defb 00
  51++B0B7             >    ; CellType Empty_cell_name, no_way_script
  52++B0B7 00          >    defb 00
  51++B0B8             >    ; CellType Empty_cell_name, no_way_script
  52++B0B8 00          >    defb 00
  51++B0B9             >    ; CellType Empty_cell_name, no_way_script
  52++B0B9 00          >    defb 00
  51++B0BA             >    ; CellType Empty_cell_name, no_way_script
  52++B0BA 00          >    defb 00
  51++B0BB             >    ; CellType Empty_cell_name, no_way_script
  52++B0BB 00          >    defb 00
  51++B0BC             >    ; CellType Empty_cell_name, no_way_script
  52++B0BC 00          >    defb 00
  51++B0BD             >    ; CellType Empty_cell_name, no_way_script
  52++B0BD 00          >    defb 00
  51++B0BE             >    ; CellType Empty_cell_name, no_way_script
  52++B0BE 00          >    defb 00
  51++B0BF             >    ; CellType Empty_cell_name, no_way_script
  52++B0BF 00          >    defb 00
  51++B0C0             >    ; CellType Empty_cell_name, no_way_script
  52++B0C0 00          >    defb 00
  51++B0C1             >    ; CellType Empty_cell_name, no_way_script
  52++B0C1 00          >    defb 00
  51++B0C2             >    ; CellType Empty_cell_name, no_way_script
  52++B0C2 00          >    defb 00
  51++B0C3             >    ; CellType Empty_cell_name, no_way_script
  52++B0C3 00          >    defb 00
  51++B0C4             >    ; CellType Empty_cell_name, no_way_script
  52++B0C4 00          >    defb 00
  51++B0C5             >    ; CellType Empty_cell_name, no_way_script
  52++B0C5 00          >    defb 00
  51++B0C6             >    ; CellType Empty_cell_name, no_way_script
  52++B0C6 00          >    defb 00
  51++B0C7             >    ; CellType Empty_cell_name, no_way_script
  52++B0C7 00          >    defb 00
  51++B0C8             >    ; CellType Empty_cell_name, no_way_script
  52++B0C8 00          >    defb 00
  51++B0C9             >    ; CellType Empty_cell_name, no_way_script
  52++B0C9 00          >    defb 00
  51++B0CA             >    ; CellType Empty_cell_name, no_way_script
  52++B0CA 00          >    defb 00
  51++B0CB             >    ; CellType Empty_cell_name, no_way_script
  52++B0CB 00          >    defb 00
  51++B0CC             >    ; CellType Empty_cell_name, no_way_script
  52++B0CC 00          >    defb 00
  51++B0CD             >    ; CellType Empty_cell_name, no_way_script
  52++B0CD 00          >    defb 00
  51++B0CE             >    ; CellType Empty_cell_name, no_way_script
  52++B0CE 00          >    defb 00
  51++B0CF             >    ; CellType Empty_cell_name, no_way_script
  52++B0CF 00          >    defb 00
  51++B0D0             >    ; CellType Empty_cell_name, no_way_script
  52++B0D0 00          >    defb 00
  51++B0D1             >    ; CellType Empty_cell_name, no_way_script
  52++B0D1 00          >    defb 00
  51++B0D2             >    ; CellType Empty_cell_name, no_way_script
  52++B0D2 00          >    defb 00
  51++B0D3             >    ; CellType Empty_cell_name, no_way_script
  52++B0D3 00          >    defb 00
  51++B0D4             >    ; CellType Empty_cell_name, no_way_script
  52++B0D4 00          >    defb 00
  51++B0D5             >    ; CellType Empty_cell_name, no_way_script
  52++B0D5 00          >    defb 00
  51++B0D6             >    ; CellType Empty_cell_name, no_way_script
  52++B0D6 00          >    defb 00
  51++B0D7             >    ; CellType Empty_cell_name, no_way_script
  52++B0D7 00          >    defb 00
  51++B0D8             >    ; CellType Empty_cell_name, no_way_script
  52++B0D8 00          >    defb 00
  51++B0D9             >    ; CellType Empty_cell_name, no_way_script
  52++B0D9 00          >    defb 00
  51++B0DA             >    ; CellType Empty_cell_name, no_way_script
  52++B0DA 00          >    defb 00
  51++B0DB             >    ; CellType Empty_cell_name, no_way_script
  52++B0DB 00          >    defb 00
  51++B0DC             >    ; CellType Empty_cell_name, no_way_script
  52++B0DC 00          >    defb 00
  51++B0DD             >    ; CellType Empty_cell_name, no_way_script
  52++B0DD 00          >    defb 00
  51++B0DE             >    ; CellType Empty_cell_name, no_way_script
  52++B0DE 00          >    defb 00
  51++B0DF             >    ; CellType Empty_cell_name, no_way_script
  52++B0DF 00          >    defb 00
  51++B0E0             >    ; CellType Empty_cell_name, no_way_script
  52++B0E0 00          >    defb 00
  51++B0E1             >    ; CellType Empty_cell_name, no_way_script
  52++B0E1 00          >    defb 00
  51++B0E2             >    ; CellType Empty_cell_name, no_way_script
  52++B0E2 00          >    defb 00
  51++B0E3             >    ; CellType Empty_cell_name, no_way_script
  52++B0E3 00          >    defb 00
  51++B0E4             >    ; CellType Empty_cell_name, no_way_script
  52++B0E4 00          >    defb 00
  51++B0E5             >    ; CellType Empty_cell_name, no_way_script
  52++B0E5 00          >    defb 00
  51++B0E6             >    ; CellType Empty_cell_name, no_way_script
  52++B0E6 00          >    defb 00
  51++B0E7             >    ; CellType Empty_cell_name, no_way_script
  52++B0E7 00          >    defb 00
  51++B0E8             >    ; CellType Empty_cell_name, no_way_script
  52++B0E8 00          >    defb 00
  51++B0E9             >    ; CellType Empty_cell_name, no_way_script
  52++B0E9 00          >    defb 00
  51++B0EA             >    ; CellType Empty_cell_name, no_way_script
  52++B0EA 00          >    defb 00
  51++B0EB             >    ; CellType Empty_cell_name, no_way_script
  52++B0EB 00          >    defb 00
  51++B0EC             >    ; CellType Empty_cell_name, no_way_script
  52++B0EC 00          >    defb 00
  51++B0ED             >    ; CellType Empty_cell_name, no_way_script
  52++B0ED 00          >    defb 00
  51++B0EE             >    ; CellType Empty_cell_name, no_way_script
  52++B0EE 00          >    defb 00
  51++B0EF             >    ; CellType Empty_cell_name, no_way_script
  52++B0EF 00          >    defb 00
  51++B0F0             >    ; CellType Empty_cell_name, no_way_script
  52++B0F0 00          >    defb 00
  51++B0F1             >    ; CellType Empty_cell_name, no_way_script
  52++B0F1 00          >    defb 00
  51++B0F2             >    ; CellType Empty_cell_name, no_way_script
  52++B0F2 00          >    defb 00
  51++B0F3             >    ; CellType Empty_cell_name, no_way_script
  52++B0F3 00          >    defb 00
  51++B0F4             >    ; CellType Empty_cell_name, no_way_script
  52++B0F4 00          >    defb 00
  51++B0F5             >    ; CellType Empty_cell_name, no_way_script
  52++B0F5 00          >    defb 00
  51++B0F6             >    ; CellType Empty_cell_name, no_way_script
  52++B0F6 00          >    defb 00
  51++B0F7             >    ; CellType Empty_cell_name, no_way_script
  52++B0F7 00          >    defb 00
  51++B0F8             >    ; CellType Empty_cell_name, no_way_script
  52++B0F8 00          >    defb 00
  51++B0F9             >    ; CellType Empty_cell_name, no_way_script
  52++B0F9 00          >    defb 00
  51++B0FA             >    ; CellType Empty_cell_name, no_way_script
  52++B0FA 00          >    defb 00
  51++B0FB             >    ; CellType Empty_cell_name, no_way_script
  52++B0FB 00          >    defb 00
  51++B0FC             >    ; CellType Empty_cell_name, no_way_script
  52++B0FC 00          >    defb 00
  51++B0FD             >    ; CellType Empty_cell_name, no_way_script
  52++B0FD 00          >    defb 00
  51++B0FE             >    ; CellType Empty_cell_name, no_way_script
  52++B0FE 00          >    defb 00
  51++B0FF             >    ; CellType Empty_cell_name, no_way_script
  52++B0FF 00          >    defb 00
  51++B100             >    ; CellType Empty_cell_name, no_way_script
  52++B100 00          >    defb 00
  51++B101             >    ; CellType Empty_cell_name, no_way_script
  52++B101 00          >    defb 00
  51++B102             >    ; CellType Empty_cell_name, no_way_script
  52++B102 00          >    defb 00
  51++B103             >    ; CellType Empty_cell_name, no_way_script
  52++B103 00          >    defb 00
  51++B104             >    ; CellType Empty_cell_name, no_way_script
  52++B104 00          >    defb 00
  51++B105             >    ; CellType Empty_cell_name, no_way_script
  52++B105 00          >    defb 00
  51++B106             >    ; CellType Empty_cell_name, no_way_script
  52++B106 00          >    defb 00
  51++B107             >    ; CellType Empty_cell_name, no_way_script
  52++B107 00          >    defb 00
  51++B108             >    ; CellType Empty_cell_name, no_way_script
  52++B108 00          >    defb 00
  51++B109             >    ; CellType Empty_cell_name, no_way_script
  52++B109 00          >    defb 00
  51++B10A             >    ; CellType Empty_cell_name, no_way_script
  52++B10A 00          >    defb 00
  51++B10B             >    ; CellType Empty_cell_name, no_way_script
  52++B10B 00          >    defb 00
  51++B10C             >    ; CellType Empty_cell_name, no_way_script
  52++B10C 00          >    defb 00
  51++B10D             >    ; CellType Empty_cell_name, no_way_script
  52++B10D 00          >    defb 00
  51++B10E             >    ; CellType Empty_cell_name, no_way_script
  52++B10E 00          >    defb 00
  51++B10F             >    ; CellType Empty_cell_name, no_way_script
  52++B10F 00          >    defb 00
  51++B110             >    ; CellType Empty_cell_name, no_way_script
  52++B110 00          >    defb 00
  51++B111             >    ; CellType Empty_cell_name, no_way_script
  52++B111 00          >    defb 00
  51++B112             >    ; CellType Empty_cell_name, no_way_script
  52++B112 00          >    defb 00
  51++B113             >    ; CellType Empty_cell_name, no_way_script
  52++B113 00          >    defb 00
  51++B114             >    ; CellType Empty_cell_name, no_way_script
  52++B114 00          >    defb 00
  51++B115             >    ; CellType Empty_cell_name, no_way_script
  52++B115 00          >    defb 00
  51++B116             >    ; CellType Empty_cell_name, no_way_script
  52++B116 00          >    defb 00
  51++B117             >    ; CellType Empty_cell_name, no_way_script
  52++B117 00          >    defb 00
  51++B118             >    ; CellType Empty_cell_name, no_way_script
  52++B118 00          >    defb 00
  51++B119             >    ; CellType Empty_cell_name, no_way_script
  52++B119 00          >    defb 00
  51++B11A             >    ; CellType Empty_cell_name, no_way_script
  52++B11A 00          >    defb 00
  51++B11B             >    ; CellType Empty_cell_name, no_way_script
  52++B11B 00          >    defb 00
  51++B11C             >    ; CellType Empty_cell_name, no_way_script
  52++B11C 00          >    defb 00
  51++B11D             >    ; CellType Empty_cell_name, no_way_script
  52++B11D 00          >    defb 00
  51++B11E             >    ; CellType Empty_cell_name, no_way_script
  52++B11E 00          >    defb 00
  51++B11F             >    ; CellType Empty_cell_name, no_way_script
  52++B11F 00          >    defb 00
  51++B120             >    ; CellType Empty_cell_name, no_way_script
  52++B120 00          >    defb 00
  51++B121             >    ; CellType Empty_cell_name, no_way_script
  52++B121 00          >    defb 00
  51++B122             >    ; CellType Empty_cell_name, no_way_script
  52++B122 00          >    defb 00
  51++B123             >    ; CellType Empty_cell_name, no_way_script
  52++B123 00          >    defb 00
  51++B124             >    ; CellType Empty_cell_name, no_way_script
  52++B124 00          >    defb 00
  51++B125             >    ; CellType Empty_cell_name, no_way_script
  52++B125 00          >    defb 00
  51++B126             >    ; CellType Empty_cell_name, no_way_script
  52++B126 00          >    defb 00
  51++B127             >    ; CellType Empty_cell_name, no_way_script
  52++B127 00          >    defb 00
  51++B128             >    ; CellType Empty_cell_name, no_way_script
  52++B128 00          >    defb 00
  51++B129             >    ; CellType Empty_cell_name, no_way_script
  52++B129 00          >    defb 00
  51++B12A             >    ; CellType Empty_cell_name, no_way_script
  52++B12A 00          >    defb 00
  51++B12B             >    ; CellType Empty_cell_name, no_way_script
  52++B12B 00          >    defb 00
  51++B12C             >    ; CellType Empty_cell_name, no_way_script
  52++B12C 00          >    defb 00
  51++B12D             >    ; CellType Empty_cell_name, no_way_script
  52++B12D 00          >    defb 00
  51++B12E             >    ; CellType Empty_cell_name, no_way_script
  52++B12E 00          >    defb 00
  51++B12F             >    ; CellType Empty_cell_name, no_way_script
  52++B12F 00          >    defb 00
  51++B130             >    ; CellType Empty_cell_name, no_way_script
  52++B130 00          >    defb 00
  51++B131             >    ; CellType Empty_cell_name, no_way_script
  52++B131 00          >    defb 00
  51++B132             >    ; CellType Empty_cell_name, no_way_script
  52++B132 00          >    defb 00
  51++B133             >    ; CellType Empty_cell_name, no_way_script
  52++B133 00          >    defb 00
  51++B134             >    ; CellType Empty_cell_name, no_way_script
  52++B134 00          >    defb 00
  51++B135             >    ; CellType Empty_cell_name, no_way_script
  52++B135 00          >    defb 00
  51++B136             >    ; CellType Empty_cell_name, no_way_script
  52++B136 00          >    defb 00
  51++B137             >    ; CellType Empty_cell_name, no_way_script
  52++B137 00          >    defb 00
  51++B138             >    ; CellType Empty_cell_name, no_way_script
  52++B138 00          >    defb 00
  51++B139             >    ; CellType Empty_cell_name, no_way_script
  52++B139 00          >    defb 00
  51++B13A             >    ; CellType Empty_cell_name, no_way_script
  52++B13A 00          >    defb 00
  51++B13B             >    ; CellType Empty_cell_name, no_way_script
  52++B13B 00          >    defb 00
  51++B13C             >    ; CellType Empty_cell_name, no_way_script
  52++B13C 00          >    defb 00
  51++B13D             >    ; CellType Empty_cell_name, no_way_script
  52++B13D 00          >    defb 00
  51++B13E             >    ; CellType Empty_cell_name, no_way_script
  52++B13E 00          >    defb 00
  51++B13F             >    ; CellType Empty_cell_name, no_way_script
  52++B13F 00          >    defb 00
  51++B140             >    ; CellType Empty_cell_name, no_way_script
  52++B140 00          >    defb 00
  51++B141             >    ; CellType Empty_cell_name, no_way_script
  52++B141 00          >    defb 00
  51++B142             >    ; CellType Empty_cell_name, no_way_script
  52++B142 00          >    defb 00
  51++B143             >    ; CellType Empty_cell_name, no_way_script
  52++B143 00          >    defb 00
  51++B144             >    ; CellType Empty_cell_name, no_way_script
  52++B144 00          >    defb 00
  51++B145             >    ; CellType Empty_cell_name, no_way_script
  52++B145 00          >    defb 00
  51++B146             >    ; CellType Empty_cell_name, no_way_script
  52++B146 00          >    defb 00
  51++B147             >    ; CellType Empty_cell_name, no_way_script
  52++B147 00          >    defb 00
  51++B148             >    ; CellType Empty_cell_name, no_way_script
  52++B148 00          >    defb 00
  51++B149             >    ; CellType Empty_cell_name, no_way_script
  52++B149 00          >    defb 00
  51++B14A             >    ; CellType Empty_cell_name, no_way_script
  52++B14A 00          >    defb 00
  51++B14B             >    ; CellType Empty_cell_name, no_way_script
  52++B14B 00          >    defb 00
  51++B14C             >    ; CellType Empty_cell_name, no_way_script
  52++B14C 00          >    defb 00
  51++B14D             >    ; CellType Empty_cell_name, no_way_script
  52++B14D 00          >    defb 00
  51++B14E             >    ; CellType Empty_cell_name, no_way_script
  52++B14E 00          >    defb 00
  51++B14F             >    ; CellType Empty_cell_name, no_way_script
  52++B14F 00          >    defb 00
  51++B150             >    ; CellType Empty_cell_name, no_way_script
  52++B150 00          >    defb 00
  51++B151             >    ; CellType Empty_cell_name, no_way_script
  52++B151 00          >    defb 00
  51++B152             >    ; CellType Empty_cell_name, no_way_script
  52++B152 00          >    defb 00
  51++B153             >    ; CellType Empty_cell_name, no_way_script
  52++B153 00          >    defb 00
  51++B154             >    ; CellType Empty_cell_name, no_way_script
  52++B154 00          >    defb 00
  51++B155             >    ; CellType Empty_cell_name, no_way_script
  52++B155 00          >    defb 00
  51++B156             >    ; CellType Empty_cell_name, no_way_script
  52++B156 00          >    defb 00
  51++B157             >    ; CellType Empty_cell_name, no_way_script
  52++B157 00          >    defb 00
  51++B158             >    ; CellType Empty_cell_name, no_way_script
  52++B158 00          >    defb 00
  51++B159             >    ; CellType Empty_cell_name, no_way_script
  52++B159 00          >    defb 00
  51++B15A             >    ; CellType Empty_cell_name, no_way_script
  52++B15A 00          >    defb 00
  51++B15B             >    ; CellType Empty_cell_name, no_way_script
  52++B15B 00          >    defb 00
  51++B15C             >    ; CellType Empty_cell_name, no_way_script
  52++B15C 00          >    defb 00
  51++B15D             >    ; CellType Empty_cell_name, no_way_script
  52++B15D 00          >    defb 00
  51++B15E             >    ; CellType Empty_cell_name, no_way_script
  52++B15E 00          >    defb 00
  51++B15F             >    ; CellType Empty_cell_name, no_way_script
  52++B15F 00          >    defb 00
  51++B160             >    ; CellType Empty_cell_name, no_way_script
  52++B160 00          >    defb 00
  51++B161             >    ; CellType Empty_cell_name, no_way_script
  52++B161 00          >    defb 00
  51++B162             >    ; CellType Empty_cell_name, no_way_script
  52++B162 00          >    defb 00
  51++B163             >    ; CellType Empty_cell_name, no_way_script
  52++B163 00          >    defb 00
  51++B164             >    ; CellType Empty_cell_name, no_way_script
  52++B164 00          >    defb 00
  51++B165             >    ; CellType Empty_cell_name, no_way_script
  52++B165 00          >    defb 00
  51++B166             >    ; CellType Empty_cell_name, no_way_script
  52++B166 00          >    defb 00
  51++B167             >    ; CellType Empty_cell_name, no_way_script
  52++B167 00          >    defb 00
  51++B168             >    ; CellType Empty_cell_name, no_way_script
  52++B168 00          >    defb 00
  51++B169             >    ; CellType Empty_cell_name, no_way_script
  52++B169 00          >    defb 00
  51++B16A             >    ; CellType Empty_cell_name, no_way_script
  52++B16A 00          >    defb 00
  51++B16B             >    ; CellType Empty_cell_name, no_way_script
  52++B16B 00          >    defb 00
  51++B16C             >    ; CellType Empty_cell_name, no_way_script
  52++B16C 00          >    defb 00
  51++B16D             >    ; CellType Empty_cell_name, no_way_script
  52++B16D 00          >    defb 00
  51++B16E             >    ; CellType Empty_cell_name, no_way_script
  52++B16E 00          >    defb 00
  51++B16F             >    ; CellType Empty_cell_name, no_way_script
  52++B16F 00          >    defb 00
  51++B170             >    ; CellType Empty_cell_name, no_way_script
  52++B170 00          >    defb 00
  51++B171             >    ; CellType Empty_cell_name, no_way_script
  52++B171 00          >    defb 00
  51++B172             >    ; CellType Empty_cell_name, no_way_script
  52++B172 00          >    defb 00
  51++B173             >    ; CellType Empty_cell_name, no_way_script
  52++B173 00          >    defb 00
  51++B174             >    ; CellType Empty_cell_name, no_way_script
  52++B174 00          >    defb 00
  51++B175             >    ; CellType Empty_cell_name, no_way_script
  52++B175 00          >    defb 00
  51++B176             >    ; CellType Empty_cell_name, no_way_script
  52++B176 00          >    defb 00
  51++B177             >    ; CellType Empty_cell_name, no_way_script
  52++B177 00          >    defb 00
  51++B178             >    ; CellType Empty_cell_name, no_way_script
  52++B178 00          >    defb 00
  51++B179             >    ; CellType Empty_cell_name, no_way_script
  52++B179 00          >    defb 00
  51++B17A             >    ; CellType Empty_cell_name, no_way_script
  52++B17A 00          >    defb 00
  51++B17B             >    ; CellType Empty_cell_name, no_way_script
  52++B17B 00          >    defb 00
  51++B17C             >    ; CellType Empty_cell_name, no_way_script
  52++B17C 00          >    defb 00
  51++B17D             >    ; CellType Empty_cell_name, no_way_script
  52++B17D 00          >    defb 00
  51++B17E             >    ; CellType Empty_cell_name, no_way_script
  52++B17E 00          >    defb 00
  51++B17F             >    ; CellType Empty_cell_name, no_way_script
  52++B17F 00          >    defb 00
  51++B180             >    ; CellType Empty_cell_name, no_way_script
  52++B180 00          >    defb 00
  51++B181             >    ; CellType Empty_cell_name, no_way_script
  52++B181 00          >    defb 00
  51++B182             >    ; CellType Empty_cell_name, no_way_script
  52++B182 00          >    defb 00
  51++B183             >    ; CellType Empty_cell_name, no_way_script
  52++B183 00          >    defb 00
  51++B184             >    ; CellType Empty_cell_name, no_way_script
  52++B184 00          >    defb 00
  51++B185             >    ; CellType Empty_cell_name, no_way_script
  52++B185 00          >    defb 00
  51++B186             >    ; CellType Empty_cell_name, no_way_script
  52++B186 00          >    defb 00
  51++B187             >    ; CellType Empty_cell_name, no_way_script
  52++B187 00          >    defb 00
  51++B188             >    ; CellType Empty_cell_name, no_way_script
  52++B188 00          >    defb 00
  51++B189             >    ; CellType Empty_cell_name, no_way_script
  52++B189 00          >    defb 00
  51++B18A             >    ; CellType Empty_cell_name, no_way_script
  52++B18A 00          >    defb 00
  51++B18B             >    ; CellType Empty_cell_name, no_way_script
  52++B18B 00          >    defb 00
  51++B18C             >    ; CellType Empty_cell_name, no_way_script
  52++B18C 00          >    defb 00
  51++B18D             >    ; CellType Empty_cell_name, no_way_script
  52++B18D 00          >    defb 00
  51++B18E             >    ; CellType Empty_cell_name, no_way_script
  52++B18E 00          >    defb 00
  51++B18F             >    ; CellType Empty_cell_name, no_way_script
  52++B18F 00          >    defb 00
  51++B190             >    ; CellType Empty_cell_name, no_way_script
  52++B190 00          >    defb 00
  51++B191             >    ; CellType Empty_cell_name, no_way_script
  52++B191 00          >    defb 00
  51++B192             >    ; CellType Empty_cell_name, no_way_script
  52++B192 00          >    defb 00
  51++B193             >    ; CellType Empty_cell_name, no_way_script
  52++B193 00          >    defb 00
  51++B194             >    ; CellType Empty_cell_name, no_way_script
  52++B194 00          >    defb 00
  51++B195             >    ; CellType Empty_cell_name, no_way_script
  52++B195 00          >    defb 00
  51++B196             >    ; CellType Empty_cell_name, no_way_script
  52++B196 00          >    defb 00
  51++B197             >    ; CellType Empty_cell_name, no_way_script
  52++B197 00          >    defb 00
  51++B198             >    ; CellType Empty_cell_name, no_way_script
  52++B198 00          >    defb 00
  51++B199             >    ; CellType Empty_cell_name, no_way_script
  52++B199 00          >    defb 00
  51++B19A             >    ; CellType Empty_cell_name, no_way_script
  52++B19A 00          >    defb 00
  51++B19B             >    ; CellType Empty_cell_name, no_way_script
  52++B19B 00          >    defb 00
  51++B19C             >    ; CellType Empty_cell_name, no_way_script
  52++B19C 00          >    defb 00
  51++B19D             >    ; CellType Empty_cell_name, no_way_script
  52++B19D 00          >    defb 00
  51++B19E             >    ; CellType Empty_cell_name, no_way_script
  52++B19E 00          >    defb 00
  51++B19F             >    ; CellType Empty_cell_name, no_way_script
  52++B19F 00          >    defb 00
  51++B1A0             >    ; CellType Empty_cell_name, no_way_script
  52++B1A0 00          >    defb 00
  51++B1A1             >    ; CellType Empty_cell_name, no_way_script
  52++B1A1 00          >    defb 00
  51++B1A2             >    ; CellType Empty_cell_name, no_way_script
  52++B1A2 00          >    defb 00
  51++B1A3             >    ; CellType Empty_cell_name, no_way_script
  52++B1A3 00          >    defb 00
  51++B1A4             >    ; CellType Empty_cell_name, no_way_script
  52++B1A4 00          >    defb 00
  51++B1A5             >    ; CellType Empty_cell_name, no_way_script
  52++B1A5 00          >    defb 00
  51++B1A6             >    ; CellType Empty_cell_name, no_way_script
  52++B1A6 00          >    defb 00
  51++B1A7             >    ; CellType Empty_cell_name, no_way_script
  52++B1A7 00          >    defb 00
  51++B1A8             >    ; CellType Empty_cell_name, no_way_script
  52++B1A8 00          >    defb 00
  51++B1A9             >    ; CellType Empty_cell_name, no_way_script
  52++B1A9 00          >    defb 00
  51++B1AA             >    ; CellType Empty_cell_name, no_way_script
  52++B1AA 00          >    defb 00
  51++B1AB             >    ; CellType Empty_cell_name, no_way_script
  52++B1AB 00          >    defb 00
  51++B1AC             >    ; CellType Empty_cell_name, no_way_script
  52++B1AC 00          >    defb 00
  51++B1AD             >    ; CellType Empty_cell_name, no_way_script
  52++B1AD 00          >    defb 00
  51++B1AE             >    ; CellType Empty_cell_name, no_way_script
  52++B1AE 00          >    defb 00
  51++B1AF             >    ; CellType Empty_cell_name, no_way_script
  52++B1AF 00          >    defb 00
  51++B1B0             >    ; CellType Empty_cell_name, no_way_script
  52++B1B0 00          >    defb 00
  51++B1B1             >    ; CellType Empty_cell_name, no_way_script
  52++B1B1 00          >    defb 00
  51++B1B2             >    ; CellType Empty_cell_name, no_way_script
  52++B1B2 00          >    defb 00
  51++B1B3             >    ; CellType Empty_cell_name, no_way_script
  52++B1B3 00          >    defb 00
  51++B1B4             >    ; CellType Empty_cell_name, no_way_script
  52++B1B4 00          >    defb 00
  51++B1B5             >    ; CellType Empty_cell_name, no_way_script
  52++B1B5 00          >    defb 00
  51++B1B6             >    ; CellType Empty_cell_name, no_way_script
  52++B1B6 00          >    defb 00
  51++B1B7             >    ; CellType Empty_cell_name, no_way_script
  52++B1B7 00          >    defb 00
  51++B1B8             >    ; CellType Empty_cell_name, no_way_script
  52++B1B8 00          >    defb 00
  51++B1B9             >    ; CellType Empty_cell_name, no_way_script
  52++B1B9 00          >    defb 00
  51++B1BA             >    ; CellType Empty_cell_name, no_way_script
  52++B1BA 00          >    defb 00
  51++B1BB             >    ; CellType Empty_cell_name, no_way_script
  52++B1BB 00          >    defb 00
  51++B1BC             >    ; CellType Empty_cell_name, no_way_script
  52++B1BC 00          >    defb 00
  51++B1BD             >    ; CellType Empty_cell_name, no_way_script
  52++B1BD 00          >    defb 00
  51++B1BE             >    ; CellType Empty_cell_name, no_way_script
  52++B1BE 00          >    defb 00
  51++B1BF             >    ; CellType Empty_cell_name, no_way_script
  52++B1BF 00          >    defb 00
  51++B1C0             >    ; CellType Empty_cell_name, no_way_script
  52++B1C0 00          >    defb 00
  51++B1C1             >    ; CellType Empty_cell_name, no_way_script
  52++B1C1 00          >    defb 00
  51++B1C2             >    ; CellType Empty_cell_name, no_way_script
  52++B1C2 00          >    defb 00
  51++B1C3             >    ; CellType Empty_cell_name, no_way_script
  52++B1C3 00          >    defb 00
  51++B1C4             >    ; CellType Empty_cell_name, no_way_script
  52++B1C4 00          >    defb 00
  51++B1C5             >    ; CellType Empty_cell_name, no_way_script
  52++B1C5 00          >    defb 00
  51++B1C6             >    ; CellType Empty_cell_name, no_way_script
  52++B1C6 00          >    defb 00
  51++B1C7             >    ; CellType Empty_cell_name, no_way_script
  52++B1C7 00          >    defb 00
  51++B1C8             >    ; CellType Empty_cell_name, no_way_script
  52++B1C8 00          >    defb 00
  51++B1C9             >    ; CellType Empty_cell_name, no_way_script
  52++B1C9 00          >    defb 00
  51++B1CA             >    ; CellType Empty_cell_name, no_way_script
  52++B1CA 00          >    defb 00
  51++B1CB             >    ; CellType Empty_cell_name, no_way_script
  52++B1CB 00          >    defb 00
  51++B1CC             >    ; CellType Empty_cell_name, no_way_script
  52++B1CC 00          >    defb 00
  51++B1CD             >    ; CellType Empty_cell_name, no_way_script
  52++B1CD 00          >    defb 00
  51++B1CE             >    ; CellType Empty_cell_name, no_way_script
  52++B1CE 00          >    defb 00
  51++B1CF             >    ; CellType Empty_cell_name, no_way_script
  52++B1CF 00          >    defb 00
  51++B1D0             >    ; CellType Empty_cell_name, no_way_script
  52++B1D0 00          >    defb 00
  51++B1D1             >    ; CellType Empty_cell_name, no_way_script
  52++B1D1 00          >    defb 00
  51++B1D2             >    ; CellType Empty_cell_name, no_way_script
  52++B1D2 00          >    defb 00
  51++B1D3             >    ; CellType Empty_cell_name, no_way_script
  52++B1D3 00          >    defb 00
  51++B1D4             >    ; CellType Empty_cell_name, no_way_script
  52++B1D4 00          >    defb 00
  51++B1D5             >    ; CellType Empty_cell_name, no_way_script
  52++B1D5 00          >    defb 00
  51++B1D6             >    ; CellType Empty_cell_name, no_way_script
  52++B1D6 00          >    defb 00
  51++B1D7             >    ; CellType Empty_cell_name, no_way_script
  52++B1D7 00          >    defb 00
  51++B1D8             >    ; CellType Empty_cell_name, no_way_script
  52++B1D8 00          >    defb 00
  51++B1D9             >    ; CellType Empty_cell_name, no_way_script
  52++B1D9 00          >    defb 00
  51++B1DA             >    ; CellType Empty_cell_name, no_way_script
  52++B1DA 00          >    defb 00
  51++B1DB             >    ; CellType Empty_cell_name, no_way_script
  52++B1DB 00          >    defb 00
  51++B1DC             >    ; CellType Empty_cell_name, no_way_script
  52++B1DC 00          >    defb 00
  51++B1DD             >    ; CellType Empty_cell_name, no_way_script
  52++B1DD 00          >    defb 00
  51++B1DE             >    ; CellType Empty_cell_name, no_way_script
  52++B1DE 00          >    defb 00
  51++B1DF             >    ; CellType Empty_cell_name, no_way_script
  52++B1DF 00          >    defb 00
  51++B1E0             >    ; CellType Empty_cell_name, no_way_script
  52++B1E0 00          >    defb 00
  51++B1E1             >    ; CellType Empty_cell_name, no_way_script
  52++B1E1 00          >    defb 00
  51++B1E2             >    ; CellType Empty_cell_name, no_way_script
  52++B1E2 00          >    defb 00
  51++B1E3             >    ; CellType Empty_cell_name, no_way_script
  52++B1E3 00          >    defb 00
  51++B1E4             >    ; CellType Empty_cell_name, no_way_script
  52++B1E4 00          >    defb 00
  51++B1E5             >    ; CellType Empty_cell_name, no_way_script
  52++B1E5 00          >    defb 00
  51++B1E6             >    ; CellType Empty_cell_name, no_way_script
  52++B1E6 00          >    defb 00
  51++B1E7             >    ; CellType Empty_cell_name, no_way_script
  52++B1E7 00          >    defb 00
  51++B1E8             >    ; CellType Empty_cell_name, no_way_script
  52++B1E8 00          >    defb 00
  51++B1E9             >    ; CellType Empty_cell_name, no_way_script
  52++B1E9 00          >    defb 00
  51++B1EA             >    ; CellType Empty_cell_name, no_way_script
  52++B1EA 00          >    defb 00
  51++B1EB             >    ; CellType Empty_cell_name, no_way_script
  52++B1EB 00          >    defb 00
  51++B1EC             >    ; CellType Empty_cell_name, no_way_script
  52++B1EC 00          >    defb 00
  51++B1ED             >    ; CellType Empty_cell_name, no_way_script
  52++B1ED 00          >    defb 00
  51++B1EE             >    ; CellType Empty_cell_name, no_way_script
  52++B1EE 00          >    defb 00
  51++B1EF             >    ; CellType Empty_cell_name, no_way_script
  52++B1EF 00          >    defb 00
  51++B1F0             >    ; CellType Empty_cell_name, no_way_script
  52++B1F0 00          >    defb 00
  51++B1F1             >    ; CellType Empty_cell_name, no_way_script
  52++B1F1 00          >    defb 00
  51++B1F2             >    ; CellType Empty_cell_name, no_way_script
  52++B1F2 00          >    defb 00
  51++B1F3             >    ; CellType Empty_cell_name, no_way_script
  52++B1F3 00          >    defb 00
  51++B1F4             >    ; CellType Empty_cell_name, no_way_script
  52++B1F4 00          >    defb 00
  51++B1F5             >    ; CellType Empty_cell_name, no_way_script
  52++B1F5 00          >    defb 00
  51++B1F6             >    ; CellType Empty_cell_name, no_way_script
  52++B1F6 00          >    defb 00
  51++B1F7             >    ; CellType Empty_cell_name, no_way_script
  52++B1F7 00          >    defb 00
  51++B1F8             >    ; CellType Empty_cell_name, no_way_script
  52++B1F8 00          >    defb 00
  51++B1F9             >    ; CellType Empty_cell_name, no_way_script
  52++B1F9 00          >    defb 00
  51++B1FA             >    ; CellType Empty_cell_name, no_way_script
  52++B1FA 00          >    defb 00
  51++B1FB             >    ; CellType Empty_cell_name, no_way_script
  52++B1FB 00          >    defb 00
  51++B1FC             >    ; CellType Empty_cell_name, no_way_script
  52++B1FC 00          >    defb 00
  51++B1FD             >    ; CellType Empty_cell_name, no_way_script
  52++B1FD 00          >    defb 00
  51++B1FE             >    ; CellType Empty_cell_name, no_way_script
  52++B1FE 00          >    defb 00
  51++B1FF             >    ; CellType Empty_cell_name, no_way_script
  52++B1FF 00          >    defb 00
  51++B200             >    ; CellType Empty_cell_name, no_way_script
  52++B200 00          >    defb 00
  51++B201             >    ; CellType Empty_cell_name, no_way_script
  52++B201 00          >    defb 00
  51++B202             >    ; CellType Empty_cell_name, no_way_script
  52++B202 00          >    defb 00
  51++B203             >    ; CellType Empty_cell_name, no_way_script
  52++B203 00          >    defb 00
  51++B204             >    ; CellType Empty_cell_name, no_way_script
  52++B204 00          >    defb 00
  51++B205             >    ; CellType Empty_cell_name, no_way_script
  52++B205 00          >    defb 00
  51++B206             >    ; CellType Empty_cell_name, no_way_script
  52++B206 00          >    defb 00
  51++B207             >    ; CellType Empty_cell_name, no_way_script
  52++B207 00          >    defb 00
  51++B208             >    ; CellType Empty_cell_name, no_way_script
  52++B208 00          >    defb 00
  51++B209             >    ; CellType Empty_cell_name, no_way_script
  52++B209 00          >    defb 00
  51++B20A             >    ; CellType Empty_cell_name, no_way_script
  52++B20A 00          >    defb 00
  51++B20B             >    ; CellType Empty_cell_name, no_way_script
  52++B20B 00          >    defb 00
  51++B20C             >    ; CellType Empty_cell_name, no_way_script
  52++B20C 00          >    defb 00
  51++B20D             >    ; CellType Empty_cell_name, no_way_script
  52++B20D 00          >    defb 00
  51++B20E             >    ; CellType Empty_cell_name, no_way_script
  52++B20E 00          >    defb 00
  51++B20F             >    ; CellType Empty_cell_name, no_way_script
  52++B20F 00          >    defb 00
  51++B210             >    ; CellType Empty_cell_name, no_way_script
  52++B210 00          >    defb 00
  51++B211             >    ; CellType Empty_cell_name, no_way_script
  52++B211 00          >    defb 00
  51++B212             >    ; CellType Empty_cell_name, no_way_script
  52++B212 00          >    defb 00
  51++B213             >    ; CellType Empty_cell_name, no_way_script
  52++B213 00          >    defb 00
  51++B214             >    ; CellType Empty_cell_name, no_way_script
  52++B214 00          >    defb 00
  51++B215             >    ; CellType Empty_cell_name, no_way_script
  52++B215 00          >    defb 00
  51++B216             >    ; CellType Empty_cell_name, no_way_script
  52++B216 00          >    defb 00
  51++B217             >    ; CellType Empty_cell_name, no_way_script
  52++B217 00          >    defb 00
  51++B218             >    ; CellType Empty_cell_name, no_way_script
  52++B218 00          >    defb 00
  51++B219             >    ; CellType Empty_cell_name, no_way_script
  52++B219 00          >    defb 00
  51++B21A             >    ; CellType Empty_cell_name, no_way_script
  52++B21A 00          >    defb 00
  51++B21B             >    ; CellType Empty_cell_name, no_way_script
  52++B21B 00          >    defb 00
  51++B21C             >    ; CellType Empty_cell_name, no_way_script
  52++B21C 00          >    defb 00
  51++B21D             >    ; CellType Empty_cell_name, no_way_script
  52++B21D 00          >    defb 00
  51++B21E             >    ; CellType Empty_cell_name, no_way_script
  52++B21E 00          >    defb 00
  51++B21F             >    ; CellType Empty_cell_name, no_way_script
  52++B21F 00          >    defb 00
  51++B220             >    ; CellType Empty_cell_name, no_way_script
  52++B220 00          >    defb 00
  51++B221             >    ; CellType Empty_cell_name, no_way_script
  52++B221 00          >    defb 00
  51++B222             >    ; CellType Empty_cell_name, no_way_script
  52++B222 00          >    defb 00
  51++B223             >    ; CellType Empty_cell_name, no_way_script
  52++B223 00          >    defb 00
  51++B224             >    ; CellType Empty_cell_name, no_way_script
  52++B224 00          >    defb 00
  51++B225             >    ; CellType Empty_cell_name, no_way_script
  52++B225 00          >    defb 00
  51++B226             >    ; CellType Empty_cell_name, no_way_script
  52++B226 00          >    defb 00
  51++B227             >    ; CellType Empty_cell_name, no_way_script
  52++B227 00          >    defb 00
  51++B228             >    ; CellType Empty_cell_name, no_way_script
  52++B228 00          >    defb 00
  51++B229             >    ; CellType Empty_cell_name, no_way_script
  52++B229 00          >    defb 00
  51++B22A             >    ; CellType Empty_cell_name, no_way_script
  52++B22A 00          >    defb 00
  51++B22B             >    ; CellType Empty_cell_name, no_way_script
  52++B22B 00          >    defb 00
  51++B22C             >    ; CellType Empty_cell_name, no_way_script
  52++B22C 00          >    defb 00
  51++B22D             >    ; CellType Empty_cell_name, no_way_script
  52++B22D 00          >    defb 00
  51++B22E             >    ; CellType Empty_cell_name, no_way_script
  52++B22E 00          >    defb 00
  51++B22F             >    ; CellType Empty_cell_name, no_way_script
  52++B22F 00          >    defb 00
  51++B230             >    ; CellType Empty_cell_name, no_way_script
  52++B230 00          >    defb 00
  51++B231             >    ; CellType Empty_cell_name, no_way_script
  52++B231 00          >    defb 00
  51++B232             >    ; CellType Empty_cell_name, no_way_script
  52++B232 00          >    defb 00
  51++B233             >    ; CellType Empty_cell_name, no_way_script
  52++B233 00          >    defb 00
  51++B234             >    ; CellType Empty_cell_name, no_way_script
  52++B234 00          >    defb 00
  51++B235             >    ; CellType Empty_cell_name, no_way_script
  52++B235 00          >    defb 00
  51++B236             >    ; CellType Empty_cell_name, no_way_script
  52++B236 00          >    defb 00
  51++B237             >    ; CellType Empty_cell_name, no_way_script
  52++B237 00          >    defb 00
  51++B238             >    ; CellType Empty_cell_name, no_way_script
  52++B238 00          >    defb 00
  51++B239             >    ; CellType Empty_cell_name, no_way_script
  52++B239 00          >    defb 00
  51++B23A             >    ; CellType Empty_cell_name, no_way_script
  52++B23A 00          >    defb 00
  51++B23B             >    ; CellType Empty_cell_name, no_way_script
  52++B23B 00          >    defb 00
  51++B23C             >    ; CellType Empty_cell_name, no_way_script
  52++B23C 00          >    defb 00
  51++B23D             >    ; CellType Empty_cell_name, no_way_script
  52++B23D 00          >    defb 00
  51++B23E             >    ; CellType Empty_cell_name, no_way_script
  52++B23E 00          >    defb 00
  51++B23F             >    ; CellType Empty_cell_name, no_way_script
  52++B23F 00          >    defb 00
  51++B240             >    ; CellType Empty_cell_name, no_way_script
  52++B240 00          >    defb 00
  51++B241             >    ; CellType Empty_cell_name, no_way_script
  52++B241 00          >    defb 00
  51++B242             >    ; CellType Empty_cell_name, no_way_script
  52++B242 00          >    defb 00
  51++B243             >    ; CellType Empty_cell_name, no_way_script
  52++B243 00          >    defb 00
  51++B244             >    ; CellType Empty_cell_name, no_way_script
  52++B244 00          >    defb 00
  51++B245             >    ; CellType Empty_cell_name, no_way_script
  52++B245 00          >    defb 00
  51++B246             >    ; CellType Empty_cell_name, no_way_script
  52++B246 00          >    defb 00
  51++B247             >    ; CellType Empty_cell_name, no_way_script
  52++B247 00          >    defb 00
  51++B248             >    ; CellType Empty_cell_name, no_way_script
  52++B248 00          >    defb 00
  51++B249             >    ; CellType Empty_cell_name, no_way_script
  52++B249 00          >    defb 00
  51++B24A             >    ; CellType Empty_cell_name, no_way_script
  52++B24A 00          >    defb 00
  51++B24B             >    ; CellType Empty_cell_name, no_way_script
  52++B24B 00          >    defb 00
  51++B24C             >    ; CellType Empty_cell_name, no_way_script
  52++B24C 00          >    defb 00
  51++B24D             >    ; CellType Empty_cell_name, no_way_script
  52++B24D 00          >    defb 00
  51++B24E             >    ; CellType Empty_cell_name, no_way_script
  52++B24E 00          >    defb 00
  51++B24F             >    ; CellType Empty_cell_name, no_way_script
  52++B24F 00          >    defb 00
  51++B250             >    ; CellType Empty_cell_name, no_way_script
  52++B250 00          >    defb 00
  51++B251             >    ; CellType Empty_cell_name, no_way_script
  52++B251 00          >    defb 00
  51++B252             >    ; CellType Empty_cell_name, no_way_script
  52++B252 00          >    defb 00
  51++B253             >    ; CellType Empty_cell_name, no_way_script
  52++B253 00          >    defb 00
  51++B254             >    ; CellType Empty_cell_name, no_way_script
  52++B254 00          >    defb 00
  51++B255             >    ; CellType Empty_cell_name, no_way_script
  52++B255 00          >    defb 00
  51++B256             >    ; CellType Empty_cell_name, no_way_script
  52++B256 00          >    defb 00
  51++B257             >    ; CellType Empty_cell_name, no_way_script
  52++B257 00          >    defb 00
  51++B258             >    ; CellType Empty_cell_name, no_way_script
  52++B258 00          >    defb 00
  51++B259             >    ; CellType Empty_cell_name, no_way_script
  52++B259 00          >    defb 00
  51++B25A             >    ; CellType Empty_cell_name, no_way_script
  52++B25A 00          >    defb 00
  51++B25B             >    ; CellType Empty_cell_name, no_way_script
  52++B25B 00          >    defb 00
  51++B25C             >    ; CellType Empty_cell_name, no_way_script
  52++B25C 00          >    defb 00
  51++B25D             >    ; CellType Empty_cell_name, no_way_script
  52++B25D 00          >    defb 00
  51++B25E             >    ; CellType Empty_cell_name, no_way_script
  52++B25E 00          >    defb 00
  51++B25F             >    ; CellType Empty_cell_name, no_way_script
  52++B25F 00          >    defb 00
  51++B260             >    ; CellType Empty_cell_name, no_way_script
  52++B260 00          >    defb 00
  51++B261             >    ; CellType Empty_cell_name, no_way_script
  52++B261 00          >    defb 00
  51++B262             >    ; CellType Empty_cell_name, no_way_script
  52++B262 00          >    defb 00
  51++B263             >    ; CellType Empty_cell_name, no_way_script
  52++B263 00          >    defb 00
  51++B264             >    ; CellType Empty_cell_name, no_way_script
  52++B264 00          >    defb 00
  51++B265             >    ; CellType Empty_cell_name, no_way_script
  52++B265 00          >    defb 00
  51++B266             >    ; CellType Empty_cell_name, no_way_script
  52++B266 00          >    defb 00
  51++B267             >    ; CellType Empty_cell_name, no_way_script
  52++B267 00          >    defb 00
  51++B268             >    ; CellType Empty_cell_name, no_way_script
  52++B268 00          >    defb 00
  51++B269             >    ; CellType Empty_cell_name, no_way_script
  52++B269 00          >    defb 00
  51++B26A             >    ; CellType Empty_cell_name, no_way_script
  52++B26A 00          >    defb 00
  51++B26B             >    ; CellType Empty_cell_name, no_way_script
  52++B26B 00          >    defb 00
  51++B26C             >    ; CellType Empty_cell_name, no_way_script
  52++B26C 00          >    defb 00
  51++B26D             >    ; CellType Empty_cell_name, no_way_script
  52++B26D 00          >    defb 00
  51++B26E             >    ; CellType Empty_cell_name, no_way_script
  52++B26E 00          >    defb 00
  51++B26F             >    ; CellType Empty_cell_name, no_way_script
  52++B26F 00          >    defb 00
  51++B270             >    ; CellType Empty_cell_name, no_way_script
  52++B270 00          >    defb 00
  51++B271             >    ; CellType Empty_cell_name, no_way_script
  52++B271 00          >    defb 00
  51++B272             >    ; CellType Empty_cell_name, no_way_script
  52++B272 00          >    defb 00
  51++B273             >    ; CellType Empty_cell_name, no_way_script
  52++B273 00          >    defb 00
  51++B274             >    ; CellType Empty_cell_name, no_way_script
  52++B274 00          >    defb 00
  51++B275             >    ; CellType Empty_cell_name, no_way_script
  52++B275 00          >    defb 00
  51++B276             >    ; CellType Empty_cell_name, no_way_script
  52++B276 00          >    defb 00
  51++B277             >    ; CellType Empty_cell_name, no_way_script
  52++B277 00          >    defb 00
  51++B278             >    ; CellType Empty_cell_name, no_way_script
  52++B278 00          >    defb 00
  51++B279             >    ; CellType Empty_cell_name, no_way_script
  52++B279 00          >    defb 00
  51++B27A             >    ; CellType Empty_cell_name, no_way_script
  52++B27A 00          >    defb 00
  51++B27B             >    ; CellType Empty_cell_name, no_way_script
  52++B27B 00          >    defb 00
  51++B27C             >    ; CellType Empty_cell_name, no_way_script
  52++B27C 00          >    defb 00
  51++B27D             >    ; CellType Empty_cell_name, no_way_script
  52++B27D 00          >    defb 00
  51++B27E             >    ; CellType Empty_cell_name, no_way_script
  52++B27E 00          >    defb 00
  51++B27F             >    ; CellType Empty_cell_name, no_way_script
  52++B27F 00          >    defb 00
  51++B280             >    ; CellType Empty_cell_name, no_way_script
  52++B280 00          >    defb 00
  51++B281             >    ; CellType Empty_cell_name, no_way_script
  52++B281 00          >    defb 00
  51++B282             >    ; CellType Empty_cell_name, no_way_script
  52++B282 00          >    defb 00
  51++B283             >    ; CellType Empty_cell_name, no_way_script
  52++B283 00          >    defb 00
  51++B284             >    ; CellType Empty_cell_name, no_way_script
  52++B284 00          >    defb 00
  51++B285             >    ; CellType Empty_cell_name, no_way_script
  52++B285 00          >    defb 00
  51++B286             >    ; CellType Empty_cell_name, no_way_script
  52++B286 00          >    defb 00
  51++B287             >    ; CellType Empty_cell_name, no_way_script
  52++B287 00          >    defb 00
  51++B288             >    ; CellType Empty_cell_name, no_way_script
  52++B288 00          >    defb 00
  51++B289             >    ; CellType Empty_cell_name, no_way_script
  52++B289 00          >    defb 00
  51++B28A             >    ; CellType Empty_cell_name, no_way_script
  52++B28A 00          >    defb 00
  51++B28B             >    ; CellType Empty_cell_name, no_way_script
  52++B28B 00          >    defb 00
  51++B28C             >    ; CellType Empty_cell_name, no_way_script
  52++B28C 00          >    defb 00
  51++B28D             >    ; CellType Empty_cell_name, no_way_script
  52++B28D 00          >    defb 00
  51++B28E             >    ; CellType Empty_cell_name, no_way_script
  52++B28E 00          >    defb 00
  51++B28F             >    ; CellType Empty_cell_name, no_way_script
  52++B28F 00          >    defb 00
  51++B290             >    ; CellType Empty_cell_name, no_way_script
  52++B290 00          >    defb 00
  51++B291             >    ; CellType Empty_cell_name, no_way_script
  52++B291 00          >    defb 00
  51++B292             >    ; CellType Empty_cell_name, no_way_script
  52++B292 00          >    defb 00
  51++B293             >    ; CellType Empty_cell_name, no_way_script
  52++B293 00          >    defb 00
  51++B294             >    ; CellType Empty_cell_name, no_way_script
  52++B294 00          >    defb 00
  51++B295             >    ; CellType Empty_cell_name, no_way_script
  52++B295 00          >    defb 00
  51++B296             >    ; CellType Empty_cell_name, no_way_script
  52++B296 00          >    defb 00
  51++B297             >    ; CellType Empty_cell_name, no_way_script
  52++B297 00          >    defb 00
  51++B298             >    ; CellType Empty_cell_name, no_way_script
  52++B298 00          >    defb 00
  51++B299             >    ; CellType Empty_cell_name, no_way_script
  52++B299 00          >    defb 00
  51++B29A             >    ; CellType Empty_cell_name, no_way_script
  52++B29A 00          >    defb 00
  51++B29B             >    ; CellType Empty_cell_name, no_way_script
  52++B29B 00          >    defb 00
  51++B29C             >    ; CellType Empty_cell_name, no_way_script
  52++B29C 00          >    defb 00
  51++B29D             >    ; CellType Empty_cell_name, no_way_script
  52++B29D 00          >    defb 00
  51++B29E             >    ; CellType Empty_cell_name, no_way_script
  52++B29E 00          >    defb 00
  51++B29F             >    ; CellType Empty_cell_name, no_way_script
  52++B29F 00          >    defb 00
  51++B2A0             >    ; CellType Empty_cell_name, no_way_script
  52++B2A0 00          >    defb 00
  51++B2A1             >    ; CellType Empty_cell_name, no_way_script
  52++B2A1 00          >    defb 00
  51++B2A2             >    ; CellType Empty_cell_name, no_way_script
  52++B2A2 00          >    defb 00
  51++B2A3             >    ; CellType Empty_cell_name, no_way_script
  52++B2A3 00          >    defb 00
  51++B2A4             >    ; CellType Empty_cell_name, no_way_script
  52++B2A4 00          >    defb 00
  51++B2A5             >    ; CellType Empty_cell_name, no_way_script
  52++B2A5 00          >    defb 00
  51++B2A6             >    ; CellType Empty_cell_name, no_way_script
  52++B2A6 00          >    defb 00
  51++B2A7             >    ; CellType Empty_cell_name, no_way_script
  52++B2A7 00          >    defb 00
  51++B2A8             >    ; CellType Empty_cell_name, no_way_script
  52++B2A8 00          >    defb 00
  51++B2A9             >    ; CellType Empty_cell_name, no_way_script
  52++B2A9 00          >    defb 00
  51++B2AA             >    ; CellType Empty_cell_name, no_way_script
  52++B2AA 00          >    defb 00
  51++B2AB             >    ; CellType Empty_cell_name, no_way_script
  52++B2AB 00          >    defb 00
  51++B2AC             >    ; CellType Empty_cell_name, no_way_script
  52++B2AC 00          >    defb 00
  51++B2AD             >    ; CellType Empty_cell_name, no_way_script
  52++B2AD 00          >    defb 00
  51++B2AE             >    ; CellType Empty_cell_name, no_way_script
  52++B2AE 00          >    defb 00
  51++B2AF             >    ; CellType Empty_cell_name, no_way_script
  52++B2AF 00          >    defb 00
  51++B2B0             >    ; CellType Empty_cell_name, no_way_script
  52++B2B0 00          >    defb 00
  51++B2B1             >    ; CellType Empty_cell_name, no_way_script
  52++B2B1 00          >    defb 00
  51++B2B2             >    ; CellType Empty_cell_name, no_way_script
  52++B2B2 00          >    defb 00
  51++B2B3             >    ; CellType Empty_cell_name, no_way_script
  52++B2B3 00          >    defb 00
  51++B2B4             >    ; CellType Empty_cell_name, no_way_script
  52++B2B4 00          >    defb 00
  51++B2B5             >    ; CellType Empty_cell_name, no_way_script
  52++B2B5 00          >    defb 00
  51++B2B6             >    ; CellType Empty_cell_name, no_way_script
  52++B2B6 00          >    defb 00
  51++B2B7             >    ; CellType Empty_cell_name, no_way_script
  52++B2B7 00          >    defb 00
  51++B2B8             >    ; CellType Empty_cell_name, no_way_script
  52++B2B8 00          >    defb 00
  51++B2B9             >    ; CellType Empty_cell_name, no_way_script
  52++B2B9 00          >    defb 00
  51++B2BA             >    ; CellType Empty_cell_name, no_way_script
  52++B2BA 00          >    defb 00
  51++B2BB             >    ; CellType Empty_cell_name, no_way_script
  52++B2BB 00          >    defb 00
  51++B2BC             >    ; CellType Empty_cell_name, no_way_script
  52++B2BC 00          >    defb 00
  51++B2BD             >    ; CellType Empty_cell_name, no_way_script
  52++B2BD 00          >    defb 00
  51++B2BE             >    ; CellType Empty_cell_name, no_way_script
  52++B2BE 00          >    defb 00
  51++B2BF             >    ; CellType Empty_cell_name, no_way_script
  52++B2BF 00          >    defb 00
  51++B2C0             >    ; CellType Empty_cell_name, no_way_script
  52++B2C0 00          >    defb 00
  51++B2C1             >    ; CellType Empty_cell_name, no_way_script
  52++B2C1 00          >    defb 00
  51++B2C2             >    ; CellType Empty_cell_name, no_way_script
  52++B2C2 00          >    defb 00
  51++B2C3             >    ; CellType Empty_cell_name, no_way_script
  52++B2C3 00          >    defb 00
  51++B2C4             >    ; CellType Empty_cell_name, no_way_script
  52++B2C4 00          >    defb 00
  51++B2C5             >    ; CellType Empty_cell_name, no_way_script
  52++B2C5 00          >    defb 00
  51++B2C6             >    ; CellType Empty_cell_name, no_way_script
  52++B2C6 00          >    defb 00
  51++B2C7             >    ; CellType Empty_cell_name, no_way_script
  52++B2C7 00          >    defb 00
  51++B2C8             >    ; CellType Empty_cell_name, no_way_script
  52++B2C8 00          >    defb 00
  51++B2C9             >    ; CellType Empty_cell_name, no_way_script
  52++B2C9 00          >    defb 00
  51++B2CA             >    ; CellType Empty_cell_name, no_way_script
  52++B2CA 00          >    defb 00
  51++B2CB             >    ; CellType Empty_cell_name, no_way_script
  52++B2CB 00          >    defb 00
  51++B2CC             >    ; CellType Empty_cell_name, no_way_script
  52++B2CC 00          >    defb 00
  51++B2CD             >    ; CellType Empty_cell_name, no_way_script
  52++B2CD 00          >    defb 00
  51++B2CE             >    ; CellType Empty_cell_name, no_way_script
  52++B2CE 00          >    defb 00
  51++B2CF             >    ; CellType Empty_cell_name, no_way_script
  52++B2CF 00          >    defb 00
  51++B2D0             >    ; CellType Empty_cell_name, no_way_script
  52++B2D0 00          >    defb 00
  51++B2D1             >    ; CellType Empty_cell_name, no_way_script
  52++B2D1 00          >    defb 00
  51++B2D2             >    ; CellType Empty_cell_name, no_way_script
  52++B2D2 00          >    defb 00
  51++B2D3             >    ; CellType Empty_cell_name, no_way_script
  52++B2D3 00          >    defb 00
  51++B2D4             >    ; CellType Empty_cell_name, no_way_script
  52++B2D4 00          >    defb 00
  51++B2D5             >    ; CellType Empty_cell_name, no_way_script
  52++B2D5 00          >    defb 00
  51++B2D6             >    ; CellType Empty_cell_name, no_way_script
  52++B2D6 00          >    defb 00
  51++B2D7             >    ; CellType Empty_cell_name, no_way_script
  52++B2D7 00          >    defb 00
  51++B2D8             >    ; CellType Empty_cell_name, no_way_script
  52++B2D8 00          >    defb 00
  51++B2D9             >    ; CellType Empty_cell_name, no_way_script
  52++B2D9 00          >    defb 00
  51++B2DA             >    ; CellType Empty_cell_name, no_way_script
  52++B2DA 00          >    defb 00
  51++B2DB             >    ; CellType Empty_cell_name, no_way_script
  52++B2DB 00          >    defb 00
  51++B2DC             >    ; CellType Empty_cell_name, no_way_script
  52++B2DC 00          >    defb 00
  51++B2DD             >    ; CellType Empty_cell_name, no_way_script
  52++B2DD 00          >    defb 00
  51++B2DE             >    ; CellType Empty_cell_name, no_way_script
  52++B2DE 00          >    defb 00
  51++B2DF             >    ; CellType Empty_cell_name, no_way_script
  52++B2DF 00          >    defb 00
  51++B2E0             >    ; CellType Empty_cell_name, no_way_script
  52++B2E0 00          >    defb 00
  51++B2E1             >    ; CellType Empty_cell_name, no_way_script
  52++B2E1 00          >    defb 00
  51++B2E2             >    ; CellType Empty_cell_name, no_way_script
  52++B2E2 00          >    defb 00
  51++B2E3             >    ; CellType Empty_cell_name, no_way_script
  52++B2E3 00          >    defb 00
  51++B2E4             >    ; CellType Empty_cell_name, no_way_script
  52++B2E4 00          >    defb 00
  51++B2E5             >    ; CellType Empty_cell_name, no_way_script
  52++B2E5 00          >    defb 00
  51++B2E6             >    ; CellType Empty_cell_name, no_way_script
  52++B2E6 00          >    defb 00
  51++B2E7             >    ; CellType Empty_cell_name, no_way_script
  52++B2E7 00          >    defb 00
  51++B2E8             >    ; CellType Empty_cell_name, no_way_script
  52++B2E8 00          >    defb 00
  51++B2E9             >    ; CellType Empty_cell_name, no_way_script
  52++B2E9 00          >    defb 00
  51++B2EA             >    ; CellType Empty_cell_name, no_way_script
  52++B2EA 00          >    defb 00
  51++B2EB             >    ; CellType Empty_cell_name, no_way_script
  52++B2EB 00          >    defb 00
  51++B2EC             >    ; CellType Empty_cell_name, no_way_script
  52++B2EC 00          >    defb 00
  51++B2ED             >    ; CellType Empty_cell_name, no_way_script
  52++B2ED 00          >    defb 00
  51++B2EE             >    ; CellType Empty_cell_name, no_way_script
  52++B2EE 00          >    defb 00
  51++B2EF             >    ; CellType Empty_cell_name, no_way_script
  52++B2EF 00          >    defb 00
  51++B2F0             >    ; CellType Empty_cell_name, no_way_script
  52++B2F0 00          >    defb 00
  51++B2F1             >    ; CellType Empty_cell_name, no_way_script
  52++B2F1 00          >    defb 00
  51++B2F2             >    ; CellType Empty_cell_name, no_way_script
  52++B2F2 00          >    defb 00
  51++B2F3             >    ; CellType Empty_cell_name, no_way_script
  52++B2F3 00          >    defb 00
  51++B2F4             >    ; CellType Empty_cell_name, no_way_script
  52++B2F4 00          >    defb 00
  51++B2F5             >    ; CellType Empty_cell_name, no_way_script
  52++B2F5 00          >    defb 00
  51++B2F6             >    ; CellType Empty_cell_name, no_way_script
  52++B2F6 00          >    defb 00
  51++B2F7             >    ; CellType Empty_cell_name, no_way_script
  52++B2F7 00          >    defb 00
  51++B2F8             >    ; CellType Empty_cell_name, no_way_script
  52++B2F8 00          >    defb 00
  51++B2F9             >    ; CellType Empty_cell_name, no_way_script
  52++B2F9 00          >    defb 00
  51++B2FA             >    ; CellType Empty_cell_name, no_way_script
  52++B2FA 00          >    defb 00
  51++B2FB             >    ; CellType Empty_cell_name, no_way_script
  52++B2FB 00          >    defb 00
  51++B2FC             >    ; CellType Empty_cell_name, no_way_script
  52++B2FC 00          >    defb 00
  51++B2FD             >    ; CellType Empty_cell_name, no_way_script
  52++B2FD 00          >    defb 00
  51++B2FE             >    ; CellType Empty_cell_name, no_way_script
  52++B2FE 00          >    defb 00
  51++B2FF             >    ; CellType Empty_cell_name, no_way_script
  52++B2FF 00          >    defb 00
  51++B300             >    ; CellType Empty_cell_name, no_way_script
  52++B300 00          >    defb 00
  51++B301             >    ; CellType Empty_cell_name, no_way_script
  52++B301 00          >    defb 00
  51++B302             >    ; CellType Empty_cell_name, no_way_script
  52++B302 00          >    defb 00
  51++B303             >    ; CellType Empty_cell_name, no_way_script
  52++B303 00          >    defb 00
  51++B304             >    ; CellType Empty_cell_name, no_way_script
  52++B304 00          >    defb 00
  51++B305             >    ; CellType Empty_cell_name, no_way_script
  52++B305 00          >    defb 00
  51++B306             >    ; CellType Empty_cell_name, no_way_script
  52++B306 00          >    defb 00
  51++B307             >    ; CellType Empty_cell_name, no_way_script
  52++B307 00          >    defb 00
  51++B308             >    ; CellType Empty_cell_name, no_way_script
  52++B308 00          >    defb 00
  51++B309             >    ; CellType Empty_cell_name, no_way_script
  52++B309 00          >    defb 00
  51++B30A             >    ; CellType Empty_cell_name, no_way_script
  52++B30A 00          >    defb 00
  51++B30B             >    ; CellType Empty_cell_name, no_way_script
  52++B30B 00          >    defb 00
  51++B30C             >    ; CellType Empty_cell_name, no_way_script
  52++B30C 00          >    defb 00
  51++B30D             >    ; CellType Empty_cell_name, no_way_script
  52++B30D 00          >    defb 00
  51++B30E             >    ; CellType Empty_cell_name, no_way_script
  52++B30E 00          >    defb 00
  51++B30F             >    ; CellType Empty_cell_name, no_way_script
  52++B30F 00          >    defb 00
  51++B310             >    ; CellType Empty_cell_name, no_way_script
  52++B310 00          >    defb 00
  51++B311             >    ; CellType Empty_cell_name, no_way_script
  52++B311 00          >    defb 00
  51++B312             >    ; CellType Empty_cell_name, no_way_script
  52++B312 00          >    defb 00
  51++B313             >    ; CellType Empty_cell_name, no_way_script
  52++B313 00          >    defb 00
  51++B314             >    ; CellType Empty_cell_name, no_way_script
  52++B314 00          >    defb 00
  51++B315             >    ; CellType Empty_cell_name, no_way_script
  52++B315 00          >    defb 00
  51++B316             >    ; CellType Empty_cell_name, no_way_script
  52++B316 00          >    defb 00
  51++B317             >    ; CellType Empty_cell_name, no_way_script
  52++B317 00          >    defb 00
  51++B318             >    ; CellType Empty_cell_name, no_way_script
  52++B318 00          >    defb 00
  51++B319             >    ; CellType Empty_cell_name, no_way_script
  52++B319 00          >    defb 00
  51++B31A             >    ; CellType Empty_cell_name, no_way_script
  52++B31A 00          >    defb 00
  51++B31B             >    ; CellType Empty_cell_name, no_way_script
  52++B31B 00          >    defb 00
  51++B31C             >    ; CellType Empty_cell_name, no_way_script
  52++B31C 00          >    defb 00
  51++B31D             >    ; CellType Empty_cell_name, no_way_script
  52++B31D 00          >    defb 00
  51++B31E             >    ; CellType Empty_cell_name, no_way_script
  52++B31E 00          >    defb 00
  51++B31F             >    ; CellType Empty_cell_name, no_way_script
  52++B31F 00          >    defb 00
  51++B320             >    ; CellType Empty_cell_name, no_way_script
  52++B320 00          >    defb 00
  51++B321             >    ; CellType Empty_cell_name, no_way_script
  52++B321 00          >    defb 00
  51++B322             >    ; CellType Empty_cell_name, no_way_script
  52++B322 00          >    defb 00
  51++B323             >    ; CellType Empty_cell_name, no_way_script
  52++B323 00          >    defb 00
  51++B324             >    ; CellType Empty_cell_name, no_way_script
  52++B324 00          >    defb 00
  51++B325             >    ; CellType Empty_cell_name, no_way_script
  52++B325 00          >    defb 00
  51++B326             >    ; CellType Empty_cell_name, no_way_script
  52++B326 00          >    defb 00
  51++B327             >    ; CellType Empty_cell_name, no_way_script
  52++B327 00          >    defb 00
  51++B328             >    ; CellType Empty_cell_name, no_way_script
  52++B328 00          >    defb 00
  51++B329             >    ; CellType Empty_cell_name, no_way_script
  52++B329 00          >    defb 00
  51++B32A             >    ; CellType Empty_cell_name, no_way_script
  52++B32A 00          >    defb 00
  51++B32B             >    ; CellType Empty_cell_name, no_way_script
  52++B32B 00          >    defb 00
  51++B32C             >    ; CellType Empty_cell_name, no_way_script
  52++B32C 00          >    defb 00
  51++B32D             >    ; CellType Empty_cell_name, no_way_script
  52++B32D 00          >    defb 00
  51++B32E             >    ; CellType Empty_cell_name, no_way_script
  52++B32E 00          >    defb 00
  51++B32F             >    ; CellType Empty_cell_name, no_way_script
  52++B32F 00          >    defb 00
  51++B330             >    ; CellType Empty_cell_name, no_way_script
  52++B330 00          >    defb 00
  51++B331             >    ; CellType Empty_cell_name, no_way_script
  52++B331 00          >    defb 00
  51++B332             >    ; CellType Empty_cell_name, no_way_script
  52++B332 00          >    defb 00
  51++B333             >    ; CellType Empty_cell_name, no_way_script
  52++B333 00          >    defb 00
  51++B334             >    ; CellType Empty_cell_name, no_way_script
  52++B334 00          >    defb 00
  51++B335             >    ; CellType Empty_cell_name, no_way_script
  52++B335 00          >    defb 00
  51++B336             >    ; CellType Empty_cell_name, no_way_script
  52++B336 00          >    defb 00
  51++B337             >    ; CellType Empty_cell_name, no_way_script
  52++B337 00          >    defb 00
  51++B338             >    ; CellType Empty_cell_name, no_way_script
  52++B338 00          >    defb 00
  51++B339             >    ; CellType Empty_cell_name, no_way_script
  52++B339 00          >    defb 00
  51++B33A             >    ; CellType Empty_cell_name, no_way_script
  52++B33A 00          >    defb 00
  51++B33B             >    ; CellType Empty_cell_name, no_way_script
  52++B33B 00          >    defb 00
  53++B33C                EDUP
  54++B33C
  55++B33C              ITEM_TYPES:
  56++B33C                DUP ItemType*100
  57++B33C 00          >    defb 00
  57++B33D 00          >    defb 00
  57++B33E 00          >    defb 00
  57++B33F 00          >    defb 00
  57++B340 00          >    defb 00
  57++B341 00          >    defb 00
  57++B342 00          >    defb 00
  57++B343 00          >    defb 00
  57++B344 00          >    defb 00
  57++B345 00          >    defb 00
  57++B346 00          >    defb 00
  57++B347 00          >    defb 00
  57++B348 00          >    defb 00
  57++B349 00          >    defb 00
  57++B34A 00          >    defb 00
  57++B34B 00          >    defb 00
  57++B34C 00          >    defb 00
  57++B34D 00          >    defb 00
  57++B34E 00          >    defb 00
  57++B34F 00          >    defb 00
  57++B350 00          >    defb 00
  57++B351 00          >    defb 00
  57++B352 00          >    defb 00
  57++B353 00          >    defb 00
  57++B354 00          >    defb 00
  57++B355 00          >    defb 00
  57++B356 00          >    defb 00
  57++B357 00          >    defb 00
  57++B358 00          >    defb 00
  57++B359 00          >    defb 00
  57++B35A 00          >    defb 00
  57++B35B 00          >    defb 00
  57++B35C 00          >    defb 00
  57++B35D 00          >    defb 00
  57++B35E 00          >    defb 00
  57++B35F 00          >    defb 00
  57++B360 00          >    defb 00
  57++B361 00          >    defb 00
  57++B362 00          >    defb 00
  57++B363 00          >    defb 00
  57++B364 00          >    defb 00
  57++B365 00          >    defb 00
  57++B366 00          >    defb 00
  57++B367 00          >    defb 00
  57++B368 00          >    defb 00
  57++B369 00          >    defb 00
  57++B36A 00          >    defb 00
  57++B36B 00          >    defb 00
  57++B36C 00          >    defb 00
  57++B36D 00          >    defb 00
  57++B36E 00          >    defb 00
  57++B36F 00          >    defb 00
  57++B370 00          >    defb 00
  57++B371 00          >    defb 00
  57++B372 00          >    defb 00
  57++B373 00          >    defb 00
  57++B374 00          >    defb 00
  57++B375 00          >    defb 00
  57++B376 00          >    defb 00
  57++B377 00          >    defb 00
  57++B378 00          >    defb 00
  57++B379 00          >    defb 00
  57++B37A 00          >    defb 00
  57++B37B 00          >    defb 00
  57++B37C 00          >    defb 00
  57++B37D 00          >    defb 00
  57++B37E 00          >    defb 00
  57++B37F 00          >    defb 00
  57++B380 00          >    defb 00
  57++B381 00          >    defb 00
  57++B382 00          >    defb 00
  57++B383 00          >    defb 00
  57++B384 00          >    defb 00
  57++B385 00          >    defb 00
  57++B386 00          >    defb 00
  57++B387 00          >    defb 00
  57++B388 00          >    defb 00
  57++B389 00          >    defb 00
  57++B38A 00          >    defb 00
  57++B38B 00          >    defb 00
  57++B38C 00          >    defb 00
  57++B38D 00          >    defb 00
  57++B38E 00          >    defb 00
  57++B38F 00          >    defb 00
  57++B390 00          >    defb 00
  57++B391 00          >    defb 00
  57++B392 00          >    defb 00
  57++B393 00          >    defb 00
  57++B394 00          >    defb 00
  57++B395 00          >    defb 00
  57++B396 00          >    defb 00
  57++B397 00          >    defb 00
  57++B398 00          >    defb 00
  57++B399 00          >    defb 00
  57++B39A 00          >    defb 00
  57++B39B 00          >    defb 00
  57++B39C 00          >    defb 00
  57++B39D 00          >    defb 00
  57++B39E 00          >    defb 00
  57++B39F 00          >    defb 00
  57++B3A0 00          >    defb 00
  57++B3A1 00          >    defb 00
  57++B3A2 00          >    defb 00
  57++B3A3 00          >    defb 00
  57++B3A4 00          >    defb 00
  57++B3A5 00          >    defb 00
  57++B3A6 00          >    defb 00
  57++B3A7 00          >    defb 00
  57++B3A8 00          >    defb 00
  57++B3A9 00          >    defb 00
  57++B3AA 00          >    defb 00
  57++B3AB 00          >    defb 00
  57++B3AC 00          >    defb 00
  57++B3AD 00          >    defb 00
  57++B3AE 00          >    defb 00
  57++B3AF 00          >    defb 00
  57++B3B0 00          >    defb 00
  57++B3B1 00          >    defb 00
  57++B3B2 00          >    defb 00
  57++B3B3 00          >    defb 00
  57++B3B4 00          >    defb 00
  57++B3B5 00          >    defb 00
  57++B3B6 00          >    defb 00
  57++B3B7 00          >    defb 00
  57++B3B8 00          >    defb 00
  57++B3B9 00          >    defb 00
  57++B3BA 00          >    defb 00
  57++B3BB 00          >    defb 00
  57++B3BC 00          >    defb 00
  57++B3BD 00          >    defb 00
  57++B3BE 00          >    defb 00
  57++B3BF 00          >    defb 00
  57++B3C0 00          >    defb 00
  57++B3C1 00          >    defb 00
  57++B3C2 00          >    defb 00
  57++B3C3 00          >    defb 00
  57++B3C4 00          >    defb 00
  57++B3C5 00          >    defb 00
  57++B3C6 00          >    defb 00
  57++B3C7 00          >    defb 00
  57++B3C8 00          >    defb 00
  57++B3C9 00          >    defb 00
  57++B3CA 00          >    defb 00
  57++B3CB 00          >    defb 00
  57++B3CC 00          >    defb 00
  57++B3CD 00          >    defb 00
  57++B3CE 00          >    defb 00
  57++B3CF 00          >    defb 00
  57++B3D0 00          >    defb 00
  57++B3D1 00          >    defb 00
  57++B3D2 00          >    defb 00
  57++B3D3 00          >    defb 00
  57++B3D4 00          >    defb 00
  57++B3D5 00          >    defb 00
  57++B3D6 00          >    defb 00
  57++B3D7 00          >    defb 00
  57++B3D8 00          >    defb 00
  57++B3D9 00          >    defb 00
  57++B3DA 00          >    defb 00
  57++B3DB 00          >    defb 00
  57++B3DC 00          >    defb 00
  57++B3DD 00          >    defb 00
  57++B3DE 00          >    defb 00
  57++B3DF 00          >    defb 00
  57++B3E0 00          >    defb 00
  57++B3E1 00          >    defb 00
  57++B3E2 00          >    defb 00
  57++B3E3 00          >    defb 00
  57++B3E4 00          >    defb 00
  57++B3E5 00          >    defb 00
  57++B3E6 00          >    defb 00
  57++B3E7 00          >    defb 00
  57++B3E8 00          >    defb 00
  57++B3E9 00          >    defb 00
  57++B3EA 00          >    defb 00
  57++B3EB 00          >    defb 00
  57++B3EC 00          >    defb 00
  57++B3ED 00          >    defb 00
  57++B3EE 00          >    defb 00
  57++B3EF 00          >    defb 00
  57++B3F0 00          >    defb 00
  57++B3F1 00          >    defb 00
  57++B3F2 00          >    defb 00
  57++B3F3 00          >    defb 00
  57++B3F4 00          >    defb 00
  57++B3F5 00          >    defb 00
  57++B3F6 00          >    defb 00
  57++B3F7 00          >    defb 00
  57++B3F8 00          >    defb 00
  57++B3F9 00          >    defb 00
  57++B3FA 00          >    defb 00
  57++B3FB 00          >    defb 00
  57++B3FC 00          >    defb 00
  57++B3FD 00          >    defb 00
  57++B3FE 00          >    defb 00
  57++B3FF 00          >    defb 00
  57++B400 00          >    defb 00
  57++B401 00          >    defb 00
  57++B402 00          >    defb 00
  57++B403 00          >    defb 00
  57++B404 00          >    defb 00
  57++B405 00          >    defb 00
  57++B406 00          >    defb 00
  57++B407 00          >    defb 00
  57++B408 00          >    defb 00
  57++B409 00          >    defb 00
  57++B40A 00          >    defb 00
  57++B40B 00          >    defb 00
  57++B40C 00          >    defb 00
  57++B40D 00          >    defb 00
  57++B40E 00          >    defb 00
  57++B40F 00          >    defb 00
  57++B410 00          >    defb 00
  57++B411 00          >    defb 00
  57++B412 00          >    defb 00
  57++B413 00          >    defb 00
  57++B414 00          >    defb 00
  57++B415 00          >    defb 00
  57++B416 00          >    defb 00
  57++B417 00          >    defb 00
  57++B418 00          >    defb 00
  57++B419 00          >    defb 00
  57++B41A 00          >    defb 00
  57++B41B 00          >    defb 00
  57++B41C 00          >    defb 00
  57++B41D 00          >    defb 00
  57++B41E 00          >    defb 00
  57++B41F 00          >    defb 00
  57++B420 00          >    defb 00
  57++B421 00          >    defb 00
  57++B422 00          >    defb 00
  57++B423 00          >    defb 00
  57++B424 00          >    defb 00
  57++B425 00          >    defb 00
  57++B426 00          >    defb 00
  57++B427 00          >    defb 00
  57++B428 00          >    defb 00
  57++B429 00          >    defb 00
  57++B42A 00          >    defb 00
  57++B42B 00          >    defb 00
  57++B42C 00          >    defb 00
  57++B42D 00          >    defb 00
  57++B42E 00          >    defb 00
  57++B42F 00          >    defb 00
  57++B430 00          >    defb 00
  57++B431 00          >    defb 00
  57++B432 00          >    defb 00
  57++B433 00          >    defb 00
  57++B434 00          >    defb 00
  57++B435 00          >    defb 00
  57++B436 00          >    defb 00
  57++B437 00          >    defb 00
  57++B438 00          >    defb 00
  57++B439 00          >    defb 00
  57++B43A 00          >    defb 00
  57++B43B 00          >    defb 00
  57++B43C 00          >    defb 00
  57++B43D 00          >    defb 00
  57++B43E 00          >    defb 00
  57++B43F 00          >    defb 00
  57++B440 00          >    defb 00
  57++B441 00          >    defb 00
  57++B442 00          >    defb 00
  57++B443 00          >    defb 00
  57++B444 00          >    defb 00
  57++B445 00          >    defb 00
  57++B446 00          >    defb 00
  57++B447 00          >    defb 00
  57++B448 00          >    defb 00
  57++B449 00          >    defb 00
  57++B44A 00          >    defb 00
  57++B44B 00          >    defb 00
  57++B44C 00          >    defb 00
  57++B44D 00          >    defb 00
  57++B44E 00          >    defb 00
  57++B44F 00          >    defb 00
  57++B450 00          >    defb 00
  57++B451 00          >    defb 00
  57++B452 00          >    defb 00
  57++B453 00          >    defb 00
  57++B454 00          >    defb 00
  57++B455 00          >    defb 00
  57++B456 00          >    defb 00
  57++B457 00          >    defb 00
  57++B458 00          >    defb 00
  57++B459 00          >    defb 00
  57++B45A 00          >    defb 00
  57++B45B 00          >    defb 00
  57++B45C 00          >    defb 00
  57++B45D 00          >    defb 00
  57++B45E 00          >    defb 00
  57++B45F 00          >    defb 00
  57++B460 00          >    defb 00
  57++B461 00          >    defb 00
  57++B462 00          >    defb 00
  57++B463 00          >    defb 00
  57++B464 00          >    defb 00
  57++B465 00          >    defb 00
  57++B466 00          >    defb 00
  57++B467 00          >    defb 00
  57++B468 00          >    defb 00
  57++B469 00          >    defb 00
  57++B46A 00          >    defb 00
  57++B46B 00          >    defb 00
  57++B46C 00          >    defb 00
  57++B46D 00          >    defb 00
  57++B46E 00          >    defb 00
  57++B46F 00          >    defb 00
  57++B470 00          >    defb 00
  57++B471 00          >    defb 00
  57++B472 00          >    defb 00
  57++B473 00          >    defb 00
  57++B474 00          >    defb 00
  57++B475 00          >    defb 00
  57++B476 00          >    defb 00
  57++B477 00          >    defb 00
  57++B478 00          >    defb 00
  57++B479 00          >    defb 00
  57++B47A 00          >    defb 00
  57++B47B 00          >    defb 00
  57++B47C 00          >    defb 00
  57++B47D 00          >    defb 00
  57++B47E 00          >    defb 00
  57++B47F 00          >    defb 00
  57++B480 00          >    defb 00
  57++B481 00          >    defb 00
  57++B482 00          >    defb 00
  57++B483 00          >    defb 00
  57++B484 00          >    defb 00
  57++B485 00          >    defb 00
  57++B486 00          >    defb 00
  57++B487 00          >    defb 00
  57++B488 00          >    defb 00
  57++B489 00          >    defb 00
  57++B48A 00          >    defb 00
  57++B48B 00          >    defb 00
  57++B48C 00          >    defb 00
  57++B48D 00          >    defb 00
  57++B48E 00          >    defb 00
  57++B48F 00          >    defb 00
  57++B490 00          >    defb 00
  57++B491 00          >    defb 00
  57++B492 00          >    defb 00
  57++B493 00          >    defb 00
  57++B494 00          >    defb 00
  57++B495 00          >    defb 00
  57++B496 00          >    defb 00
  57++B497 00          >    defb 00
  57++B498 00          >    defb 00
  57++B499 00          >    defb 00
  57++B49A 00          >    defb 00
  57++B49B 00          >    defb 00
  57++B49C 00          >    defb 00
  57++B49D 00          >    defb 00
  57++B49E 00          >    defb 00
  57++B49F 00          >    defb 00
  57++B4A0 00          >    defb 00
  57++B4A1 00          >    defb 00
  57++B4A2 00          >    defb 00
  57++B4A3 00          >    defb 00
  57++B4A4 00          >    defb 00
  57++B4A5 00          >    defb 00
  57++B4A6 00          >    defb 00
  57++B4A7 00          >    defb 00
  57++B4A8 00          >    defb 00
  57++B4A9 00          >    defb 00
  57++B4AA 00          >    defb 00
  57++B4AB 00          >    defb 00
  57++B4AC 00          >    defb 00
  57++B4AD 00          >    defb 00
  57++B4AE 00          >    defb 00
  57++B4AF 00          >    defb 00
  57++B4B0 00          >    defb 00
  57++B4B1 00          >    defb 00
  57++B4B2 00          >    defb 00
  57++B4B3 00          >    defb 00
  57++B4B4 00          >    defb 00
  57++B4B5 00          >    defb 00
  57++B4B6 00          >    defb 00
  57++B4B7 00          >    defb 00
  57++B4B8 00          >    defb 00
  57++B4B9 00          >    defb 00
  57++B4BA 00          >    defb 00
  57++B4BB 00          >    defb 00
  57++B4BC 00          >    defb 00
  57++B4BD 00          >    defb 00
  57++B4BE 00          >    defb 00
  57++B4BF 00          >    defb 00
  57++B4C0 00          >    defb 00
  57++B4C1 00          >    defb 00
  57++B4C2 00          >    defb 00
  57++B4C3 00          >    defb 00
  57++B4C4 00          >    defb 00
  57++B4C5 00          >    defb 00
  57++B4C6 00          >    defb 00
  57++B4C7 00          >    defb 00
  57++B4C8 00          >    defb 00
  57++B4C9 00          >    defb 00
  57++B4CA 00          >    defb 00
  57++B4CB 00          >    defb 00
  58++B4CC                 EDUP
  59++B4CC
  60++B4CC              ;  общие бинарные процедуры
  61++B4CC
  62++B4CC              binary_set_active_cell_left: ; устанавливаем позицию влево на 1 ячейку
  63++B4CC 3A 06 60       LD A, ( Vars.MapCell_xy+Point.x )
  64++B4CF 3D             DEC A
  65++B4D0 32 06 60       LD ( Vars.MapCell_xy+Point.x ), A
  66++B4D3 C9             RET
  67++B4D4
  68++B4D4
  69++B4D4              ; общие скрипты:
  70++B4D4
  71++B4D4              ; не получилось
  72++B4D4              nope_script:
  73++B4D4                shiruFX FX_Nope
  73++B4D4 5A 65       >    defw beeper.shiru_me
  73++B4D6 35          >    defb FX_Nope
  74++B4D7                goto no_way_script
  74++B4D7 A7 61       >    defw zxengine.goto_me
  74++B4D9 F9 B4       >    defw no_way_script
  75++B4DB
  76++B4DB              base_kick_fault: ; неуспех удара предметом
  77++B4DB                shiruFX FX_Wall
  77++B4DB 5A 65       >    defw beeper.shiru_me
  77++B4DD 33          >    defb FX_Wall
  78++B4DE                CallScript action_ring_explode
  78++B4DE 11 62       >    defw zxengine.call_script_me
  78++B4E0 FE B4       >    defw action_ring_explode
  79++B4E2                ; ShowText Kick_fault_mess
  80++B4E2                goto no_way_script
  80++B4E2 A7 61       >    defw zxengine.goto_me
  80++B4E4 F9 B4       >    defw no_way_script
  81++B4E6
  82++B4E6              base_kick_shard_fault: ; неуспех резания острым
  83++B4E6                shiruFX 39
  83++B4E6 5A 65       >    defw beeper.shiru_me
  83++B4E8 27          >    defb 39
  84++B4E9                CallScript action_ring_explode
  84++B4E9 11 62       >    defw zxengine.call_script_me
  84++B4EB FE B4       >    defw action_ring_explode
  85++B4ED                ShowText Kick_shard_mess
  85++B4ED 81 66       >        dw screenfx.show_info_message_me
  85++B4EF A6 A2       >        dw Kick_shard_mess
  86++B4F1                goto no_way_script
  86++B4F1 A7 61       >    defw zxengine.goto_me
  86++B4F3 F9 B4       >    defw no_way_script
  87++B4F5
  88++B4F5              ; base_explode_no_way:
  89++B4F5                ; shiruFX FX_Wall
  90++B4F5                ; CallScript action_ring_explode
  91++B4F5              ;   ShowText no_way_mess
  92++B4F5
  93++B4F5
  94++B4F5              ; already_pickup: ; предмет появился в руках героя, обрабатывать не надо
  95++B4F5                ; shiruFX FX_Pickup
  96++B4F5              need_look_no_way:
  97++B4F5                CallCode Entities.lookCharSeeCellInfo
  97++B4F5 99 61       >    defw zxengine.call_code_me
  97++B4F7 65 68       >    defw Entities.lookCharSeeCellInfo
  98++B4F9              no_way_script: ; неуспех
  99++B4F9                SetVar Vars.var_ret, 0
/Users/random/zx-engine/core/engine.asm(52): error: Label not found: zxengine.set_Vars.var_ret_me
/Users/random/zx-engine/data/rebelstar_enc.asm(99): ^ emitted from here
  99++B4F9 00 00       >    defw zxengine.set_Vars.var_ret_me
  99++B4FB 01          >    defb Vars.var_ret
  99++B4FC 00          >    defb 0
 100++B4FD              no_script:  ;  никак не нужно обрабатывать коллизию с сущностью
 101++B4FD 00             defb _endByte
 102++B4FE
 103++B4FE              ; stand_script:
 104++B4FE              ;   CallCode Entities.char_do_stand
 105++B4FE              ;   defb _endByte
 106++B4FE
 107++B4FE              action_ring_explode:
 108++B4FE                FxActionCell Ring_expl_1
 108++B4FE BC 65       >        dw screenfx.fx_action_cell_me
 108++B500 B0          >        db Ring_expl_1
 109++B501                wait_halt 3
 109++B501 AF 61       >    defw zxengine.halt_me
 109++B503 03          >    defb 3
 110++B504                FxActionCell Ring_expl_2
 110++B504 BC 65       >        dw screenfx.fx_action_cell_me
 110++B506 B1          >        db Ring_expl_2
 111++B507                wait_halt 3
 111++B507 AF 61       >    defw zxengine.halt_me
 111++B509 03          >    defb 3
 112++B50A                FxActionCell Ring_expl_3
 112++B50A BC 65       >        dw screenfx.fx_action_cell_me
 112++B50C B2          >        db Ring_expl_3
 113++B50D                wait_halt 3
 113++B50D AF 61       >    defw zxengine.halt_me
 113++B50F 03          >    defb 3
 114++B510                FxActionCell Ring_expl_4
 114++B510 BC 65       >        dw screenfx.fx_action_cell_me
 114++B512 B3          >        db Ring_expl_4
 115++B513                wait_halt 3
 115++B513 AF 61       >    defw zxengine.halt_me
 115++B515 03          >    defb 3
 116++B516                FxActionCell Ring_expl_3
 116++B516 BC 65       >        dw screenfx.fx_action_cell_me
 116++B518 B2          >        db Ring_expl_3
 117++B519                wait_halt 1
 117++B519 AF 61       >    defw zxengine.halt_me
 117++B51B 01          >    defb 1
 118++B51C                FxActionCell Ring_expl_2
 118++B51C BC 65       >        dw screenfx.fx_action_cell_me
 118++B51E B1          >        db Ring_expl_2
 119++B51F                wait_halt 1
 119++B51F AF 61       >    defw zxengine.halt_me
 119++B521 01          >    defb 1
 120++B522                FxActionCell Ring_expl_1
 120++B522 BC 65       >        dw screenfx.fx_action_cell_me
 120++B524 B0          >        db Ring_expl_1
 121++B525                wait_halt 1
 121++B525 AF 61       >    defw zxengine.halt_me
 121++B527 01          >    defb 1
 122++B528 00             defb _endByte
 123++B529
# file closed: /Users/random/zx-engine/data/rebelstar_enc.asm
  28++B529                include "data/cells/empty.asm"
# file opened: /Users/random/zx-engine/data/cells/empty.asm
   1++B529
   2++B529              Empty.spr: equ #00
   3++B529
   4++B529                MODULE Empty
   5++B529
   6++B529                  SETUP_CELL_TYPE_N Empty_cell_name, no_way_script
   6++B529             >._temp equ $; запоминаем адрес
   6++B529             >    ORG CELL_TYPES+spr*CellType
   6++AE3C 09 9C F9 B4 >    CellType Empty_cell_name, no_way_script
   6++AE40 00          >
   6++AE41             >    ORG ._temp
   7++B529
   8++B529                ENDMODULE
   9++B529
# file closed: /Users/random/zx-engine/data/cells/empty.asm
  29++B529                ; include "data/cells/items/shard.asm"
  30++B529                ; include "data/cells/items/chair.asm"
  31++B529                ; include "data/cells/items/nippers.asm"
  32++B529                include "data/cells/grass.asm"
# file opened: /Users/random/zx-engine/data/cells/grass.asm
   1++B529
   2++B529              ; --- трава
   3++B529
   4++B529              Grass.spr: equ #11
   5++B529                MODULE Grass
   6++B529                  SETUP_CELL_TYPE_N Grass_cell_name, Floor.script
   6++B529             >._temp equ $; запоминаем адрес
   6++B529             >    ORG CELL_TYPES+spr*CellType
   6++AE91 E3 9D 73 B5 >    CellType Grass_cell_name, Floor.script
   6++AE95 00          >
   6++AE96             >    ORG ._temp
   7++B529                ENDMODULE
   8++B529
   9++B529              Grass2.spr: equ #20
  10++B529                MODULE Grass2
  11++B529                  SETUP_CELL_TYPE_N Grass_cell_name, Floor.script
  11++B529             >._temp equ $; запоминаем адрес
  11++B529             >    ORG CELL_TYPES+spr*CellType
  11++AEDC E3 9D 73 B5 >    CellType Grass_cell_name, Floor.script
  11++AEE0 00          >
  11++AEE1             >    ORG ._temp
  12++B529                ENDMODULE
  13++B529
  14++B529              Grass3.spr: equ #10
  15++B529                MODULE Grass3
  16++B529                  SETUP_CELL_TYPE_N Grass_cell_name, Floor.script
  16++B529             >._temp equ $; запоминаем адрес
  16++B529             >    ORG CELL_TYPES+spr*CellType
  16++AE8C E3 9D 73 B5 >    CellType Grass_cell_name, Floor.script
  16++AE90 00          >
  16++AE91             >    ORG ._temp
  17++B529                ENDMODULE
  18++B529
  19++B529              ; --- кустарник
  20++B529              Bush.spr: equ 49
  21++B529                MODULE Bush
  22++B529                  SETUP_CELL_TYPE_N Bush_cell_name, script
  22++B529             >._temp equ $; запоминаем адрес
  22++B529             >    ORG CELL_TYPES+spr*CellType
  22++AF31 E9 9D 29 B5 >    CellType Bush_cell_name, script
  22++AF35 00          >
  22++AF36             >    ORG ._temp
  23++B529              script:
  24++B529                IfVar Vars.var_act, do_stand, no_way_script
  24++B529 1E 62       >	  defw zxengine.if_var_me
  24++B52B 00          >	  defb Vars.var_act
  24++B52C 01          >	  defb do_stand
  24++B52D F9 B4       >	  defw no_way_script
  25++B52F                IfVar Vars.var_act, do_get, base_kick_fault
  25++B52F 1E 62       >	  defw zxengine.if_var_me
  25++B531 00          >	  defb Vars.var_act
  25++B532 02          >	  defb do_get
  25++B533 DB B4       >	  defw base_kick_fault
  26++B535                IfVar Vars.var_act, do_drop, drop_
  26++B535 1E 62       >	  defw zxengine.if_var_me
  26++B537 00          >	  defb Vars.var_act
  26++B538 03          >	  defb do_drop
  26++B539 3C B5       >	  defw drop_
  27++B53B 00             defb _endByte
  28++B53C
  29++B53C              drop_:
  30++B53C                IfVar Vars.var_item_id, Nippers.spr, cut_
  30++B53C 1E 62       >	  defw zxengine.if_var_me
  30++B53E 04          >	  defb Vars.var_item_id
  30++B53F 3C          >	  defb Nippers.spr
  30++B540 57 B5       >	  defw cut_
  31++B542                IfVar Vars.var_item_id, CanisterEmpty.spr, try_container_get_
  31++B542 1E 62       >	  defw zxengine.if_var_me
  31++B544 04          >	  defb Vars.var_item_id
  31++B545 1D          >	  defb CanisterEmpty.spr
  31++B546 4C B5       >	  defw try_container_get_
  32++B548                goto base_kick_fault
  32++B548 A7 61       >    defw zxengine.goto_me
  32++B54A DB B4       >    defw base_kick_fault
  33++B54C
  34++B54C              try_container_get_:
  35++B54C                ShowText Not_get_plant
  35++B54C 81 66       >        dw screenfx.show_info_message_me
  35++B54E 45 9D       >        dw Not_get_plant
  36++B550                shiruFX FX_Nope
  36++B550 5A 65       >    defw beeper.shiru_me
  36++B552 35          >    defb FX_Nope
  37++B553                goto no_way_script
  37++B553 A7 61       >    defw zxengine.goto_me
  37++B555 F9 B4       >    defw no_way_script
  38++B557
  39++B557              cut_:
  40++B557                shiruFX FX_Wall
  40++B557 5A 65       >    defw beeper.shiru_me
  40++B559 33          >    defb FX_Wall
  41++B55A                CallScript action_ring_explode
  41++B55A 11 62       >    defw zxengine.call_script_me
  41++B55C FE B4       >    defw action_ring_explode
  42++B55E                SetMapCell Acid.spr
  42++B55E D9 67       >    defw Entities.set_map_cell_me
  42++B560 60          >    defb Acid.spr
  43++B561                goto need_look_no_way
  43++B561 A7 61       >    defw zxengine.goto_me
  43++B563 F5 B4       >    defw need_look_no_way
  44++B565                ENDMODULE
  45++B565
  46++B565              Bush2.spr: equ 48
  47++B565                MODULE Bush2
  48++B565                  SETUP_CELL_TYPE_N Bush_cell_name, Bush.script
  48++B565             >._temp equ $; запоминаем адрес
  48++B565             >    ORG CELL_TYPES+spr*CellType
  48++AF2C E9 9D 29 B5 >    CellType Bush_cell_name, Bush.script
  48++AF30 00          >
  48++AF31             >    ORG ._temp
  49++B565                ENDMODULE
  50++B565
  51++B565              Bush3.spr: equ 64
  52++B565                MODULE Bush3
  53++B565                  SETUP_CELL_TYPE_N Bush_cell_name, Bush.script
  53++B565             >._temp equ $; запоминаем адрес
  53++B565             >    ORG CELL_TYPES+spr*CellType
  53++AF7C E9 9D 29 B5 >    CellType Bush_cell_name, Bush.script
  53++AF80 00          >
  53++AF81             >    ORG ._temp
  54++B565                ENDMODULE
  55++B565
  56++B565              ; --- гравий
  57++B565              Gravel.spr: equ 42
  58++B565                MODULE Gravel
  59++B565                  SETUP_CELL_TYPE_N Gravel_cell_name, Floor.script
  59++B565             >._temp equ $; запоминаем адрес
  59++B565             >    ORG CELL_TYPES+spr*CellType
  59++AF0E 05 9E 73 B5 >    CellType Gravel_cell_name, Floor.script
  59++AF12 00          >
  59++AF13             >    ORG ._temp
  60++B565                ENDMODULE
  61++B565
  62++B565              PlantPot.spr: equ 24
  63++B565                MODULE PlantPot
  64++B565                  SETUP_CELL_TYPE_N PlantPot_cell_name, Bush.script
  64++B565             >._temp equ $; запоминаем адрес
  64++B565             >    ORG CELL_TYPES+spr*CellType
  64++AEB4 F3 9D 29 B5 >    CellType PlantPot_cell_name, Bush.script
  64++AEB8 00          >
  64++AEB9             >    ORG ._temp
  65++B565                ENDMODULE
  66++B565
  67++B565              ; Toilet.spr: equ 102
  68++B565              ;   MODULE Toilet
  69++B565              ;     SETUP_CELL_TYPE_N Toilet_cell_name, no_way_script
  70++B565              ;   ENDMODULE
  71++B565
  72++B565              ; Sink.spr: equ 103
  73++B565              ;   MODULE Sink
  74++B565              ;     SETUP_CELL_TYPE_N Sink_cell_name, no_way_script
  75++B565              ; sink_script:
  76++B565              ;   ENDMODULE
  77++B565
  78++B565              Keramit.spr: equ 175
  79++B565                MODULE Keramit
  80++B565                  SETUP_CELL_TYPE_N Keramit_cell_name, script
  80++B565             >._temp equ $; запоминаем адрес
  80++B565             >    ORG CELL_TYPES+spr*CellType
  80++B1A7 66 9E 65 B5 >    CellType Keramit_cell_name, script
  80++B1AB 00          >
  80++B1AC             >    ORG ._temp
  81++B565
  82++B565              script:
  83++B565                IfVarN Vars.var_act, do_drop, no_way_script
  83++B565 2D 62       >	  defw zxengine.if_var_not_me
  83++B567 00          >	  defb Vars.var_act
  83++B568 03          >	  defb do_drop
  83++B569 F9 B4       >	  defw no_way_script
  84++B56B                ; shiruFX FX_Wall
  85++B56B                ShowText Keramit_nohit_mess
  85++B56B 81 66       >        dw screenfx.show_info_message_me
  85++B56D 47 A3       >        dw Keramit_nohit_mess
  86++B56F                goto no_way_script
  86++B56F A7 61       >    defw zxengine.goto_me
  86++B571 F9 B4       >    defw no_way_script
  87++B573                ENDMODULE
  88++B573
# file closed: /Users/random/zx-engine/data/cells/grass.asm
  33++B573                include "data/cells/floor.asm"
# file opened: /Users/random/zx-engine/data/cells/floor.asm
   1++B573
   2++B573              Floor.spr: equ #03
   3++B573
   4++B573                MODULE Floor
   5++B573                  SETUP_CELL_TYPE_N Floor_cell_name, script
   5++B573             >._temp equ $; запоминаем адрес
   5++B573             >    ORG CELL_TYPES+spr*CellType
   5++AE4B 0B 9C 73 B5 >    CellType Floor_cell_name, script
   5++AE4F 00          >
   5++AE50             >    ORG ._temp
   6++B573
   7++B573              script:
   8++B573                IfVar Vars.var_act, do_get, get
   8++B573 1E 62       >	  defw zxengine.if_var_me
   8++B575 00          >	  defb Vars.var_act
   8++B576 02          >	  defb do_get
   8++B577 7A B5       >	  defw get
   9++B579                ; IfVar Vars.var_act, do_stand, stand_script
  10++B579 00             defb _endByte
  11++B57A              get:
  12++B57A                ; ShowText Take_floor_mess
  13++B57A                CallCode Entities.action_fault
  13++B57A 99 61       >    defw zxengine.call_code_me
  13++B57C 20 6A       >    defw Entities.action_fault
  14++B57E                SetVar Vars.var_ret, 0
/Users/random/zx-engine/core/engine.asm(52): error: Label not found: Floor.zxengine.set_Vars.var_ret_me
/Users/random/zx-engine/data/cells/floor.asm(14): ^ emitted from here
  14++B57E 00 00       >    defw zxengine.set_Vars.var_ret_me
  14++B580 01          >    defb Vars.var_ret
  14++B581 00          >    defb 0
  15++B582 00             defb _endByte
  16++B583                ENDMODULE
  17++B583
  18++B583              FloorWhite.spr: equ #36
  19++B583                MODULE FloorWhite
  20++B583                  SETUP_CELL_TYPE_N Floor_cell_name, Floor.script
  20++B583             >._temp equ $; запоминаем адрес
  20++B583             >    ORG CELL_TYPES+spr*CellType
  20++AF4A 0B 9C 73 B5 >    CellType Floor_cell_name, Floor.script
  20++AF4E 00          >
  20++AF4F             >    ORG ._temp
  21++B583                ENDMODULE
  22++B583
  23++B583              FloorRed.spr: equ #3a
  24++B583                MODULE FloorRed
  25++B583                  SETUP_CELL_TYPE_N Floor_cell_name, Floor.script
  25++B583             >._temp equ $; запоминаем адрес
  25++B583             >    ORG CELL_TYPES+spr*CellType
  25++AF5E 0B 9C 73 B5 >    CellType Floor_cell_name, Floor.script
  25++AF62 00          >
  25++AF63             >    ORG ._temp
  26++B583                ENDMODULE
  27++B583
  28++B583              FloorCyan.spr: equ #29
  29++B583                MODULE FloorCyan
  30++B583                  SETUP_CELL_TYPE_N Floor_cell_name, Floor.script
  30++B583             >._temp equ $; запоминаем адрес
  30++B583             >    ORG CELL_TYPES+spr*CellType
  30++AF09 0B 9C 73 B5 >    CellType Floor_cell_name, Floor.script
  30++AF0D 00          >
  30++AF0E             >    ORG ._temp
  31++B583                ENDMODULE
  32++B583
# file closed: /Users/random/zx-engine/data/cells/floor.asm
  34++B583                include "data/cells/trash.asm"
# file opened: /Users/random/zx-engine/data/cells/trash.asm
   1++B583
   2++B583              Trash.spr equ #32
   3++B583
   4++B583                MODULE Trash
   5++B583                SETUP_CELL_TYPE_N Trash_cell_name,  trash_script
   5++B583             >._temp equ $; запоминаем адрес
   5++B583             >    ORG CELL_TYPES+spr*CellType
   5++AF36 5D 9C 83 B5 >    CellType Trash_cell_name, trash_script
   5++AF3A 00          >
   5++AF3B             >    ORG ._temp
   6++B583
   7++B583              trash_script:
   8++B583                IfVar Vars.var_act, do_get, take_trash_script
   8++B583 1E 62       >	  defw zxengine.if_var_me
   8++B585 00          >	  defb Vars.var_act
   8++B586 02          >	  defb do_get
   8++B587 8A B5       >	  defw take_trash_script
   9++B589 00             defb _endByte
  10++B58A
  11++B58A              take_trash_script
  12++B58A                ShowText Take_trash_mess
  12++B58A 81 66       >        dw screenfx.show_info_message_me
  12++B58C 12 A3       >        dw Take_trash_mess
  13++B58E                CallCode binary_get_shard
  13++B58E 99 61       >    defw zxengine.call_code_me
  13++B590 96 B5       >    defw binary_get_shard
  14++B592                goto no_way_script
  14++B592 A7 61       >    defw zxengine.goto_me
  14++B594 F9 B4       >    defw no_way_script
  15++B596
  16++B596              binary_get_shard:
  17++B596 3E 00          LD A, Shard.item
  18++B598 CD 2A 6C       CALL items.add_item_to_hand
  19++B59B 3E 04          LD A, FX_Pickup
  20++B59D CD 4C BD       CALL FX_SET
  21++B5A0 C9             RET
  22++B5A1
  23++B5A1                ENDMODULE
  24++B5A1
# file closed: /Users/random/zx-engine/data/cells/trash.asm
  35++B5A1                include "data/cells/breaking.asm"
# file opened: /Users/random/zx-engine/data/cells/breaking.asm
   1++B5A1
   2++B5A1              ElectonicDestroy.spr: equ 71
   3++B5A1                MODULE ElectonicDestroy
   4++B5A1                  SETUP_CELL_TYPE_N ElectonicDestroy_cell_name, no_way_script
   4++B5A1             >._temp equ $; запоминаем адрес
   4++B5A1             >    ORG CELL_TYPES+spr*CellType
   4++AF9F EA A0 F9 B4 >    CellType ElectonicDestroy_cell_name, no_way_script
   4++AFA3 00          >
   4++AFA4             >    ORG ._temp
   5++B5A1                ENDMODULE
# file closed: /Users/random/zx-engine/data/cells/breaking.asm
  36++B5A1                include "data/cells/body.asm"
# file opened: /Users/random/zx-engine/data/cells/body.asm
   1++B5A1              BodyYellow.spr: equ 10
   2++B5A1                MODULE BodyYellow
   3++B5A1                  SETUP_CELL_TYPE_N BodyInScaf_cell_name, script
   3++B5A1             >._temp equ $; запоминаем адрес
   3++B5A1             >    ORG CELL_TYPES+spr*CellType
   3++AE6E F9 9F A1 B5 >    CellType BodyInScaf_cell_name, script
   3++AE72 00          >
   3++AE73             >    ORG ._temp
   4++B5A1
   5++B5A1              script:
   6++B5A1                IfVar Vars.var_act, do_get, get_
   6++B5A1 1E 62       >	  defw zxengine.if_var_me
   6++B5A3 00          >	  defb Vars.var_act
   6++B5A4 02          >	  defb do_get
   6++B5A5 AE B5       >	  defw get_
   7++B5A7                IfVar Vars.var_act, do_drop, drop_
   7++B5A7 1E 62       >	  defw zxengine.if_var_me
   7++B5A9 00          >	  defb Vars.var_act
   7++B5AA 03          >	  defb do_drop
   7++B5AB B6 B5       >	  defw drop_
   8++B5AD 00             defb _endByte
   9++B5AE
  10++B5AE              get_:
  11++B5AE                ShowText Body_no_get
  11++B5AE 81 66       >        dw screenfx.show_info_message_me
  11++B5B0 6D 9F       >        dw Body_no_get
  12++B5B2                goto nope_script
  12++B5B2 A7 61       >    defw zxengine.goto_me
  12++B5B4 D4 B4       >    defw nope_script
  13++B5B6                ENDMODULE
  14++B5B6
  15++B5B6              drop_:
  16++B5B6                IfVar Vars.var_item_id, RedCard.spr, no_way_script
  16++B5B6 1E 62       >	  defw zxengine.if_var_me
  16++B5B8 04          >	  defb Vars.var_item_id
  16++B5B9 69          >	  defb RedCard.spr
  16++B5BA F9 B4       >	  defw no_way_script
  17++B5BC                IfVar Vars.var_item_id, CanisterEmpty.spr, try_container_get_
  17++B5BC 1E 62       >	  defw zxengine.if_var_me
  17++B5BE 04          >	  defb Vars.var_item_id
  17++B5BF 1D          >	  defb CanisterEmpty.spr
  17++B5C0 CC B5       >	  defw try_container_get_
  18++B5C2                shiruFX FX_Cutt1
  18++B5C2 5A 65       >    defw beeper.shiru_me
  18++B5C4 08          >    defb FX_Cutt1
  19++B5C5                SetMapCell Blood.spr
  19++B5C5 D9 67       >    defw Entities.set_map_cell_me
  19++B5C7 61          >    defb Blood.spr
  20++B5C8                goto need_look_no_way
  20++B5C8 A7 61       >    defw zxengine.goto_me
  20++B5CA F5 B4       >    defw need_look_no_way
  21++B5CC
  22++B5CC              try_container_get_:
  23++B5CC                ShowText Not_get_body
  23++B5CC 81 66       >        dw screenfx.show_info_message_me
  23++B5CE 7A 9D       >        dw Not_get_body
  24++B5D0                shiruFX FX_Nope
  24++B5D0 5A 65       >    defw beeper.shiru_me
  24++B5D2 35          >    defb FX_Nope
  25++B5D3                goto no_way_script
  25++B5D3 A7 61       >    defw zxengine.goto_me
  25++B5D5 F9 B4       >    defw no_way_script
  26++B5D7
  27++B5D7              BodyWhite.spr: equ 27
  28++B5D7                MODULE BodyWhite
  29++B5D7                  SETUP_CELL_TYPE_N Body_cell_name, BodyYellow.script
  29++B5D7             >._temp equ $; запоминаем адрес
  29++B5D7             >    ORG CELL_TYPES+spr*CellType
  29++AEC3 93 9F A1 B5 >    CellType Body_cell_name, BodyYellow.script
  29++AEC7 00          >
  29++AEC8             >    ORG ._temp
  30++B5D7                ENDMODULE
  31++B5D7
  32++B5D7              BodyBlue.spr: equ 28
  33++B5D7                MODULE BodyBlue
  34++B5D7                  SETUP_CELL_TYPE_N BodyTech_cell_name, BodyYellow.script
  34++B5D7             >._temp equ $; запоминаем адрес
  34++B5D7             >    ORG CELL_TYPES+spr*CellType
  34++AEC8 C1 9F A1 B5 >    CellType BodyTech_cell_name, BodyYellow.script
  34++AECC 00          >
  34++AECD             >    ORG ._temp
  35++B5D7                ENDMODULE
  36++B5D7
# file closed: /Users/random/zx-engine/data/cells/body.asm
  37++B5D7                include "data/cells/bed.asm"
# file opened: /Users/random/zx-engine/data/cells/bed.asm
   1++B5D7
   2++B5D7              Bed.spr equ 19
   3++B5D7
   4++B5D7                MODULE Bed
   5++B5D7
   6++B5D7                SETUP_CELL_TYPE_N Bed_cell_name, script
   6++B5D7             >._temp equ $; запоминаем адрес
   6++B5D7             >    ORG CELL_TYPES+spr*CellType
   6++AE9B 55 9C D7 B5 >    CellType Bed_cell_name, script
   6++AE9F 00          >
   6++AEA0             >    ORG ._temp
   7++B5D7
   8++B5D7              script:
   9++B5D7                IfVar Vars.var_act, do_get, get_
   9++B5D7 1E 62       >	  defw zxengine.if_var_me
   9++B5D9 00          >	  defb Vars.var_act
   9++B5DA 02          >	  defb do_get
   9++B5DB F1 B5       >	  defw get_
  10++B5DD                IfVar Vars.var_act, do_drop, drop_
  10++B5DD 1E 62       >	  defw zxengine.if_var_me
  10++B5DF 00          >	  defb Vars.var_act
  10++B5E0 03          >	  defb do_drop
  10++B5E1 E4 B5       >	  defw drop_
  11++B5E3                ; FxActionCell Ring_expl_1
  12++B5E3 00             defb _endByte
  13++B5E4
  14++B5E4              drop_:
  15++B5E4                IfVar Vars.var_item_id, Nippers.spr, Table.break_table
  15++B5E4 1E 62       >	  defw zxengine.if_var_me
  15++B5E6 04          >	  defb Vars.var_item_id
  15++B5E7 3C          >	  defb Nippers.spr
  15++B5E8 29 BA       >	  defw Table.break_table
  16++B5EA                IfVar Vars.var_item_id, Wrench.spr, Table.break_table
  16++B5EA 1E 62       >	  defw zxengine.if_var_me
  16++B5EC 04          >	  defb Vars.var_item_id
  16++B5ED 3D          >	  defb Wrench.spr
  16++B5EE 29 BA       >	  defw Table.break_table
  17++B5F0 00             defb _endByte
  18++B5F1
  19++B5F1              get_:
  20++B5F1                ShowText Take_bed_mess
  20++B5F1 81 66       >        dw screenfx.show_info_message_me
  20++B5F3 D9 A2       >        dw Take_bed_mess
  21++B5F5                shiruFX 10
  21++B5F5 5A 65       >    defw beeper.shiru_me
  21++B5F7 0A          >    defb 10
  22++B5F8                goto no_way_script
  22++B5F8 A7 61       >    defw zxengine.goto_me
  22++B5FA F9 B4       >    defw no_way_script
  23++B5FC
  24++B5FC                ENDMODULE
  25++B5FC
# file closed: /Users/random/zx-engine/data/cells/bed.asm
  38++B5FC                include "data/cells/pda.asm"
# file opened: /Users/random/zx-engine/data/cells/pda.asm
   1++B5FC
   2++B5FC              PdaWhite.spr: equ 104
   3++B5FC                MODULE PdaWhite
   4++B5FC                  SETUP_CELL_TYPE_N PDA_cell_name, script
   4++B5FC             >._temp equ $; запоминаем адрес
   4++B5FC             >    ORG CELL_TYPES+spr*CellType
   4++B044 98 9E FC B5 >    CellType PDA_cell_name, script
   4++B048 00          >
   4++B049             >    ORG ._temp
   5++B5FC
   6++B5FC              script:
   7++B5FC                IfVarN Vars.var_act, do_get, Floor.script
   7++B5FC 2D 62       >	  defw zxengine.if_var_not_me
   7++B5FE 00          >	  defb Vars.var_act
   7++B5FF 02          >	  defb do_get
   7++B600 73 B5       >	  defw Floor.script
   8++B602                ScanPosTable scan_table
   8++B602 BF 61       >    defw zxengine.scan_pos_table_me
   8++B604 0A B6       >    defw scan_table
   9++B606                goto no_way_script
   9++B606 A7 61       >    defw zxengine.goto_me
   9++B608 F9 B4       >    defw no_way_script
  10++B60A                ENDMODULE
  11++B60A
  12++B60A              scan_table:
  13++B60A 10 04          defb 16,4
  14++B60C 1B B6          defw show_alarm
  15++B60E 1E 12          defb 30,18
  16++B610 25 B6          defw show_private_help
  17++B612 04 0F          defb 4,15
  18++B614 2F B6          defw show_genetic
  19++B616 0A 0A          defb 10,10
  20++B618 39 B6          defw show_tesla
  21++B61A 00             defb _endByte
  22++B61B
  23++B61B              show_alarm:
  24++B61B                printScreen PAPER_BLACK or PEN_CYAN, ALARM_HELP
  24++B61B 03 67       >      dw text.print_screen_me
  24++B61D 05          >      db PAPER_BLACK or PEN_CYAN
  24++B61E 08 95       >      dw ALARM_HELP
  25++B620                CallCode binary_play_intro
  25++B620 99 61       >    defw zxengine.call_code_me
  25++B622 94 AD       >    defw binary_play_intro
  26++B624 00             defb _endByte
  27++B625
  28++B625              show_private_help:
  29++B625                printScreen PAPER_BLACK or PEN_CYAN, PRIVATE_HELP
  29++B625 03 67       >      dw text.print_screen_me
  29++B627 05          >      db PAPER_BLACK or PEN_CYAN
  29++B628 01 94       >      dw PRIVATE_HELP
  30++B62A                CallCode binary_play_intro
  30++B62A 99 61       >    defw zxengine.call_code_me
  30++B62C 94 AD       >    defw binary_play_intro
  31++B62E 00             defb _endByte
  32++B62F
  33++B62F              show_genetic:
  34++B62F                printScreen PAPER_BLACK or PEN_CYAN, GENETIC_HELP
  34++B62F 03 67       >      dw text.print_screen_me
  34++B631 05          >      db PAPER_BLACK or PEN_CYAN
  34++B632 DA 95       >      dw GENETIC_HELP
  35++B634                CallCode binary_play_intro
  35++B634 99 61       >    defw zxengine.call_code_me
  35++B636 94 AD       >    defw binary_play_intro
  36++B638 00             defb _endByte
  37++B639
  38++B639              show_tesla:
  39++B639                printScreen PAPER_BLACK or PEN_CYAN, BIOTESLA_HELP
  39++B639 03 67       >      dw text.print_screen_me
  39++B63B 05          >      db PAPER_BLACK or PEN_CYAN
  39++B63C A0 96       >      dw BIOTESLA_HELP
  40++B63E                CallCode binary_play_intro
  40++B63E 99 61       >    defw zxengine.call_code_me
  40++B640 94 AD       >    defw binary_play_intro
  41++B642 00             defb _endByte
  42++B643
  43++B643              ; PdaBlue.spr: equ 106
  44++B643              ;   MODULE PdaBlue
  45++B643              ;     SETUP_CELL_TYPE_N PDA_cell_name, Floor.script
  46++B643              ;   ENDMODULE
  47++B643
# file closed: /Users/random/zx-engine/data/cells/pda.asm
  39++B643                include "data/cells/memo.asm"
# file opened: /Users/random/zx-engine/data/cells/memo.asm
   1++B643
   2++B643              ; MemoYellow.spr: equ 89
   3++B643              ;   MODULE MemoYellow
   4++B643              ;     SETUP_CELL_TYPE_N Memo_cell_name, Floor.script
   5++B643              ;   ENDMODULE
   6++B643
   7++B643              ; MemoWhite.spr: equ 90
   8++B643              ;   MODULE MemoWhite
   9++B643              ;     SETUP_CELL_TYPE_N Memo_cell_name, Floor.script
  10++B643              ;   ENDMODULE
  11++B643
  12++B643              ; MemoRed.spr: equ 91
  13++B643              ;   MODULE MemoRed
  14++B643              ;     SETUP_CELL_TYPE_N Memo_cell_name, Floor.script
  15++B643              ;   ENDMODULE
  16++B643
  17++B643              ; MemoBlue.spr: equ 92
  18++B643              ;   MODULE MemoBlue
  19++B643              ;     SETUP_CELL_TYPE_N Memo_cell_name, Floor.script
  20++B643              ;   ENDMODULE
  21++B643
# file closed: /Users/random/zx-engine/data/cells/memo.asm
  40++B643                include "data/cells/medicine.asm"
# file opened: /Users/random/zx-engine/data/cells/medicine.asm
   1++B643
   2++B643              Anabiose.spr: equ 98
   3++B643                MODULE Anabiose
   4++B643                  SETUP_CELL_TYPE_N Anabiose_cell_name, script
   4++B643             >._temp equ $; запоминаем адрес
   4++B643             >    ORG CELL_TYPES+spr*CellType
   4++B026 48 A0 43 B6 >    CellType Anabiose_cell_name, script
   4++B02A 00          >
   4++B02B             >    ORG ._temp
   5++B643
   6++B643              script:
   7++B643                IfVarN Vars.var_act, do_get, no_way_script
   7++B643 2D 62       >	  defw zxengine.if_var_not_me
   7++B645 00          >	  defb Vars.var_act
   7++B646 02          >	  defb do_get
   7++B647 F9 B4       >	  defw no_way_script
   8++B649                ; goto no_way_script
   9++B649              open:
  10++B649                SetMapCell AnabioseOff.spr
  10++B649 D9 67       >    defw Entities.set_map_cell_me
  10++B64B 52          >    defb AnabioseOff.spr
  11++B64C                shiruFX FX_DoorOpen
  11++B64C 5A 65       >    defw beeper.shiru_me
  11++B64E 2B          >    defb FX_DoorOpen
  12++B64F                ShowText Anaboise_do_open
  12++B64F 81 66       >        dw screenfx.show_info_message_me
  12++B651 75 A0       >        dw Anaboise_do_open
  13++B653                SetMapCellOnHero Blood.spr
  13++B653 E3 67       >    defw Entities.set_map_cell_on_hero_me
  13++B655 61          >    defb Blood.spr
  14++B656                ; CallCode Entities.lookChar
  15++B656                goto no_way_script
  15++B656 A7 61       >    defw zxengine.goto_me
  15++B658 F9 B4       >    defw no_way_script
  16++B65A                ENDMODULE
  17++B65A
  18++B65A              AnabioseOff.spr: equ 82
  19++B65A                MODULE AnabioseOff
  20++B65A                  SETUP_CELL_TYPE_N AnabioseOpen_cell_name, no_way_script
  20++B65A             >._temp equ $; запоминаем адрес
  20++B65A             >    ORG CELL_TYPES+spr*CellType
  20++AFD6 5A A0 F9 B4 >    CellType AnabioseOpen_cell_name, no_way_script
  20++AFDA 00          >
  20++AFDB             >    ORG ._temp
  21++B65A                ENDMODULE
  22++B65A
  23++B65A              Mentoscanner.spr: equ 59
  24++B65A                MODULE Mentoscanner
  25++B65A                  SETUP_CELL_TYPE_N Mentoscanner_cell_name, no_way_script
  25++B65A             >._temp equ $; запоминаем адрес
  25++B65A             >    ORG CELL_TYPES+spr*CellType
  25++AF63 DD A0 F9 B4 >    CellType Mentoscanner_cell_name, no_way_script
  25++AF67 00          >
  25++AF68             >    ORG ._temp
  26++B65A
  27++B65A              ; Mentoscanner_break_script
  28++B65A                ; shiruFX FX_Boom
  29++B65A                ; CallScript action_ring_explode
  30++B65A                ; ShowText Mentoscanner_kick_mess
  31++B65A                ; SetMapCell ElectonicDestroy.spr
  32++B65A                ; goto no_way_script
  33++B65A              ; Mentoscanner_kick_mess
  34++B65A                ENDMODULE
  35++B65A
  36++B65A              MentoscannerOn.spr: equ 56
  37++B65A                MODULE MentoscannerOn
  38++B65A                  SETUP_CELL_TYPE_N Mentoscanner_cell_name, no_way_script
  38++B65A             >._temp equ $; запоминаем адрес
  38++B65A             >    ORG CELL_TYPES+spr*CellType
  38++AF54 DD A0 F9 B4 >    CellType Mentoscanner_cell_name, no_way_script
  38++AF58 00          >
  38++AF59             >    ORG ._temp
  39++B65A                ENDMODULE
  40++B65A
  41++B65A              ; Medicbox.spr: equ 53
  42++B65A              ;   MODULE Medicbox
  43++B65A              ;     SETUP_CELL_TYPE_N Medicbox_cell_name, no_way_script
  44++B65A              ;   ENDMODULE
  45++B65A
# file closed: /Users/random/zx-engine/data/cells/medicine.asm
  41++B65A                include "data/cells/book.asm"
# file opened: /Users/random/zx-engine/data/cells/book.asm
   1++B65A
   2++B65A              BookOpen.spr: equ 86
   3++B65A                MODULE BookOpen
   4++B65A                  SETUP_CELL_TYPE_N Book_cell_name, Floor.script
   4++B65A             >._temp equ $; запоминаем адрес
   4++B65A             >    ORG CELL_TYPES+spr*CellType
   4++AFEA AC 9E 73 B5 >    CellType Book_cell_name, Floor.script
   4++AFEE 00          >
   4++AFEF             >    ORG ._temp
   5++B65A                ENDMODULE
   6++B65A
   7++B65A              BookClosed.spr: equ 88
   8++B65A                MODULE BookClosed
   9++B65A                  SETUP_CELL_TYPE_N Book_cell_name, Floor.script
   9++B65A             >._temp equ $; запоминаем адрес
   9++B65A             >    ORG CELL_TYPES+spr*CellType
   9++AFF4 AC 9E 73 B5 >    CellType Book_cell_name, Floor.script
   9++AFF8 00          >
   9++AFF9             >    ORG ._temp
  10++B65A                ENDMODULE
  11++B65A
# file closed: /Users/random/zx-engine/data/cells/book.asm
  42++B65A                ; include "data/cells/generator.asm"
  43++B65A                include "data/cells/computer/computer_break.asm"
# file opened: /Users/random/zx-engine/data/cells/computer/computer_break.asm
   1++B65A
   2++B65A              ComputerBreak.spr equ #24
   3++B65A
   4++B65A                MODULE ComputerBreak
   5++B65A
   6++B65A                  SETUP_CELL_TYPE_N Computer_break_cell_name, computer_break_script
   6++B65A             >._temp equ $; запоминаем адрес
   6++B65A             >    ORG CELL_TYPES+spr*CellType
   6++AEF0 1B 9C 5A B6 >    CellType Computer_break_cell_name, computer_break_script
   6++AEF4 00          >
   6++AEF5             >    ORG ._temp
   7++B65A
   8++B65A              computer_break_script:
   9++B65A                IfVar Vars.var_act, do_get, use_script
   9++B65A 1E 62       >	  defw zxengine.if_var_me
   9++B65C 00          >	  defb Vars.var_act
   9++B65D 02          >	  defb do_get
   9++B65E 6A B6       >	  defw use_script
  10++B660                IfVar Vars.var_act, do_drop, use_script
  10++B660 1E 62       >	  defw zxengine.if_var_me
  10++B662 00          >	  defb Vars.var_act
  10++B663 03          >	  defb do_drop
  10++B664 6A B6       >	  defw use_script
  11++B666                goto no_way_script
  11++B666 A7 61       >    defw zxengine.goto_me
  11++B668 F9 B4       >    defw no_way_script
  12++B66A              use_script:
  13++B66A                shiruFX 56
  13++B66A 5A 65       >    defw beeper.shiru_me
  13++B66C 38          >    defb 56
  14++B66D                CallScript action_ring_explode
  14++B66D 11 62       >    defw zxengine.call_script_me
  14++B66F FE B4       >    defw action_ring_explode
  15++B671                SetMapCell Trash.spr
  15++B671 D9 67       >    defw Entities.set_map_cell_me
  15++B673 32          >    defb Trash.spr
  16++B674                ; CallCode binary_add_shard
  17++B674                ShowText Computer_add_shard_mess
  17++B674 81 66       >        dw screenfx.show_info_message_me
  17++B676 0E A4       >        dw Computer_add_shard_mess
  18++B678                goto no_way_script
  18++B678 A7 61       >    defw zxengine.goto_me
  18++B67A F9 B4       >    defw no_way_script
  19++B67C
  20++B67C              ; binary_add_shard:
  21++B67C                ; LD DE, (Vars.MapCell_xy); читаем где у нас подзорвалось
  22++B67C                ; INC E ; Y+1 ( размещаем shard внизу взорвавшегося предмета )
  23++B67C                ; LD A, Shard.item
  24++B67C                ; CALL items.add_item_to_map
  25++B67C                ; RET
  26++B67C
  27++B67C                ENDMODULE
  28++B67C
# file closed: /Users/random/zx-engine/data/cells/computer/computer_break.asm
  44++B67C                include "data/cells/computer/computer_off.asm"
# file opened: /Users/random/zx-engine/data/cells/computer/computer_off.asm
   1++B67C
   2++B67C              ComputerOff.spr equ #14
   3++B67C
   4++B67C                MODULE ComputerOff
   5++B67C
   6++B67C                  SETUP_CELL_TYPE_N Computer_cell_name, script
   6++B67C             >._temp equ $; запоминаем адрес
   6++B67C             >    ORG CELL_TYPES+spr*CellType
   6++AEA0 12 9C 7C B6 >    CellType Computer_cell_name, script
   6++AEA4 00          >
   6++AEA5             >    ORG ._temp
   7++B67C
   8++B67C              script:
   9++B67C                IfVar Vars.var_act, do_drop, drop_
   9++B67C 1E 62       >	  defw zxengine.if_var_me
   9++B67E 00          >	  defb Vars.var_act
   9++B67F 03          >	  defb do_drop
   9++B680 8C B6       >	  defw drop_
  10++B682                IfVar Vars.var_act, do_get, get_
  10++B682 1E 62       >	  defw zxengine.if_var_me
  10++B684 00          >	  defb Vars.var_act
  10++B685 02          >	  defb do_get
  10++B686 96 B6       >	  defw get_
  11++B688                goto no_way_script
  11++B688 A7 61       >    defw zxengine.goto_me
  11++B68A F9 B4       >    defw no_way_script
  12++B68C
  13++B68C              drop_:
  14++B68C                IfVar Vars.var_item_id, Chair.spr, computer_glass_destroy
  14++B68C 1E 62       >	  defw zxengine.if_var_me
  14++B68E 04          >	  defb Vars.var_item_id
  14++B68F 33          >	  defb Chair.spr
  14++B690 A1 B6       >	  defw computer_glass_destroy
  15++B692                goto computer_screen_destroy
  15++B692 A7 61       >    defw zxengine.goto_me
  15++B694 B7 B6       >    defw computer_screen_destroy
  16++B696                ; IfVar Vars.var_item_id, CanisterEmpty.spr, computer_glass_destroy
  17++B696                ; IfVar Vars.var_item_id, Nippers.spr, computer_screen_destroy
  18++B696                ; IfVar Vars.var_item_id, Canister.spr, computer_screen_destroy
  19++B696                ; IfVar Vars.var_item_id, Wrench.spr, computer_screen_destroy
  20++B696              get_:
  21++B696                shiruFX FX_Poweroff
  21++B696 5A 65       >    defw beeper.shiru_me
  21++B698 24          >    defb FX_Poweroff
  22++B699                ShowText Computer_off_hit_mess
  22++B699 81 66       >        dw screenfx.show_info_message_me
  22++B69B AC A4       >        dw Computer_off_hit_mess
  23++B69D                goto no_way_script
  23++B69D A7 61       >    defw zxengine.goto_me
  23++B69F F9 B4       >    defw no_way_script
  24++B6A1
  25++B6A1              computer_glass_destroy:
  26++B6A1                shiruFX 56
  26++B6A1 5A 65       >    defw beeper.shiru_me
  26++B6A3 38          >    defb 56
  27++B6A4                CallScript action_ring_explode
  27++B6A4 11 62       >    defw zxengine.call_script_me
  27++B6A6 FE B4       >    defw action_ring_explode
  28++B6A8                SetMapCell ComputerBreak.spr
  28++B6A8 D9 67       >    defw Entities.set_map_cell_me
  28++B6AA 24          >    defb ComputerBreak.spr
  29++B6AB                ShowText Computer_break_chair_mess
  29++B6AB 81 66       >        dw screenfx.show_info_message_me
  29++B6AD C8 A3       >        dw Computer_break_chair_mess
  30++B6AF                CallCode items.del_item_from_hand
  30++B6AF 99 61       >    defw zxengine.call_code_me
  30++B6B1 11 6C       >    defw items.del_item_from_hand
  31++B6B3                goto no_way_script
  31++B6B3 A7 61       >    defw zxengine.goto_me
  31++B6B5 F9 B4       >    defw no_way_script
  32++B6B7
  33++B6B7              computer_screen_destroy:
  34++B6B7                shiruFX 56
  34++B6B7 5A 65       >    defw beeper.shiru_me
  34++B6B9 38          >    defb 56
  35++B6BA                CallScript action_ring_explode
  35++B6BA 11 62       >    defw zxengine.call_script_me
  35++B6BC FE B4       >    defw action_ring_explode
  36++B6BE                SetMapCell ComputerBreak.spr
  36++B6BE D9 67       >    defw Entities.set_map_cell_me
  36++B6C0 24          >    defb ComputerBreak.spr
  37++B6C1                ShowText Computer_break_mess
  37++B6C1 81 66       >        dw screenfx.show_info_message_me
  37++B6C3 F3 A3       >        dw Computer_break_mess
  38++B6C5                ; CallCode items.del_item_from_hand
  39++B6C5                goto no_way_script
  39++B6C5 A7 61       >    defw zxengine.goto_me
  39++B6C7 F9 B4       >    defw no_way_script
  40++B6C9
  41++B6C9                ENDMODULE
  42++B6C9
# file closed: /Users/random/zx-engine/data/cells/computer/computer_off.asm
  45++B6C9                include "data/cells/computer/computer.asm"
# file opened: /Users/random/zx-engine/data/cells/computer/computer.asm
   1++B6C9
   2++B6C9              Computer.spr equ #04
   3++B6C9
   4++B6C9                MODULE Computer
   5++B6C9
   6++B6C9                  SETUP_CELL_TYPE_N Computer_cell_name, script
   6++B6C9             >._temp equ $; запоминаем адрес
   6++B6C9             >    ORG CELL_TYPES+spr*CellType
   6++AE50 12 9C C9 B6 >    CellType Computer_cell_name, script
   6++AE54 00          >
   6++AE55             >    ORG ._temp
   7++B6C9
   8++B6C9              script:
   9++B6C9                IfVar Vars.var_act, do_get, use_get
   9++B6C9 1E 62       >	  defw zxengine.if_var_me
   9++B6CB 00          >	  defb Vars.var_act
   9++B6CC 02          >	  defb do_get
   9++B6CD D9 B6       >	  defw use_get
  10++B6CF                IfVar Vars.var_act, do_drop, use_drop
  10++B6CF 1E 62       >	  defw zxengine.if_var_me
  10++B6D1 00          >	  defb Vars.var_act
  10++B6D2 03          >	  defb do_drop
  10++B6D3 F5 B6       >	  defw use_drop
  11++B6D5                goto no_way_script
  11++B6D5 A7 61       >    defw zxengine.goto_me
  11++B6D7 F9 B4       >    defw no_way_script
  12++B6D9
  13++B6D9              use_get:
  14++B6D9
  15++B6D9                SetVar Vars.var_ret, 0
/Users/random/zx-engine/core/engine.asm(52): error: Label not found: Computer.zxengine.set_Vars.var_ret_me
/Users/random/zx-engine/data/cells/computer/computer.asm(15): ^ emitted from here
  15++B6D9 00 00       >    defw zxengine.set_Vars.var_ret_me
  15++B6DB 01          >    defb Vars.var_ret
  15++B6DC 00          >    defb 0
  16++B6DD                ScanPosTable computer_scan_table
  16++B6DD BF 61       >    defw zxengine.scan_pos_table_me
  16++B6DF 13 B7       >    defw computer_scan_table
  17++B6E1                IfVar Vars.var_ret, 1, no_way_script
  17++B6E1 1E 62       >	  defw zxengine.if_var_me
  17++B6E3 01          >	  defb Vars.var_ret
  17++B6E4 01          >	  defb 1
  17++B6E5 F9 B4       >	  defw no_way_script
  18++B6E7
  19++B6E7                shiruFX 55
  19++B6E7 5A 65       >    defw beeper.shiru_me
  19++B6E9 37          >    defb 55
  20++B6EA                SetMapCell ComputerOff.spr
  20++B6EA D9 67       >    defw Entities.set_map_cell_me
  20++B6EC 14          >    defb ComputerOff.spr
  21++B6ED                ShowText Computer_off_mess
  21++B6ED 81 66       >        dw screenfx.show_info_message_me
  21++B6EF 69 A4       >        dw Computer_off_mess
  22++B6F1                goto no_way_script
  22++B6F1 A7 61       >    defw zxengine.goto_me
  22++B6F3 F9 B4       >    defw no_way_script
  23++B6F5
  24++B6F5              use_drop:
  25++B6F5                IfVar Vars.var_item_id, Chair.spr, computer_glass_destroy_kill
  25++B6F5 1E 62       >	  defw zxengine.if_var_me
  25++B6F7 04          >	  defb Vars.var_item_id
  25++B6F8 33          >	  defb Chair.spr
  25++B6F9 01 B7       >	  defw computer_glass_destroy_kill
  26++B6FB                IfVar Vars.var_item_id, RedCard.spr, no_way_script
  26++B6FB 1E 62       >	  defw zxengine.if_var_me
  26++B6FD 04          >	  defb Vars.var_item_id
  26++B6FE 69          >	  defb RedCard.spr
  26++B6FF F9 B4       >	  defw no_way_script
  27++B701
  28++B701              computer_glass_destroy_kill:
  29++B701                shiruFX 19
  29++B701 5A 65       >    defw beeper.shiru_me
  29++B703 13          >    defb 19
  30++B704                CallScript action_ring_explode
  30++B704 11 62       >    defw zxengine.call_script_me
  30++B706 FE B4       >    defw action_ring_explode
  31++B708                SetMapCell ComputerBreak.spr
  31++B708 D9 67       >    defw Entities.set_map_cell_me
  31++B70A 24          >    defb ComputerBreak.spr
  32++B70B                SetVar Vars.game_over, 1
/Users/random/zx-engine/core/engine.asm(52): error: Label not found: Computer.zxengine.set_Vars.game_over_me
/Users/random/zx-engine/data/cells/computer/computer.asm(32): ^ emitted from here
  32++B70B 00 00       >    defw zxengine.set_Vars.game_over_me
  32++B70D 05          >    defb Vars.game_over
  32++B70E 01          >    defb 1
  33++B70F                goto no_way_script
  33++B70F A7 61       >    defw zxengine.goto_me
  33++B711 F9 B4       >    defw no_way_script
  34++B713
  35++B713              computer_scan_table:
  36++B713 17 13          defb 23,19
  37++B715 4A B7          defw flip_flop_tambur
  38++B717 17 16          defb 23,22
  39++B719 4A B7          defw flip_flop_tambur
  40++B71B 17 03          defb 23,3
  41++B71D 30 B7          defw check_alert_code_found
  42++B71F 14 18          defb 20,24
  43++B721 24 B7          defw show_Energy_monitor_show
  44++B723 00             defb _endByte
  45++B724
  46++B724              show_Energy_monitor_show
  47++B724                shiruFX 55
  47++B724 5A 65       >    defw beeper.shiru_me
  47++B726 37          >    defb 55
  48++B727                ShowText Energy_monitor_show
  48++B727 81 66       >        dw screenfx.show_info_message_me
  48++B729 9E 9A       >        dw Energy_monitor_show
  49++B72B                SetVar Vars.var_ret, 1
/Users/random/zx-engine/core/engine.asm(52): error: Label not found: Computer.zxengine.set_Vars.var_ret_me
/Users/random/zx-engine/data/cells/computer/computer.asm(49): ^ emitted from here
  49++B72B 00 00       >    defw zxengine.set_Vars.var_ret_me
  49++B72D 01          >    defb Vars.var_ret
  49++B72E 01          >    defb 1
  50++B72F 00             defb _endByte
  51++B730
  52++B730              check_alert_code_found:
  53++B730                IfVar Vars.alert_code_found, 0, show_CALL_HELP_NO_CODE
  53++B730 1E 62       >	  defw zxengine.if_var_me
  53++B732 0A          >	  defb Vars.alert_code_found
  53++B733 00          >	  defb 0
  53++B734 3E B7       >	  defw show_CALL_HELP_NO_CODE
  54++B736                SetVar Vars.game_over, 3
/Users/random/zx-engine/core/engine.asm(52): error: Label not found: Computer.zxengine.set_Vars.game_over_me
/Users/random/zx-engine/data/cells/computer/computer.asm(54): ^ emitted from here
  54++B736 00 00       >    defw zxengine.set_Vars.game_over_me
  54++B738 05          >    defb Vars.game_over
  54++B739 03          >    defb 3
  55++B73A                goto no_way_script
  55++B73A A7 61       >    defw zxengine.goto_me
  55++B73C F9 B4       >    defw no_way_script
  56++B73E
  57++B73E              show_CALL_HELP_NO_CODE:
  58++B73E                shiruFX 55
  58++B73E 5A 65       >    defw beeper.shiru_me
  58++B740 37          >    defb 55
  59++B741                ShowText CALL_HELP_NO_CODE
  59++B741 81 66       >        dw screenfx.show_info_message_me
  59++B743 D6 9A       >        dw CALL_HELP_NO_CODE
  60++B745                SetVar Vars.var_ret, 1
/Users/random/zx-engine/core/engine.asm(52): error: Label not found: Computer.zxengine.set_Vars.var_ret_me
/Users/random/zx-engine/data/cells/computer/computer.asm(60): ^ emitted from here
  60++B745 00 00       >    defw zxengine.set_Vars.var_ret_me
  60++B747 01          >    defb Vars.var_ret
  60++B748 01          >    defb 1
  61++B749 00             defb _endByte
  62++B74A
  63++B74A              flip_flop_tambur:
  64++B74A                shiruFX 55
  64++B74A 5A 65       >    defw beeper.shiru_me
  64++B74C 37          >    defb 55
  65++B74D                CallCode binary_flip_flop_tambur
  65++B74D 99 61       >    defw zxengine.call_code_me
  65++B74F 56 B7       >    defw binary_flip_flop_tambur
  66++B751                SetVar Vars.var_ret, 1
/Users/random/zx-engine/core/engine.asm(52): error: Label not found: Computer.zxengine.set_Vars.var_ret_me
/Users/random/zx-engine/data/cells/computer/computer.asm(66): ^ emitted from here
  66++B751 00 00       >    defw zxengine.set_Vars.var_ret_me
  66++B753 01          >    defb Vars.var_ret
  66++B754 01          >    defb 1
  67++B755 00             defb _endByte
  68++B756
  69++B756              binary_flip_flop_tambur:
  70++B756 21 67 D6       LD HL, MAP_SET+18*mapSize+20 ; x=20, y=18
  71++B759 7E             LD A, (HL) ; смотрим закрыт ли внутренний люк
  72++B75A FE 64          CP DoorRedHard.spr
  73++B75C CA 6F B7       JP Z, binary_close_tambur ; если закрыт то открываем его
  74++B75F
  75++B75F              binary_open_tambur:
  76++B75F
  77++B75F                ; LD HL, MAP_SET+18*mapSize+20 ; x=20, y=18
  78++B75F 3E 64          LD A, DoorRedHard.spr
  79++B761 77             LD (HL),A
  80++B762
  81++B762 21 C9 D6       LD HL, MAP_SET+21*mapSize+22 ; x=22, y=21
  82++B765 3E 63          LD A, DoorRedHardOpen.spr
  83++B767 77             LD (HL),A
  84++B768 21 BE 9A       LD HL, Tambur_open
  85++B76B CD 8F 66       CALL screenfx.show_info_message
  86++B76E C9             RET
  87++B76F
  88++B76F              binary_close_tambur:
  89++B76F                ; LD HL, MAP_SET+18*mapSize+20 ; x=20, y=18
  90++B76F 3E 63          LD A, DoorRedHardOpen.spr
  91++B771 77             LD (HL),A
  92++B772
  93++B772 21 C9 D6       LD HL, MAP_SET+21*mapSize+22 ; x=22, y=21
  94++B775 3E 64          LD A, DoorRedHard.spr
  95++B777 77             LD (HL),A
  96++B778 21 CA 9A       LD HL, Tambur_close
  97++B77B CD 8F 66       CALL screenfx.show_info_message
  98++B77E
  99++B77E C9             RET
 100++B77F
 101++B77F                ENDMODULE
 102++B77F
# file closed: /Users/random/zx-engine/data/cells/computer/computer.asm
  46++B77F                include "data/cells/door.asm"
# file opened: /Users/random/zx-engine/data/cells/door.asm
   1++B77F
   2++B77F              Door.spr equ #02
   3++B77F              Door_half_open equ #12
   4++B77F
   5++B77F                MODULE Door
   6++B77F
   7++B77F                  SETUP_CELL_TYPE_N Door_cell_name, door_script
   7++B77F             >._temp equ $; запоминаем адрес
   7++B77F             >    ORG CELL_TYPES+spr*CellType
   7++AE46 2D 9C 7F B7 >    CellType Door_cell_name, door_script
   7++AE4A 00          >
   7++AE4B             >    ORG ._temp
   8++B77F
   9++B77F              door_script:
  10++B77F                IfVar Vars.var_act, do_stand, not_open_
  10++B77F 1E 62       >	  defw zxengine.if_var_me
  10++B781 00          >	  defb Vars.var_act
  10++B782 01          >	  defb do_stand
  10++B783 9C B7       >	  defw not_open_
  11++B785                IfVar Vars.var_act, do_get, not_open_
  11++B785 1E 62       >	  defw zxengine.if_var_me
  11++B787 00          >	  defb Vars.var_act
  11++B788 02          >	  defb do_get
  11++B789 9C B7       >	  defw not_open_
  12++B78B                IfVar Vars.var_act, do_drop, drop_
  12++B78B 1E 62       >	  defw zxengine.if_var_me
  12++B78D 00          >	  defb Vars.var_act
  12++B78E 03          >	  defb do_drop
  12++B78F 92 B7       >	  defw drop_
  13++B791 00             defb _endByte
  14++B792
  15++B792              drop_:
  16++B792                IfVar Vars.var_item_id, Shard.spr, base_kick_shard_fault
  16++B792 1E 62       >	  defw zxengine.if_var_me
  16++B794 04          >	  defb Vars.var_item_id
  16++B795 34          >	  defb Shard.spr
  16++B796 E6 B4       >	  defw base_kick_shard_fault
  17++B798                ; IfVar Vars.var_item_id, Chair.spr, base_kick_fault
  18++B798                ; IfVar Vars.var_item_id, Nippers.spr, base_kick_fault
  19++B798                goto base_kick_fault
  19++B798 A7 61       >    defw zxengine.goto_me
  19++B79A DB B4       >    defw base_kick_fault
  20++B79C
  21++B79C              not_open_:
  22++B79C                ShowText Door_not_open_mess
  22++B79C 81 66       >        dw screenfx.show_info_message_me
  22++B79E C2 A2       >        dw Door_not_open_mess
  23++B7A0                shiruFX FX_Nope
  23++B7A0 5A 65       >    defw beeper.shiru_me
  23++B7A2 35          >    defb FX_Nope
  24++B7A3                goto no_way_script
  24++B7A3 A7 61       >    defw zxengine.goto_me
  24++B7A5 F9 B4       >    defw no_way_script
  25++B7A7
  26++B7A7              open_:
  27++B7A7                shiruFX 43
  27++B7A7 5A 65       >    defw beeper.shiru_me
  27++B7A9 2B          >    defb 43
  28++B7AA                SetMapCell DoorOpen.spr
  28++B7AA D9 67       >    defw Entities.set_map_cell_me
  28++B7AC 22          >    defb DoorOpen.spr
  29++B7AD                goto need_look_no_way
  29++B7AD A7 61       >    defw zxengine.goto_me
  29++B7AF F5 B4       >    defw need_look_no_way
  30++B7B1
  31++B7B1              ; door_kick_chair:
  32++B7B1              ;   shiruFX FX_Wall
  33++B7B1              ;   CallScript action_ring_explode
  34++B7B1              ;   ShowText Kick_fault_mess
  35++B7B1              ;   goto no_way_script
  36++B7B1
  37++B7B1              ; door_kick_shard:
  38++B7B1              ;   shiruFX 39
  39++B7B1              ;   CallScript action_ring_explode
  40++B7B1              ;   ShowText Kick_shard_mess
  41++B7B1              ;   goto no_way_script
  42++B7B1
  43++B7B1                ENDMODULE
  44++B7B1
  45++B7B1              DoorOpen.spr: equ #22
  46++B7B1                MODULE DoorOpen
  47++B7B1                  SETUP_CELL_TYPE_N Door_cell_name, DoorOpen_script
  47++B7B1             >._temp equ $; запоминаем адрес
  47++B7B1             >    ORG CELL_TYPES+spr*CellType
  47++AEE6 2D 9C B1 B7 >    CellType Door_cell_name, DoorOpen_script
  47++AEEA 00          >
  47++AEEB             >    ORG ._temp
  48++B7B1              DoorOpen_script:
  49++B7B1 00             defb _endByte
  50++B7B2                ENDMODULE
  51++B7B2
  52++B7B2              DoorGreen.spr: equ #6b
  53++B7B2                MODULE DoorGreen
  54++B7B2                  SETUP_CELL_TYPE_N Door_cell_name, script
  54++B7B2             >._temp equ $; запоминаем адрес
  54++B7B2             >    ORG CELL_TYPES+spr*CellType
  54++B053 2D 9C B2 B7 >    CellType Door_cell_name, script
  54++B057 00          >
  54++B058             >    ORG ._temp
  55++B7B2
  56++B7B2              script:
  57++B7B2                IfVar Vars.var_act, do_stand, not_open_
  57++B7B2 1E 62       >	  defw zxengine.if_var_me
  57++B7B4 00          >	  defb Vars.var_act
  57++B7B5 01          >	  defb do_stand
  57++B7B6 C8 B7       >	  defw not_open_
  58++B7B8                IfVar Vars.var_act, do_get, not_open_
  58++B7B8 1E 62       >	  defw zxengine.if_var_me
  58++B7BA 00          >	  defb Vars.var_act
  58++B7BB 02          >	  defb do_get
  58++B7BC C8 B7       >	  defw not_open_
  59++B7BE                IfVar Vars.var_act, do_drop, drop_
  59++B7BE 1E 62       >	  defw zxengine.if_var_me
  59++B7C0 00          >	  defb Vars.var_act
  59++B7C1 03          >	  defb do_drop
  59++B7C2 D9 B7       >	  defw drop_
  60++B7C4                goto no_way_script
  60++B7C4 A7 61       >    defw zxengine.goto_me
  60++B7C6 F9 B4       >    defw no_way_script
  61++B7C8
  62++B7C8              not_open_:
  63++B7C8                IfVar Vars.power_on,Vars.MAX_BIOCONTAINERS_FOR_POWER_ON, force_open_
  63++B7C8 1E 62       >	  defw zxengine.if_var_me
  63++B7CA 09          >	  defb Vars.power_on
  63++B7CB 06          >	  defb Vars.MAX_BIOCONTAINERS_FOR_POWER_ON
  63++B7CC E3 B7       >	  defw force_open_
  64++B7CE                ; shiruFX 43
  65++B7CE                ; SetMapCell DoorGreenOpen.spr
  66++B7CE                ShowText Door_not_open_mess
  66++B7CE 81 66       >        dw screenfx.show_info_message_me
  66++B7D0 C2 A2       >        dw Door_not_open_mess
  67++B7D2                shiruFX FX_Nope
  67++B7D2 5A 65       >    defw beeper.shiru_me
  67++B7D4 35          >    defb FX_Nope
  68++B7D5                goto no_way_script
  68++B7D5 A7 61       >    defw zxengine.goto_me
  68++B7D7 F9 B4       >    defw no_way_script
  69++B7D9
  70++B7D9              drop_:
  71++B7D9                IfVar Vars.var_item_id, Wrench.spr, force_open_
  71++B7D9 1E 62       >	  defw zxengine.if_var_me
  71++B7DB 04          >	  defb Vars.var_item_id
  71++B7DC 3D          >	  defb Wrench.spr
  71++B7DD E3 B7       >	  defw force_open_
  72++B7DF                goto Door.drop_ ; наследование!!! лол ^)
  72++B7DF A7 61       >    defw zxengine.goto_me
  72++B7E1 92 B7       >    defw Door.drop_
  73++B7E3
  74++B7E3              force_open_:
  75++B7E3                shiruFX 43
  75++B7E3 5A 65       >    defw beeper.shiru_me
  75++B7E5 2B          >    defb 43
  76++B7E6                SetMapCell DoorGreenOpen.spr
  76++B7E6 D9 67       >    defw Entities.set_map_cell_me
  76++B7E8 6C          >    defb DoorGreenOpen.spr
  77++B7E9                goto need_look_no_way
  77++B7E9 A7 61       >    defw zxengine.goto_me
  77++B7EB F5 B4       >    defw need_look_no_way
  78++B7ED                ENDMODULE
  79++B7ED
  80++B7ED              DoorGreenOpen.spr: equ #6c
  81++B7ED                MODULE DoorGreenOpen
  82++B7ED                  SETUP_CELL_TYPE_N Door_cell_name, script
  82++B7ED             >._temp equ $; запоминаем адрес
  82++B7ED             >    ORG CELL_TYPES+spr*CellType
  82++B058 2D 9C ED B7 >    CellType Door_cell_name, script
  82++B05C 00          >
  82++B05D             >    ORG ._temp
  83++B7ED
  84++B7ED              script:
  85++B7ED                IfVar Vars.var_act, do_get, try_close_
  85++B7ED 1E 62       >	  defw zxengine.if_var_me
  85++B7EF 00          >	  defb Vars.var_act
  85++B7F0 02          >	  defb do_get
  85++B7F1 01 B8       >	  defw try_close_
  86++B7F3                IfVar Vars.var_act, do_drop, try_drop_
  86++B7F3 1E 62       >	  defw zxengine.if_var_me
  86++B7F5 00          >	  defb Vars.var_act
  86++B7F6 03          >	  defb do_drop
  86++B7F7 FA B7       >	  defw try_drop_
  87++B7F9 00             defb _endByte
  88++B7FA
  89++B7FA              try_drop_:
  90++B7FA                IfVar Vars.var_item_id, Wrench.spr, force_close_
  90++B7FA 1E 62       >	  defw zxengine.if_var_me
  90++B7FC 04          >	  defb Vars.var_item_id
  90++B7FD 3D          >	  defb Wrench.spr
  90++B7FE 0E B8       >	  defw force_close_
  91++B800 00             defb _endByte
  92++B801
  93++B801              try_close_:
  94++B801                IfVar Vars.power_on,Vars.MAX_BIOCONTAINERS_FOR_POWER_ON, force_close_
  94++B801 1E 62       >	  defw zxengine.if_var_me
  94++B803 09          >	  defb Vars.power_on
  94++B804 06          >	  defb Vars.MAX_BIOCONTAINERS_FOR_POWER_ON
  94++B805 0E B8       >	  defw force_close_
  95++B807                shiruFX FX_Nope
  95++B807 5A 65       >    defw beeper.shiru_me
  95++B809 35          >    defb FX_Nope
  96++B80A                goto no_way_script
  96++B80A A7 61       >    defw zxengine.goto_me
  96++B80C F9 B4       >    defw no_way_script
  97++B80E
  98++B80E              force_close_:
  99++B80E                shiruFX 43
  99++B80E 5A 65       >    defw beeper.shiru_me
  99++B810 2B          >    defb 43
 100++B811                SetMapCell DoorGreen.spr
 100++B811 D9 67       >    defw Entities.set_map_cell_me
 100++B813 6B          >    defb DoorGreen.spr
 101++B814                goto need_look_no_way
 101++B814 A7 61       >    defw zxengine.goto_me
 101++B816 F5 B4       >    defw need_look_no_way
 102++B818                ENDMODULE
 103++B818
 104++B818              DoorRedHard.spr: equ #64
 105++B818                MODULE DoorRedHard
 106++B818                  SETUP_CELL_TYPE_N DoorHard_cell_name, script
 106++B818             >._temp equ $; запоминаем адрес
 106++B818             >    ORG CELL_TYPES+spr*CellType
 106++B030 33 9C 18 B8 >    CellType DoorHard_cell_name, script
 106++B034 00          >
 106++B035             >    ORG ._temp
 107++B818
 108++B818              script:
 109++B818                IfVar Vars.var_act, do_drop, drop_
 109++B818 1E 62       >	  defw zxengine.if_var_me
 109++B81A 00          >	  defb Vars.var_act
 109++B81B 03          >	  defb do_drop
 109++B81C 25 B8       >	  defw drop_
 110++B81E                IfVar Vars.var_act, do_stand, no_way_script
 110++B81E 1E 62       >	  defw zxengine.if_var_me
 110++B820 00          >	  defb Vars.var_act
 110++B821 01          >	  defb do_stand
 110++B822 F9 B4       >	  defw no_way_script
 111++B824 00             defb _endByte
 112++B825
 113++B825              drop_:
 114++B825                IfVar Vars.var_item_id, Wrench.spr, force_open_
 114++B825 1E 62       >	  defw zxengine.if_var_me
 114++B827 04          >	  defb Vars.var_item_id
 114++B828 3D          >	  defb Wrench.spr
 114++B829 2F B8       >	  defw force_open_
 115++B82B                goto no_way_script
 115++B82B A7 61       >    defw zxengine.goto_me
 115++B82D F9 B4       >    defw no_way_script
 116++B82F
 117++B82F              force_open_:
 118++B82F                ;к сожалению шлюз здесь только один, поэтому координаты дверей захардкожены
 119++B82F                SetVar Vars.var_ret, 0
/Users/random/zx-engine/core/engine.asm(52): error: Label not found: DoorRedHard.zxengine.set_Vars.var_ret_me
/Users/random/zx-engine/data/cells/door.asm(119): ^ emitted from here
 119++B82F 00 00       >    defw zxengine.set_Vars.var_ret_me
 119++B831 01          >    defb Vars.var_ret
 119++B832 00          >    defb 0
 120++B833                CallCode binary_check_doors_is_closed ; проверяем открыты ли обе двери
 120++B833 99 61       >    defw zxengine.call_code_me
 120++B835 4F B8       >    defw binary_check_doors_is_closed
 121++B837                IfVar Vars.var_ret, 1, force_open_norm
 121++B837 1E 62       >	  defw zxengine.if_var_me
 121++B839 01          >	  defb Vars.var_ret
 121++B83A 01          >	  defb 1
 121++B83B 45 B8       >	  defw force_open_norm
 122++B83D
 123++B83D                SetVar Vars.game_over, 2
/Users/random/zx-engine/core/engine.asm(52): error: Label not found: DoorRedHard.zxengine.set_Vars.game_over_me
/Users/random/zx-engine/data/cells/door.asm(123): ^ emitted from here
 123++B83D 00 00       >    defw zxengine.set_Vars.game_over_me
 123++B83F 05          >    defb Vars.game_over
 123++B840 02          >    defb 2
 124++B841                goto force_open_norm
 124++B841 A7 61       >    defw zxengine.goto_me
 124++B843 45 B8       >    defw force_open_norm
 125++B845
 126++B845              force_open_norm:
 127++B845                shiruFX 43
 127++B845 5A 65       >    defw beeper.shiru_me
 127++B847 2B          >    defb 43
 128++B848                SetMapCell DoorRedHardOpen.spr
 128++B848 D9 67       >    defw Entities.set_map_cell_me
 128++B84A 63          >    defb DoorRedHardOpen.spr
 129++B84B                goto need_look_no_way
 129++B84B A7 61       >    defw zxengine.goto_me
 129++B84D F5 B4       >    defw need_look_no_way
 130++B84F
 131++B84F              ; две двери шлюза захардкожены (!)
 132++B84F              binary_check_doors_is_closed:
 133++B84F 16 14          LD D, 20
 134++B851 1E 12          LD E, 18
 135++B853 CD 6A 67       CALL map.calc_pos
 136++B856 7E             LD A, (HL); получили спрайт
 137++B857 FE 64          CP DoorRedHard.spr
 138++B859 C0             RET NZ
 139++B85A 16 16          LD D, 22
 140++B85C 1E 15          LD E, 21
 141++B85E CD 6A 67       CALL map.calc_pos
 142++B861 7E             LD A, (HL); получили спрайт
 143++B862 FE 64          CP DoorRedHard.spr
 144++B864 C0             RET NZ
 145++B865 3E 01          LD A, 1
 146++B867                setVar Vars.var_ret
 146++B867 32 04 60    >    LD ( zxengine.varsTab + Vars.var_ret ), A
 147++B86A C9             RET
 148++B86B                ENDMODULE
 149++B86B
 150++B86B              DoorRedHardOpen.spr: equ #63
 151++B86B                MODULE DoorRedHardOpen
 152++B86B                  SETUP_CELL_TYPE_N DoorHard_cell_name, script
 152++B86B             >._temp equ $; запоминаем адрес
 152++B86B             >    ORG CELL_TYPES+spr*CellType
 152++B02B 33 9C 6B B8 >    CellType DoorHard_cell_name, script
 152++B02F 00          >
 152++B030             >    ORG ._temp
 153++B86B
 154++B86B              script:
 155++B86B                IfVar Vars.var_act, do_drop, drop_
 155++B86B 1E 62       >	  defw zxengine.if_var_me
 155++B86D 00          >	  defb Vars.var_act
 155++B86E 03          >	  defb do_drop
 155++B86F 72 B8       >	  defw drop_
 156++B871 00             defb _endByte
 157++B872
 158++B872              drop_:
 159++B872                IfVar Vars.var_item_id, Wrench.spr, force_close_
 159++B872 1E 62       >	  defw zxengine.if_var_me
 159++B874 04          >	  defb Vars.var_item_id
 159++B875 3D          >	  defb Wrench.spr
 159++B876 7C B8       >	  defw force_close_
 160++B878                goto no_way_script
 160++B878 A7 61       >    defw zxengine.goto_me
 160++B87A F9 B4       >    defw no_way_script
 161++B87C
 162++B87C              force_close_:
 163++B87C                shiruFX 43
 163++B87C 5A 65       >    defw beeper.shiru_me
 163++B87E 2B          >    defb 43
 164++B87F                SetMapCell DoorRedHard.spr
 164++B87F D9 67       >    defw Entities.set_map_cell_me
 164++B881 64          >    defb DoorRedHard.spr
 165++B882                goto need_look_no_way
 165++B882 A7 61       >    defw zxengine.goto_me
 165++B884 F5 B4       >    defw need_look_no_way
 166++B886
 167++B886                ENDMODULE
# file closed: /Users/random/zx-engine/data/cells/door.asm
  47++B886                include "data/cells/electronic/electronic.asm"
# file opened: /Users/random/zx-engine/data/cells/electronic/electronic.asm
   1++B886              Electronic.spr: equ #27
   2++B886
   3++B886                MODULE Electronic
   4++B886
   5++B886                  SETUP_CELL_TYPE_N Electronic_cell_name, electronic_script
   5++B886             >._temp equ $; запоминаем адрес
   5++B886             >    ORG CELL_TYPES+spr*CellType
   5++AEFF 13 9D 86 B8 >    CellType Electronic_cell_name, electronic_script
   5++AF03 00          >
   5++AF04             >    ORG ._temp
   6++B886
   7++B886              electronic_script
   8++B886                IfVar Vars.var_act, do_get, no_way_script
   8++B886 1E 62       >	  defw zxengine.if_var_me
   8++B888 00          >	  defb Vars.var_act
   8++B889 02          >	  defb do_get
   8++B88A F9 B4       >	  defw no_way_script
   9++B88C                IfVar Vars.var_act, do_drop, electronic_script_break
   9++B88C 1E 62       >	  defw zxengine.if_var_me
   9++B88E 00          >	  defb Vars.var_act
   9++B88F 03          >	  defb do_drop
   9++B890 96 B8       >	  defw electronic_script_break
  10++B892                goto no_way_script
  10++B892 A7 61       >    defw zxengine.goto_me
  10++B894 F9 B4       >    defw no_way_script
  11++B896
  12++B896              electronic_script_break
  13++B896                CallCode items.get_hero_hand_item
  13++B896 99 61       >    defw zxengine.call_code_me
  13++B898 C1 6B       >    defw items.get_hero_hand_item
  14++B89A                IfVar Vars.var_item_id, Shard.spr, electronic_script_off
  14++B89A 1E 62       >	  defw zxengine.if_var_me
  14++B89C 04          >	  defb Vars.var_item_id
  14++B89D 34          >	  defb Shard.spr
  14++B89E B2 B8       >	  defw electronic_script_off
  15++B8A0                shiruFX FX_Wall
  15++B8A0 5A 65       >    defw beeper.shiru_me
  15++B8A2 33          >    defb FX_Wall
  16++B8A3                ShowText Electronic_kick_mess
  16++B8A3 81 66       >        dw screenfx.show_info_message_me
  16++B8A5 42 A2       >        dw Electronic_kick_mess
  17++B8A7                CallScript action_ring_explode
  17++B8A7 11 62       >    defw zxengine.call_script_me
  17++B8A9 FE B4       >    defw action_ring_explode
  18++B8AB                SetMapCell WallCavity.spr
  18++B8AB D9 67       >    defw Entities.set_map_cell_me
  18++B8AD 2B          >    defb WallCavity.spr
  19++B8AE                goto no_way_script
  19++B8AE A7 61       >    defw zxengine.goto_me
  19++B8B0 F9 B4       >    defw no_way_script
  20++B8B2
  21++B8B2              ; electronic_script_get
  22++B8B2              ;   shiruFX 3
  23++B8B2              ;   goto no_way_script
  24++B8B2
  25++B8B2              electronic_script_off:
  26++B8B2                shiruFX 3
  26++B8B2 5A 65       >    defw beeper.shiru_me
  26++B8B4 03          >    defb 3
  27++B8B5                ShowText Electronic_kick_open_mess
  27++B8B5 81 66       >        dw screenfx.show_info_message_me
  27++B8B7 61 A2       >        dw Electronic_kick_open_mess
  28++B8B9                SetMapCell ElectronicBreak.spr
  28++B8B9 D9 67       >    defw Entities.set_map_cell_me
  28++B8BB 28          >    defb ElectronicBreak.spr
  29++B8BC                FxActionCell ElectronicBreak.spr; обновляем сразу спрайт на экране
  29++B8BC BC 65       >        dw screenfx.fx_action_cell_me
  29++B8BE 28          >        db ElectronicBreak.spr
  30++B8BF                CallCode binary_set_active_cell_left
  30++B8BF 99 61       >    defw zxengine.call_code_me
  30++B8C1 CC B4       >    defw binary_set_active_cell_left
  31++B8C3                shiruFX 43
  31++B8C3 5A 65       >    defw beeper.shiru_me
  31++B8C5 2B          >    defb 43
  32++B8C6                FxActionCell Door_half_open
  32++B8C6 BC 65       >        dw screenfx.fx_action_cell_me
  32++B8C8 12          >        db Door_half_open
  33++B8C9                wait_halt 3
  33++B8C9 AF 61       >    defw zxengine.halt_me
  33++B8CB 03          >    defb 3
  34++B8CC                SetMapCell DoorOpen.spr
  34++B8CC D9 67       >    defw Entities.set_map_cell_me
  34++B8CE 22          >    defb DoorOpen.spr
  35++B8CF                goto no_way_script
  35++B8CF A7 61       >    defw zxengine.goto_me
  35++B8D1 F9 B4       >    defw no_way_script
  36++B8D3
  37++B8D3                ENDMODULE
  38++B8D3
  39++B8D3              ; FoodDispenser.spr: equ 87
  40++B8D3              ;   MODULE FoodDispenser
  41++B8D3              ;     SETUP_CELL_TYPE_N FoodDispenser_cell_name, say_no_way
  42++B8D3              ;   ENDMODULE
# file closed: /Users/random/zx-engine/data/cells/electronic/electronic.asm
  48++B8D3                include "data/cells/electronic/electronic_break.asm"
# file opened: /Users/random/zx-engine/data/cells/electronic/electronic_break.asm
   1++B8D3
   2++B8D3              ElectronicBreak.spr: equ #28
   3++B8D3
   4++B8D3                MODULE ElectronicBreak
   5++B8D3
   6++B8D3                  SETUP_CELL_TYPE_N Electronic_break_name, electronic_break_script
   6++B8D3             >._temp equ $; запоминаем адрес
   6++B8D3             >    ORG CELL_TYPES+spr*CellType
   6++AF04 2F 9D D3 B8 >    CellType Electronic_break_name, electronic_break_script
   6++AF08 00          >
   6++AF09             >    ORG ._temp
   7++B8D3
   8++B8D3              electronic_break_script
   9++B8D3                IfVar Vars.var_act, do_drop, drop_script
   9++B8D3 1E 62       >	  defw zxengine.if_var_me
   9++B8D5 00          >	  defb Vars.var_act
   9++B8D6 03          >	  defb do_drop
   9++B8D7 DD B8       >	  defw drop_script
  10++B8D9                goto no_way_script
  10++B8D9 A7 61       >    defw zxengine.goto_me
  10++B8DB F9 B4       >    defw no_way_script
  11++B8DD
  12++B8DD              drop_script:
  13++B8DD                shiruFX FX_Wall
  13++B8DD 5A 65       >    defw beeper.shiru_me
  13++B8DF 33          >    defb FX_Wall
  14++B8E0                CallScript action_ring_explode
  14++B8E0 11 62       >    defw zxengine.call_script_me
  14++B8E2 FE B4       >    defw action_ring_explode
  15++B8E4                ShowText Electronic_kick_mess
  15++B8E4 81 66       >        dw screenfx.show_info_message_me
  15++B8E6 42 A2       >        dw Electronic_kick_mess
  16++B8E8                SetMapCell WallCavity.spr
  16++B8E8 D9 67       >    defw Entities.set_map_cell_me
  16++B8EA 2B          >    defb WallCavity.spr
  17++B8EB                goto no_way_script
  17++B8EB A7 61       >    defw zxengine.goto_me
  17++B8ED F9 B4       >    defw no_way_script
  18++B8EF
  19++B8EF                ENDMODULE
  20++B8EF
# file closed: /Users/random/zx-engine/data/cells/electronic/electronic_break.asm
  49++B8EF                include "data/cells/heroes/Hero09.asm"
# file opened: /Users/random/zx-engine/data/cells/heroes/Hero09.asm
   1++B8EF
   2++B8EF              Hero09.spr: equ 160
   3++B8EF
   4++B8EF                MODULE Hero09
   5++B8EF                  SETUP_CELL_TYPE_N Empty_cell_name, no_script
   5++B8EF             >._temp equ $; запоминаем адрес
   5++B8EF             >    ORG CELL_TYPES+spr*CellType
   5++B15C 09 9C FD B4 >    CellType Empty_cell_name, no_script
   5++B160 00          >
   5++B161             >    ORG ._temp
   6++B8EF                ENDMODULE
   7++B8EF
# file closed: /Users/random/zx-engine/data/cells/heroes/Hero09.asm
  50++B8EF                ; include "data/cells/heroes/HeroDead.asm"
  51++B8EF                include "data/cells/locker.asm"
# file opened: /Users/random/zx-engine/data/cells/locker.asm
   1++B8EF
   2++B8EF              ; Locker.spr: equ 70
   3++B8EF              ;   MODULE Locker
   4++B8EF              ;     SETUP_CELL_TYPE_N Locker_cell_name, no_way_script
   5++B8EF              ; locker_script:
   6++B8EF              ;   shiruFX FX_Wall
   7++B8EF              ;   CallScript action_ring_explode
   8++B8EF              ;   ShowText Locker_mess
   9++B8EF              ;   goto no_way_script
  10++B8EF              ;   ENDMODULE
  11++B8EF
  12++B8EF              ; LockerBig.spr: equ 69
  13++B8EF              ;   MODULE LockerBig
  14++B8EF              ;     SETUP_CELL_TYPE_N Locker_cell_name, no_way_script
  15++B8EF              ;   ENDMODULE
  16++B8EF
# file closed: /Users/random/zx-engine/data/cells/locker.asm
  52++B8EF                include "data/cells/cavity.asm"
# file opened: /Users/random/zx-engine/data/cells/cavity.asm
   1++B8EF
   2++B8EF              WallCavity.spr: equ 43
   3++B8EF
   4++B8EF                MODULE WallCavity
   5++B8EF                  SETUP_CELL_TYPE_N WallCavity_name, no_way_script
   5++B8EF             >._temp equ $; запоминаем адрес
   5++B8EF             >    ORG CELL_TYPES+spr*CellType
   5++AF13 50 9F F9 B4 >    CellType WallCavity_name, no_way_script
   5++AF17 00          >
   5++AF18             >    ORG ._temp
   6++B8EF
   7++B8EF              ; cavity_script:
   8++B8EF              ;   IfVar Vars.var_act, do_get, get_script
   9++B8EF              ;   IfVar Vars.var_act, do_drop, drop_script
  10++B8EF                ; goto no_way_script
  11++B8EF
  12++B8EF              ; drop_script:
  13++B8EF              ;   IfVar Vars.var_item_id, Shard.spr, break_shard
  14++B8EF
  15++B8EF              ; get_script:
  16++B8EF              ;   shiruFX FX_Wall
  17++B8EF              ;   CallScript action_ring_explode
  18++B8EF              ;   ShowText Wall_mess
  19++B8EF              ;   goto no_way_script
  20++B8EF
  21++B8EF                ENDMODULE
  22++B8EF
# file closed: /Users/random/zx-engine/data/cells/cavity.asm
  53++B8EF                include "data/cells/wall/soft_wall_break.asm"
# file opened: /Users/random/zx-engine/data/cells/wall/soft_wall_break.asm
   1++B8EF
   2++B8EF              SoftWallBreak.spr: equ #26
   3++B8EF
   4++B8EF                MODULE SoftWallBreak
   5++B8EF                  SETUP_CELL_TYPE_N Soft_wall_name, soft_wal_script
   5++B8EF             >._temp equ $; запоминаем адрес
   5++B8EF             >    ORG CELL_TYPES+spr*CellType
   5++AEFA 74 9C EF B8 >    CellType Soft_wall_name, soft_wal_script
   5++AEFE 00          >
   5++AEFF             >    ORG ._temp
   6++B8EF
   7++B8EF              soft_wal_script:
   8++B8EF                IfVar Vars.var_act, do_get, soft_wall_break
   8++B8EF 1E 62       >	  defw zxengine.if_var_me
   8++B8F1 00          >	  defb Vars.var_act
   8++B8F2 02          >	  defb do_get
   8++B8F3 FF B8       >	  defw soft_wall_break
   9++B8F5                IfVar Vars.var_act, do_drop, soft_wall_break
   9++B8F5 1E 62       >	  defw zxengine.if_var_me
   9++B8F7 00          >	  defb Vars.var_act
   9++B8F8 03          >	  defb do_drop
   9++B8F9 FF B8       >	  defw soft_wall_break
  10++B8FB                goto no_way_script
  10++B8FB A7 61       >    defw zxengine.goto_me
  10++B8FD F9 B4       >    defw no_way_script
  11++B8FF
  12++B8FF              soft_wall_break:
  13++B8FF                SetVar Vars.var_ret, 0
/Users/random/zx-engine/core/engine.asm(52): error: Label not found: SoftWallBreak.zxengine.set_Vars.var_ret_me
/Users/random/zx-engine/data/cells/wall/soft_wall_break.asm(13): ^ emitted from here
  13++B8FF 00 00       >    defw zxengine.set_Vars.var_ret_me
  13++B901 01          >    defb Vars.var_ret
  13++B902 00          >    defb 0
  14++B903                shiruFX FX_Cutt1
  14++B903 5A 65       >    defw beeper.shiru_me
  14++B905 08          >    defb FX_Cutt1
  15++B906                CallScript action_ring_explode
  15++B906 11 62       >    defw zxengine.call_script_me
  15++B908 FE B4       >    defw action_ring_explode
  16++B90A
  17++B90A                ScanPosTable soft_wall_panel_table
  17++B90A BF 61       >    defw zxengine.scan_pos_table_me
  17++B90C 3F B9       >    defw soft_wall_panel_table
  18++B90E                IfVar Vars.var_ret, 1, no_way_script
  18++B90E 1E 62       >	  defw zxengine.if_var_me
  18++B910 01          >	  defb Vars.var_ret
  18++B911 01          >	  defb 1
  18++B912 F9 B4       >	  defw no_way_script
  19++B914
  20++B914              soft_wall_break_on:
  21++B914                SetMapCell Wall.spr
  21++B914 D9 67       >    defw Entities.set_map_cell_me
  21++B916 01          >    defb Wall.spr
  22++B917                ; ShowText Soft_wall_clean
  23++B917                goto need_look_no_way; на выходе должно быть 0 тогда дальше обрабатываться не будет
  23++B917 A7 61       >    defw zxengine.goto_me
  23++B919 F5 B4       >    defw need_look_no_way
  24++B91B
  25++B91B              soft_wall_break_electronic_script:
  26++B91B                SetMapCell Electronic.spr
  26++B91B D9 67       >    defw Entities.set_map_cell_me
  26++B91D 27          >    defb Electronic.spr
  27++B91E                ShowText Soft_wall_show_electronic
  27++B91E 81 66       >        dw screenfx.show_info_message_me
  27++B920 BA A1       >        dw Soft_wall_show_electronic
  28++B922                SetVar Vars.var_ret, 1
/Users/random/zx-engine/core/engine.asm(52): error: Label not found: SoftWallBreak.zxengine.set_Vars.var_ret_me
/Users/random/zx-engine/data/cells/wall/soft_wall_break.asm(28): ^ emitted from here
  28++B922 00 00       >    defw zxengine.set_Vars.var_ret_me
  28++B924 01          >    defb Vars.var_ret
  28++B925 01          >    defb 1
  29++B926 00             defb _endByte
  30++B927
  31++B927              soft_wall_make_grid_script:
  32++B927                SetMapCell WallGrid.spr
  32++B927 D9 67       >    defw Entities.set_map_cell_me
  32++B929 2C          >    defb WallGrid.spr
  33++B92A                ShowText WallGrid_name
  33++B92A 81 66       >        dw screenfx.show_info_message_me
  33++B92C 3A 9F       >        dw WallGrid_name
  34++B92E                SetVar Vars.var_ret, 1
/Users/random/zx-engine/core/engine.asm(52): error: Label not found: SoftWallBreak.zxengine.set_Vars.var_ret_me
/Users/random/zx-engine/data/cells/wall/soft_wall_break.asm(34): ^ emitted from here
  34++B92E 00 00       >    defw zxengine.set_Vars.var_ret_me
  34++B930 01          >    defb Vars.var_ret
  34++B931 01          >    defb 1
  35++B932 00             defb _endByte
  36++B933
  37++B933              soft_wall_make_cavity_script:
  38++B933                SetMapCell WallCavity.spr
  38++B933 D9 67       >    defw Entities.set_map_cell_me
  38++B935 2B          >    defb WallCavity.spr
  39++B936                ShowText WallCavity_name
  39++B936 81 66       >        dw screenfx.show_info_message_me
  39++B938 50 9F       >        dw WallCavity_name
  40++B93A                SetVar Vars.var_ret, 1
/Users/random/zx-engine/core/engine.asm(52): error: Label not found: SoftWallBreak.zxengine.set_Vars.var_ret_me
/Users/random/zx-engine/data/cells/wall/soft_wall_break.asm(40): ^ emitted from here
  40++B93A 00 00       >    defw zxengine.set_Vars.var_ret_me
  40++B93C 01          >    defb Vars.var_ret
  40++B93D 01          >    defb 1
  41++B93E 00             defb _endByte
  42++B93F
  43++B93F              soft_wall_panel_table:
  44++B93F
  45++B93F 05 05          defb 5,5
  46++B941 1B B9          defw soft_wall_break_electronic_script
  47++B943 0B 05          defb 11,5
  48++B945 1B B9          defw soft_wall_break_electronic_script
  49++B947 11 05          defb 17,5
  50++B949 1B B9          defw soft_wall_break_electronic_script
  51++B94B 05 09          defb 5,9
  52++B94D 1B B9          defw soft_wall_break_electronic_script
  53++B94F 0B 09          defb 11,9
  54++B951 1B B9          defw soft_wall_break_electronic_script
  55++B953
  56++B953                ; defb 16,5
  57++B953                ; defw soft_wall_make_grid_script
  58++B953 10 09          defb 16,9
  59++B955 27 B9          defw soft_wall_make_grid_script
  60++B957 03 06          defb 3,6
  61++B959 27 B9          defw soft_wall_make_grid_script
  62++B95B 03 08          defb 3,8
  63++B95D 27 B9          defw soft_wall_make_grid_script
  64++B95F
  65++B95F 11 05          defb 17,5
  66++B961 33 B9          defw soft_wall_make_cavity_script
  67++B963 11 09          defb 17,9
  68++B965 33 B9          defw soft_wall_make_cavity_script
  69++B967                ; defb 19,3
  70++B967                ; defw soft_wall_make_cavity_script
  71++B967
  72++B967 00             defb _endByte
  73++B968
  74++B968                ENDMODULE
  75++B968
  76++B968              WallHole.spr: equ 72
  77++B968
  78++B968                MODULE WallHole
  79++B968                  SETUP_CELL_TYPE_N WallHole_name, Floor.script
  79++B968             >._temp equ $; запоминаем адрес
  79++B968             >    ORG CELL_TYPES+spr*CellType
  79++AFA4 25 9F 73 B5 >    CellType WallHole_name, Floor.script
  79++AFA8 00          >
  79++AFA9             >    ORG ._temp
  80++B968                ENDMODULE
  81++B968
  82++B968              ; display "soft_wall_panel_table", SoftWallBreak.soft_wall_panel_table
  83++B968              ; display "soft_wall_break_electronic_script", SoftWallBreak.soft_wall_break_electronic_script
# file closed: /Users/random/zx-engine/data/cells/wall/soft_wall_break.asm
  54++B968                include "data/cells/wall/soft_wall.asm"
# file opened: /Users/random/zx-engine/data/cells/wall/soft_wall.asm
   1++B968              SoftWall.spr: equ #06
   2++B968
   3++B968                MODULE SoftWall
   4++B968
   5++B968                  SETUP_CELL_TYPE_N Soft_wall_name, soft_wall_script
   5++B968             >._temp equ $; запоминаем адрес
   5++B968             >    ORG CELL_TYPES+spr*CellType
   5++AE5A 74 9C 68 B9 >    CellType Soft_wall_name, soft_wall_script
   5++AE5E 00          >
   5++AE5F             >    ORG ._temp
   6++B968
   7++B968              soft_wall_script:
   8++B968                IfVar Vars.var_act, do_get, get_script
   8++B968 1E 62       >	  defw zxengine.if_var_me
   8++B96A 00          >	  defb Vars.var_act
   8++B96B 02          >	  defb do_get
   8++B96C 93 B9       >	  defw get_script
   9++B96E                IfVar Vars.var_act, do_drop, drop_script
   9++B96E 1E 62       >	  defw zxengine.if_var_me
   9++B970 00          >	  defb Vars.var_act
   9++B971 03          >	  defb do_drop
   9++B972 78 B9       >	  defw drop_script
  10++B974                goto no_way_script
  10++B974 A7 61       >    defw zxengine.goto_me
  10++B976 F9 B4       >    defw no_way_script
  11++B978
  12++B978              drop_script:
  13++B978                IfVar Vars.var_item_id, Shard.spr, soft_wall_break
  13++B978 1E 62       >	  defw zxengine.if_var_me
  13++B97A 04          >	  defb Vars.var_item_id
  13++B97B 34          >	  defb Shard.spr
  13++B97C A2 B9       >	  defw soft_wall_break
  14++B97E                IfVar Vars.var_item_id, Nippers.spr, soft_wall_break
  14++B97E 1E 62       >	  defw zxengine.if_var_me
  14++B980 04          >	  defb Vars.var_item_id
  14++B981 3C          >	  defb Nippers.spr
  14++B982 A2 B9       >	  defw soft_wall_break
  15++B984                shiruFX 17
  15++B984 5A 65       >    defw beeper.shiru_me
  15++B986 11          >    defb 17
  16++B987                CallScript action_ring_explode
  16++B987 11 62       >    defw zxengine.call_script_me
  16++B989 FE B4       >    defw action_ring_explode
  17++B98B                ShowText Soft_wall_hit_mess
  17++B98B 81 66       >        dw screenfx.show_info_message_me
  17++B98D 4B A4       >        dw Soft_wall_hit_mess
  18++B98F                goto no_way_script
  18++B98F A7 61       >    defw zxengine.goto_me
  18++B991 F9 B4       >    defw no_way_script
  19++B993
  20++B993              get_script:
  21++B993                shiruFX 2
  21++B993 5A 65       >    defw beeper.shiru_me
  21++B995 02          >    defb 2
  22++B996                CallScript action_ring_explode
  22++B996 11 62       >    defw zxengine.call_script_me
  22++B998 FE B4       >    defw action_ring_explode
  23++B99A                ShowText Soft_wall_hit_mess
  23++B99A 81 66       >        dw screenfx.show_info_message_me
  23++B99C 4B A4       >        dw Soft_wall_hit_mess
  24++B99E                goto no_way_script
  24++B99E A7 61       >    defw zxengine.goto_me
  24++B9A0 F9 B4       >    defw no_way_script
  25++B9A2
  26++B9A2              soft_wall_break
  27++B9A2                shiruFX FX_Cutt
  27++B9A2 5A 65       >    defw beeper.shiru_me
  27++B9A4 07          >    defb FX_Cutt
  28++B9A5                SetMapCell SoftWallBreak.spr
  28++B9A5 D9 67       >    defw Entities.set_map_cell_me
  28++B9A7 26          >    defb SoftWallBreak.spr
  29++B9A8                ShowText Shard_to_soft_wall_mess
  29++B9A8 81 66       >        dw screenfx.show_info_message_me
  29++B9AA 6F A3       >        dw Shard_to_soft_wall_mess
  30++B9AC                goto no_way_script
  30++B9AC A7 61       >    defw zxengine.goto_me
  30++B9AE F9 B4       >    defw no_way_script
  31++B9B0
  32++B9B0                ENDMODULE
  33++B9B0
# file closed: /Users/random/zx-engine/data/cells/wall/soft_wall.asm
  55++B9B0                include "data/cells/wall/wall_grid.asm"
# file opened: /Users/random/zx-engine/data/cells/wall/wall_grid.asm
   1++B9B0
   2++B9B0              WallGrid.spr: equ 44
   3++B9B0
   4++B9B0                MODULE WallGrid
   5++B9B0                  SETUP_CELL_TYPE_N WallGrid_name,     wallgrid_script
   5++B9B0             >._temp equ $; запоминаем адрес
   5++B9B0             >    ORG CELL_TYPES+spr*CellType
   5++AF18 3A 9F B0 B9 >    CellType WallGrid_name, wallgrid_script
   5++AF1C 00          >
   5++AF1D             >    ORG ._temp
   6++B9B0
   7++B9B0              wallgrid_script:
   8++B9B0                IfVar Vars.var_act, do_get, get_script
   8++B9B0 1E 62       >	  defw zxengine.if_var_me
   8++B9B2 00          >	  defb Vars.var_act
   8++B9B3 02          >	  defb do_get
   8++B9B4 CC B9       >	  defw get_script
   9++B9B6                IfVar Vars.var_act, do_drop, drop_script
   9++B9B6 1E 62       >	  defw zxengine.if_var_me
   9++B9B8 00          >	  defb Vars.var_act
   9++B9B9 03          >	  defb do_drop
   9++B9BA C0 B9       >	  defw drop_script
  10++B9BC                goto no_way_script
  10++B9BC A7 61       >    defw zxengine.goto_me
  10++B9BE F9 B4       >    defw no_way_script
  11++B9C0
  12++B9C0              drop_script:
  13++B9C0                IfVar Vars.var_item_id, Nippers.spr, break_grid
  13++B9C0 1E 62       >	  defw zxengine.if_var_me
  13++B9C2 04          >	  defb Vars.var_item_id
  13++B9C3 3C          >	  defb Nippers.spr
  13++B9C4 DB B9       >	  defw break_grid
  14++B9C6                IfVar Vars.var_item_id, Shard.spr, base_kick_shard_fault
  14++B9C6 1E 62       >	  defw zxengine.if_var_me
  14++B9C8 04          >	  defb Vars.var_item_id
  14++B9C9 34          >	  defb Shard.spr
  14++B9CA E6 B4       >	  defw base_kick_shard_fault
  15++B9CC              get_script:
  16++B9CC                shiruFX FX_Wall
  16++B9CC 5A 65       >    defw beeper.shiru_me
  16++B9CE 33          >    defb FX_Wall
  17++B9CF                CallScript action_ring_explode
  17++B9CF 11 62       >    defw zxengine.call_script_me
  17++B9D1 FE B4       >    defw action_ring_explode
  18++B9D3                ShowText WallGrid_false_mess
  18++B9D3 81 66       >        dw screenfx.show_info_message_me
  18++B9D5 92 A1       >        dw WallGrid_false_mess
  19++B9D7                goto no_way_script
  19++B9D7 A7 61       >    defw zxengine.goto_me
  19++B9D9 F9 B4       >    defw no_way_script
  20++B9DB
  21++B9DB              break_grid:
  22++B9DB                shiruFX FX_GridCut
  22++B9DB 5A 65       >    defw beeper.shiru_me
  22++B9DD 27          >    defb FX_GridCut
  23++B9DE                ; CallScript action_ring_explode
  24++B9DE                ShowText WallHole_name
  24++B9DE 81 66       >        dw screenfx.show_info_message_me
  24++B9E0 25 9F       >        dw WallHole_name
  25++B9E2                SetMapCell WallHole.spr
  25++B9E2 D9 67       >    defw Entities.set_map_cell_me
  25++B9E4 48          >    defb WallHole.spr
  26++B9E5                goto need_look_no_way
  26++B9E5 A7 61       >    defw zxengine.goto_me
  26++B9E7 F5 B4       >    defw need_look_no_way
  27++B9E9
  28++B9E9                ENDMODULE
  29++B9E9
# file closed: /Users/random/zx-engine/data/cells/wall/wall_grid.asm
  56++B9E9                include "data/cells/wall/wall.asm"
# file opened: /Users/random/zx-engine/data/cells/wall/wall.asm
   1++B9E9
   2++B9E9              Wall.spr: equ #01
   3++B9E9
   4++B9E9                MODULE Wall
   5++B9E9                  SETUP_CELL_TYPE_N Wall_cell_name, script
   5++B9E9             >._temp equ $; запоминаем адрес
   5++B9E9             >    ORG CELL_TYPES+spr*CellType
   5++AE41 42 9C E9 B9 >    CellType Wall_cell_name, script
   5++AE45 00          >
   5++AE46             >    ORG ._temp
   6++B9E9
   7++B9E9              script:
   8++B9E9                IfVar Vars.var_act, do_get, no_way_script
   8++B9E9 1E 62       >	  defw zxengine.if_var_me
   8++B9EB 00          >	  defb Vars.var_act
   8++B9EC 02          >	  defb do_get
   8++B9ED F9 B4       >	  defw no_way_script
   9++B9EF                IfVar Vars.var_act, do_drop, drop_
   9++B9EF 1E 62       >	  defw zxengine.if_var_me
   9++B9F1 00          >	  defb Vars.var_act
   9++B9F2 03          >	  defb do_drop
   9++B9F3 FC B9       >	  defw drop_
  10++B9F5                IfVar Vars.var_act, do_stand, no_way_script
  10++B9F5 1E 62       >	  defw zxengine.if_var_me
  10++B9F7 00          >	  defb Vars.var_act
  10++B9F8 01          >	  defb do_stand
  10++B9F9 F9 B4       >	  defw no_way_script
  11++B9FB 00             defb _endByte
  12++B9FC
  13++B9FC              drop_:
  14++B9FC                IfVar Vars.var_item_id, Shard.spr, base_kick_shard_fault
  14++B9FC 1E 62       >	  defw zxengine.if_var_me
  14++B9FE 04          >	  defb Vars.var_item_id
  14++B9FF 34          >	  defb Shard.spr
  14++BA00 E6 B4       >	  defw base_kick_shard_fault
  15++BA02                goto base_kick_fault
  15++BA02 A7 61       >    defw zxengine.goto_me
  15++BA04 DB B4       >    defw base_kick_fault
  16++BA06
  17++BA06              ; get_:
  18++BA06                ; shiruFX FX_Wall
  19++BA06                ; CallScript action_ring_explode
  20++BA06                ; ShowText Wall_mess
  21++BA06                ; goto no_way_script
  22++BA06
  23++BA06              ; break_shard:
  24++BA06              ;   shiruFX 21
  25++BA06              ;   ; CallCode items.del_item_from_hand
  26++BA06              ;   ; ShowText Break_shard_mess
  27++BA06              ;   goto no_way_script
  28++BA06
  29++BA06                ENDMODULE
  30++BA06
# file closed: /Users/random/zx-engine/data/cells/wall/wall.asm
  57++BA06                include "data/cells/_index.asm"
# file opened: /Users/random/zx-engine/data/cells/_index.asm
   1++BA06                  include "table.asm"
# file opened: /Users/random/zx-engine/data/cells/table.asm
   1++BA06              Table.spr: equ 35
   2++BA06
   3++BA06                MODULE Table
   4++BA06
   5++BA06                  SETUP_CELL_TYPE_N Table_cell_name, table_script
   5++BA06             >._temp equ $; запоминаем адрес
   5++BA06             >    ORG CELL_TYPES+spr*CellType
   5++AEEB 61 9E 06 BA >    CellType Table_cell_name, table_script
   5++AEEF 00          >
   5++AEF0             >    ORG ._temp
   6++BA06
   7++BA06              table_script:
   8++BA06                IfVar Vars.var_act, do_drop, drop_table_script
   8++BA06 1E 62       >	  defw zxengine.if_var_me
   8++BA08 00          >	  defb Vars.var_act
   8++BA09 03          >	  defb do_drop
   8++BA0A 13 BA       >	  defw drop_table_script
   9++BA0C                IfVar Vars.var_act, do_stand, no_way_script
   9++BA0C 1E 62       >	  defw zxengine.if_var_me
   9++BA0E 00          >	  defb Vars.var_act
   9++BA0F 01          >	  defb do_stand
   9++BA10 F9 B4       >	  defw no_way_script
  10++BA12 00             defb _endByte
  11++BA13
  12++BA13              drop_table_script:
  13++BA13                IfVar Vars.var_item_id, Shard.spr, base_kick_shard_fault
  13++BA13 1E 62       >	  defw zxengine.if_var_me
  13++BA15 04          >	  defb Vars.var_item_id
  13++BA16 34          >	  defb Shard.spr
  13++BA17 E6 B4       >	  defw base_kick_shard_fault
  14++BA19                IfVar Vars.var_item_id, Nippers.spr, break_table
  14++BA19 1E 62       >	  defw zxengine.if_var_me
  14++BA1B 04          >	  defb Vars.var_item_id
  14++BA1C 3C          >	  defb Nippers.spr
  14++BA1D 29 BA       >	  defw break_table
  15++BA1F                IfVar Vars.var_item_id, Wrench.spr, break_table
  15++BA1F 1E 62       >	  defw zxengine.if_var_me
  15++BA21 04          >	  defb Vars.var_item_id
  15++BA22 3D          >	  defb Wrench.spr
  15++BA23 29 BA       >	  defw break_table
  16++BA25              ;   shiruFX FX_Boom
  17++BA25              ;   CallScript action_ring_explode
  18++BA25              ;   ShowText Mentoscanner_kick_mess
  19++BA25              ;   SetMapCell Trash.spr
  20++BA25                goto no_way_script
  20++BA25 A7 61       >    defw zxengine.goto_me
  20++BA27 F9 B4       >    defw no_way_script
  21++BA29
  22++BA29              break_table:
  23++BA29                shiruFX FX_Wall
  23++BA29 5A 65       >    defw beeper.shiru_me
  23++BA2B 33          >    defb FX_Wall
  24++BA2C                CallScript action_ring_explode
  24++BA2C 11 62       >    defw zxengine.call_script_me
  24++BA2E FE B4       >    defw action_ring_explode
  25++BA30                SetMapCell Trash.spr
  25++BA30 D9 67       >    defw Entities.set_map_cell_me
  25++BA32 32          >    defb Trash.spr
  26++BA33                goto need_look_no_way
  26++BA33 A7 61       >    defw zxengine.goto_me
  26++BA35 F5 B4       >    defw need_look_no_way
  27++BA37
  28++BA37                ENDMODULE
  29++BA37
  30++BA37              WhiteTable.spr: equ 81
  31++BA37
  32++BA37                MODULE WhiteTable
  33++BA37
  34++BA37                  SETUP_CELL_TYPE_N Table_cell_name, Table.table_script
  34++BA37             >._temp equ $; запоминаем адрес
  34++BA37             >    ORG CELL_TYPES+spr*CellType
  34++AFD1 61 9E 06 BA >    CellType Table_cell_name, Table.table_script
  34++AFD5 00          >
  34++AFD6             >    ORG ._temp
  35++BA37
  36++BA37                ENDMODULE
  37++BA37
# file closed: /Users/random/zx-engine/data/cells/table.asm
   2++BA37                  include "scaf_place.asm"
# file opened: /Users/random/zx-engine/data/cells/scaf_place.asm
   1++BA37              ScafPlace.spr: equ 190
   2++BA37
   3++BA37                MODULE ScafPlace
   4++BA37
   5++BA37                  SETUP_CELL_TYPE_N ScafPlace_cell_name, script
   5++BA37             >._temp equ $; запоминаем адрес
   5++BA37             >    ORG CELL_TYPES+spr*CellType
   5++B1F2 38 A1 37 BA >    CellType ScafPlace_cell_name, script
   5++B1F6 00          >
   5++B1F7             >    ORG ._temp
   6++BA37
   7++BA37              script:
   8++BA37                IfVar Vars.var_act, do_stand, no_script
   8++BA37 1E 62       >	  defw zxengine.if_var_me
   8++BA39 00          >	  defb Vars.var_act
   8++BA3A 01          >	  defb do_stand
   8++BA3B FD B4       >	  defw no_script
   9++BA3D                IfVar Vars.var_act, do_get, get_
   9++BA3D 1E 62       >	  defw zxengine.if_var_me
   9++BA3F 00          >	  defb Vars.var_act
   9++BA40 02          >	  defb do_get
   9++BA41 4A BA       >	  defw get_
  10++BA43                IfVar Vars.var_act, do_drop, no_way_script
  10++BA43 1E 62       >	  defw zxengine.if_var_me
  10++BA45 00          >	  defb Vars.var_act
  10++BA46 03          >	  defb do_drop
  10++BA47 F9 B4       >	  defw no_way_script
  11++BA49 00             defb _endByte
  12++BA4A
  13++BA4A              ; кладем скафандр по событию get так как он одет
  14++BA4A              get_:
  15++BA4A                SetVar Vars.var_ret, 0
/Users/random/zx-engine/core/engine.asm(52): error: Label not found: ScafPlace.zxengine.set_Vars.var_ret_me
/Users/random/zx-engine/data/cells/scaf_place.asm(15): ^ emitted from here
  15++BA4A 00 00       >    defw zxengine.set_Vars.var_ret_me
  15++BA4C 01          >    defb Vars.var_ret
  15++BA4D 00          >    defb 0
  16++BA4E                CallCode Scaf.binary_check_scaf
  16++BA4E 99 61       >    defw zxengine.call_code_me
  16++BA50 FD BB       >    defw Scaf.binary_check_scaf
  17++BA52                IfVar Vars.var_ret, 1, no_way_script ; скафандр не одет
  17++BA52 1E 62       >	  defw zxengine.if_var_me
  17++BA54 01          >	  defb Vars.var_ret
  17++BA55 01          >	  defb 1
  17++BA56 F9 B4       >	  defw no_way_script
  18++BA58                goto Scaf.unwear_scaf
  18++BA58 A7 61       >    defw zxengine.goto_me
  18++BA5A DE BB       >    defw Scaf.unwear_scaf
  19++BA5C
  20++BA5C                ENDMODULE
# file closed: /Users/random/zx-engine/data/cells/scaf_place.asm
   3++BA5C                  include "nipple.asm"
# file opened: /Users/random/zx-engine/data/cells/nipple.asm
   1++BA5C
   2++BA5C              Nipple.spr: equ 30
   3++BA5C
   4++BA5C                MODULE Nipple
   5++BA5C                  SETUP_CELL_TYPE_N Nipple_cell_name, script
   5++BA5C             >._temp equ $; запоминаем адрес
   5++BA5C             >    ORG CELL_TYPES+spr*CellType
   5++AED2 75 A1 5C BA >    CellType Nipple_cell_name, script
   5++AED6 00          >
   5++AED7             >    ORG ._temp
   6++BA5C
   7++BA5C              script:
   8++BA5C                IfVar Vars.var_act, do_stand, no_script
   8++BA5C 1E 62       >	  defw zxengine.if_var_me
   8++BA5E 00          >	  defb Vars.var_act
   8++BA5F 01          >	  defb do_stand
   8++BA60 FD B4       >	  defw no_script
   9++BA62                IfVar Vars.var_act, do_get, no_way_script
   9++BA62 1E 62       >	  defw zxengine.if_var_me
   9++BA64 00          >	  defb Vars.var_act
   9++BA65 02          >	  defb do_get
   9++BA66 F9 B4       >	  defw no_way_script
  10++BA68                IfVar Vars.var_act, do_drop, drop_
  10++BA68 1E 62       >	  defw zxengine.if_var_me
  10++BA6A 00          >	  defb Vars.var_act
  10++BA6B 03          >	  defb do_drop
  10++BA6C 6F BA       >	  defw drop_
  11++BA6E 00             defb _endByte
  12++BA6F
  13++BA6F              drop_:
  14++BA6F                IfVar Vars.var_item_id, Canister.spr, power_
  14++BA6F 1E 62       >	  defw zxengine.if_var_me
  14++BA71 04          >	  defb Vars.var_item_id
  14++BA72 07          >	  defb Canister.spr
  14++BA73 7C BA       >	  defw power_
  15++BA75                IfVar Vars.var_item_id, CanisterRed.spr, power_
  15++BA75 1E 62       >	  defw zxengine.if_var_me
  15++BA77 04          >	  defb Vars.var_item_id
  15++BA78 71          >	  defb CanisterRed.spr
  15++BA79 7C BA       >	  defw power_
  16++BA7B 00             defb _endByte
  17++BA7C
  18++BA7C              power_:
  19++BA7C                CallCode items.del_item_from_hand
  19++BA7C 99 61       >    defw zxengine.call_code_me
  19++BA7E 11 6C       >    defw items.del_item_from_hand
  20++BA80                SetMapCell CanisterPowered.spr
  20++BA80 D9 67       >    defw Entities.set_map_cell_me
  20++BA82 72          >    defb CanisterPowered.spr
  21++BA83                IncVar Vars.power_on
  21++BA83 45 62       >	  defw zxengine.inc_var_me
  21++BA85 09          >    defb Vars.power_on
  22++BA86                IfVar Vars.power_on, Vars.MAX_BIOCONTAINERS_FOR_POWER_ON, power_start_
  22++BA86 1E 62       >	  defw zxengine.if_var_me
  22++BA88 09          >	  defb Vars.power_on
  22++BA89 06          >	  defb Vars.MAX_BIOCONTAINERS_FOR_POWER_ON
  22++BA8A 8D BA       >	  defw power_start_
  23++BA8C                ; goto no_script
  24++BA8C 00             defb _endByte
  25++BA8D
  26++BA8D              power_start_:
  27++BA8D                SetVar Vars.power_on, Vars.MAX_BIOCONTAINERS_FOR_POWER_ON
/Users/random/zx-engine/core/engine.asm(52): error: Label not found: Nipple.zxengine.set_Vars.power_on_me
/Users/random/zx-engine/data/cells/nipple.asm(27): ^ emitted from here
  27++BA8D 00 00       >    defw zxengine.set_Vars.power_on_me
  27++BA8F 09          >    defb Vars.power_on
  27++BA90 06          >    defb Vars.MAX_BIOCONTAINERS_FOR_POWER_ON
  28++BA91                CallCode power_base_on
  28++BA91 99 61       >    defw zxengine.call_code_me
  28++BA93 A5 BA       >    defw power_base_on
  29++BA95                ShowText Base_energy_on
  29++BA95 81 66       >        dw screenfx.show_info_message_me
  29++BA97 5B 9A       >        dw Base_energy_on
  30++BA99                CallCode Entities.lookChar
  30++BA99 99 61       >    defw zxengine.call_code_me
  30++BA9B 81 68       >    defw Entities.lookChar
  31++BA9D                CallCode binary_play_intro
  31++BA9D 99 61       >    defw zxengine.call_code_me
  31++BA9F 94 AD       >    defw binary_play_intro
  32++BAA1                goto no_way_script
  32++BAA1 A7 61       >    defw zxengine.goto_me
  32++BAA3 F9 B4       >    defw no_way_script
  33++BAA5
  34++BAA5              power_base_on:
  35++BAA5
  36++BAA5 21 13 D4       LD HL, MAP_SET
  37++BAA8 0E 1F          LD C, 31
  38++BAAA              power_base_on_l1:
  39++BAAA 06 1F          LD B, 31
  40++BAAC              power_base_on_l2:
  41++BAAC 23             INC HL
  42++BAAD
  43++BAAD 7E             LD A, (HL)
  44++BAAE
  45++BAAE FE 14          CP ComputerOff.spr
  46++BAB0 CA C4 BA       JP Z,power_monitor_on
  47++BAB3
  48++BAB3 FE 39          CP Analyzer.spr
  49++BAB5 CA CA BA       JP Z,power_analyzer_on
  50++BAB8
  51++BAB8 FE 3B          CP Mentoscanner.spr
  52++BABA CA D0 BA       JP Z,power_mentoscanner_on
  53++BABD
  54++BABD              power_base_on_l2_end:
  55++BABD 10 ED          DJNZ power_base_on_l2
  56++BABF 0D             DEC C
  57++BAC0 C2 AA BA       JP NZ,power_base_on_l1
  58++BAC3 C9             RET
  59++BAC4
  60++BAC4              power_monitor_on:
  61++BAC4 3E 04          LD A, Computer.spr
  62++BAC6 77             LD (HL), A
  63++BAC7 C3 BD BA       JP power_base_on_l2_end
  64++BACA
  65++BACA              power_analyzer_on:
  66++BACA 3E 37          LD A, AnalyzerOn.spr
  67++BACC 77             LD (HL), A
  68++BACD C3 BD BA       JP power_base_on_l2_end
  69++BAD0
  70++BAD0              power_mentoscanner_on:
  71++BAD0 3E 38          LD A, MentoscannerOn.spr
  72++BAD2 77             LD (HL), A
  73++BAD3 C3 BD BA       JP power_base_on_l2_end
  74++BAD6
  75++BAD6                ENDMODULE
  76++BAD6
# file closed: /Users/random/zx-engine/data/cells/nipple.asm
   4++BAD6                  include "acid.asm"
# file opened: /Users/random/zx-engine/data/cells/acid.asm
   1++BAD6
   2++BAD6              Acid.spr: equ 96
   3++BAD6
   4++BAD6                MODULE Acid
   5++BAD6                  SETUP_CELL_TYPE_N Acid_cell_name, script
   5++BAD6             >._temp equ $; запоминаем адрес
   5++BAD6             >    ORG CELL_TYPES+spr*CellType
   5++B01C 4A 9E D6 BA >    CellType Acid_cell_name, script
   5++B020 00          >
   5++B021             >    ORG ._temp
   6++BAD6
   7++BAD6              script:
   8++BAD6                IfVar Vars.var_act, do_stand, stand_
   8++BAD6 1E 62       >	  defw zxengine.if_var_me
   8++BAD8 00          >	  defb Vars.var_act
   8++BAD9 01          >	  defb do_stand
   8++BADA E9 BA       >	  defw stand_
   9++BADC                IfVar Vars.var_act, do_get, get_
   9++BADC 1E 62       >	  defw zxengine.if_var_me
   9++BADE 00          >	  defb Vars.var_act
   9++BADF 02          >	  defb do_get
   9++BAE0 ED BA       >	  defw get_
  10++BAE2                IfVar Vars.var_act, do_drop, drop_
  10++BAE2 1E 62       >	  defw zxengine.if_var_me
  10++BAE4 00          >	  defb Vars.var_act
  10++BAE5 03          >	  defb do_drop
  10++BAE6 F1 BA       >	  defw drop_
  11++BAE8 00             defb _endByte
  12++BAE9
  13++BAE9              stand_:
  14++BAE9                goto no_way_script
  14++BAE9 A7 61       >    defw zxengine.goto_me
  14++BAEB F9 B4       >    defw no_way_script
  15++BAED
  16++BAED              get_:
  17++BAED                goto no_way_script
  17++BAED A7 61       >    defw zxengine.goto_me
  17++BAEF F9 B4       >    defw no_way_script
  18++BAF1
  19++BAF1              drop_:
  20++BAF1                IfVar Vars.var_item_id, CanisterEmpty.spr, fill_
  20++BAF1 1E 62       >	  defw zxengine.if_var_me
  20++BAF3 04          >	  defb Vars.var_item_id
  20++BAF4 1D          >	  defb CanisterEmpty.spr
  20++BAF5 FB BA       >	  defw fill_
  21++BAF7                goto need_look_no_way
  21++BAF7 A7 61       >    defw zxengine.goto_me
  21++BAF9 F5 B4       >    defw need_look_no_way
  22++BAFB
  23++BAFB              fill_:
  24++BAFB                CallCode binary_fill
  24++BAFB 99 61       >    defw zxengine.call_code_me
  24++BAFD 0E BB       >    defw binary_fill
  25++BAFF                shiruFX FX_Pickup
  25++BAFF 5A 65       >    defw beeper.shiru_me
  25++BB01 04          >    defb FX_Pickup
  26++BB02                ShowText Canister_fill
  26++BB02 81 66       >        dw screenfx.show_info_message_me
  26++BB04 AB 9D       >        dw Canister_fill
  27++BB06                SetMapCell CraterSmall.spr ; на земле ставим маленький кратер
  27++BB06 D9 67       >    defw Entities.set_map_cell_me
  27++BB08 41          >    defb CraterSmall.spr
  28++BB09                goto no_way_script
  28++BB09 A7 61       >    defw zxengine.goto_me
  28++BB0B F9 B4       >    defw no_way_script
  29++BB0D 00             defb _endByte
  30++BB0E
  31++BB0E              binary_fill:
  32++BB0E CD 11 6C       CALL items.del_item_from_hand ; убираем пустую канистру
  33++BB11 3E 03          LD A, Canister.item
  34++BB13 CD 2A 6C       CALL items.add_item_to_hand
  35++BB16 C9             RET
  36++BB17                ; JP Entities.action_pickup
  37++BB17
  38++BB17                ENDMODULE
# file closed: /Users/random/zx-engine/data/cells/acid.asm
   5++BB17                  include "airland.asm"
# file opened: /Users/random/zx-engine/data/cells/airland.asm
   1++BB17              ; --- посадочная площадка
   2++BB17              AirLand.spr: equ 37
   3++BB17                MODULE AirLand
   4++BB17                  SETUP_CELL_TYPE_N AirLand_cell_name, Floor.script
   4++BB17             >._temp equ $; запоминаем адрес
   4++BB17             >    ORG CELL_TYPES+spr*CellType
   4++AEF5 23 9E 73 B5 >    CellType AirLand_cell_name, Floor.script
   4++AEF9 00          >
   4++AEFA             >    ORG ._temp
   5++BB17                ENDMODULE
   6++BB17
   7++BB17              NavLight.spr: equ 177
   8++BB17                MODULE NavLight
   9++BB17                  SETUP_CELL_TYPE_N NavLight_cell_name, no_way_script
   9++BB17             >._temp equ $; запоминаем адрес
   9++BB17             >    ORG CELL_TYPES+spr*CellType
   9++B1B1 37 9E F9 B4 >    CellType NavLight_cell_name, no_way_script
   9++B1B5 00          >
   9++B1B6             >    ORG ._temp
  10++BB17                ENDMODULE
  11++BB17
# file closed: /Users/random/zx-engine/data/cells/airland.asm
   6++BB17                  include "pistol.asm"
# file opened: /Users/random/zx-engine/data/cells/pistol.asm
   1++BB17              ; Pistol.spr: equ 22
   2++BB17              ;   MODULE Pistol
   3++BB17              ;     SETUP_CELL_TYPE_N Pistol_cell_name, script
   4++BB17
   5++BB17              ; script:
   6++BB17              ;   IfVar Vars.var_act, do_stand, no_script
   7++BB17              ;   IfVar Vars.var_act, do_get, no_way_script
   8++BB17              ;   IfVar Vars.var_act, do_drop, no_script
   9++BB17              ;   goto no_way_script
  10++BB17
  11++BB17              ;   ENDMODULE
# file closed: /Users/random/zx-engine/data/cells/pistol.asm
   7++BB17                  include "safe.asm"
# file opened: /Users/random/zx-engine/data/cells/safe.asm
   1++BB17              Safe.spr: equ 85
   2++BB17                MODULE Safe
   3++BB17                  SETUP_CELL_TYPE_N Safe_cell_name, script
   3++BB17             >._temp equ $; запоминаем адрес
   3++BB17             >    ORG CELL_TYPES+spr*CellType
   3++AFE5 6E 9E 17 BB >    CellType Safe_cell_name, script
   3++AFE9 00          >
   3++AFEA             >    ORG ._temp
   4++BB17              script:
   5++BB17                IfVar Vars.var_act, do_stand, no_way_script
   5++BB17 1E 62       >	  defw zxengine.if_var_me
   5++BB19 00          >	  defb Vars.var_act
   5++BB1A 01          >	  defb do_stand
   5++BB1B F9 B4       >	  defw no_way_script
   6++BB1D                IfVar Vars.var_act, do_get, no_way_script
   6++BB1D 1E 62       >	  defw zxengine.if_var_me
   6++BB1F 00          >	  defb Vars.var_act
   6++BB20 02          >	  defb do_get
   6++BB21 F9 B4       >	  defw no_way_script
   7++BB23                IfVar Vars.var_act, do_drop, drop_
   7++BB23 1E 62       >	  defw zxengine.if_var_me
   7++BB25 00          >	  defb Vars.var_act
   7++BB26 03          >	  defb do_drop
   7++BB27 2A BB       >	  defw drop_
   8++BB29 00             defb _endByte
   9++BB2A
  10++BB2A              drop_:
  11++BB2A                IfVar Vars.var_item_id, RedCard.spr, add_alert_code
  11++BB2A 1E 62       >	  defw zxengine.if_var_me
  11++BB2C 04          >	  defb Vars.var_item_id
  11++BB2D 69          >	  defb RedCard.spr
  11++BB2E 3F BB       >	  defw add_alert_code
  12++BB30                shiruFX FX_Wall
  12++BB30 5A 65       >    defw beeper.shiru_me
  12++BB32 33          >    defb FX_Wall
  13++BB33                CallScript action_ring_explode
  13++BB33 11 62       >    defw zxengine.call_script_me
  13++BB35 FE B4       >    defw action_ring_explode
  14++BB37                ShowText Safe_try_hit_mess
  14++BB37 81 66       >        dw screenfx.show_info_message_me
  14++BB39 73 9E       >        dw Safe_try_hit_mess
  15++BB3B                goto no_way_script
  15++BB3B A7 61       >    defw zxengine.goto_me
  15++BB3D F9 B4       >    defw no_way_script
  16++BB3F
  17++BB3F              add_alert_code:
  18++BB3F                CallCode items.del_item_from_hand ; удаляем ключ-карту
  18++BB3F 99 61       >    defw zxengine.call_code_me
  18++BB41 11 6C       >    defw items.del_item_from_hand
  19++BB43                SetMapCell SafeEmpty.spr
  19++BB43 D9 67       >    defw Entities.set_map_cell_me
  19++BB45 65          >    defb SafeEmpty.spr
  20++BB46                SetVar Vars.alert_code_found, 1
/Users/random/zx-engine/core/engine.asm(52): error: Label not found: Safe.zxengine.set_Vars.alert_code_found_me
/Users/random/zx-engine/data/cells/safe.asm(20): ^ emitted from here
  20++BB46 00 00       >    defw zxengine.set_Vars.alert_code_found_me
  20++BB48 0A          >    defb Vars.alert_code_found
  20++BB49 01          >    defb 1
  21++BB4A                ShowText FOUND_ALERT_CODE
  21++BB4A 81 66       >        dw screenfx.show_info_message_me
  21++BB4C B6 9B       >        dw FOUND_ALERT_CODE
  22++BB4E                CallCode Entities.lookChar
  22++BB4E 99 61       >    defw zxengine.call_code_me
  22++BB50 81 68       >    defw Entities.lookChar
  23++BB52                CallCode binary_play_intro
  23++BB52 99 61       >    defw zxengine.call_code_me
  23++BB54 94 AD       >    defw binary_play_intro
  24++BB56                goto no_way_script
  24++BB56 A7 61       >    defw zxengine.goto_me
  24++BB58 F9 B4       >    defw no_way_script
  25++BB5A
  26++BB5A                ENDMODULE
  27++BB5A
  28++BB5A              SafeEmpty.spr: equ 101
  29++BB5A                MODULE SafeEmpty
  30++BB5A                  SETUP_CELL_TYPE_N Safe_cell_name, no_way_script
  30++BB5A             >._temp equ $; запоминаем адрес
  30++BB5A             >    ORG CELL_TYPES+spr*CellType
  30++B035 6E 9E F9 B4 >    CellType Safe_cell_name, no_way_script
  30++B039 00          >
  30++B03A             >    ORG ._temp
  31++BB5A                ENDMODULE
# file closed: /Users/random/zx-engine/data/cells/safe.asm
   8++BB5A                  include "analyzer.asm"
# file opened: /Users/random/zx-engine/data/cells/analyzer.asm
   1++BB5A              Analyzer.spr: equ 57
   2++BB5A                MODULE Analyzer
   3++BB5A                  SETUP_CELL_TYPE_N Analyzer_cell_name, no_way_script
   3++BB5A             >._temp equ $; запоминаем адрес
   3++BB5A             >    ORG CELL_TYPES+spr*CellType
   3++AF59 D2 A0 F9 B4 >    CellType Analyzer_cell_name, no_way_script
   3++AF5D 00          >
   3++AF5E             >    ORG ._temp
   4++BB5A                ENDMODULE
   5++BB5A
   6++BB5A              AnalyzerOn.spr: equ 55
   7++BB5A                MODULE AnalyzerOn
   8++BB5A                  SETUP_CELL_TYPE_N Analyzer_cell_name, script
   8++BB5A             >._temp equ $; запоминаем адрес
   8++BB5A             >    ORG CELL_TYPES+spr*CellType
   8++AF4F D2 A0 5A BB >    CellType Analyzer_cell_name, script
   8++AF53 00          >
   8++AF54             >    ORG ._temp
   9++BB5A
  10++BB5A              script:
  11++BB5A                IfVar Vars.var_act, do_stand, no_way_script
  11++BB5A 1E 62       >	  defw zxengine.if_var_me
  11++BB5C 00          >	  defb Vars.var_act
  11++BB5D 01          >	  defb do_stand
  11++BB5E F9 B4       >	  defw no_way_script
  12++BB60                IfVar Vars.var_act, do_get, get_
  12++BB60 1E 62       >	  defw zxengine.if_var_me
  12++BB62 00          >	  defb Vars.var_act
  12++BB63 02          >	  defb do_get
  12++BB64 70 BB       >	  defw get_
  13++BB66                IfVar Vars.var_act, do_drop, no_way_script
  13++BB66 1E 62       >	  defw zxengine.if_var_me
  13++BB68 00          >	  defb Vars.var_act
  13++BB69 03          >	  defb do_drop
  13++BB6A F9 B4       >	  defw no_way_script
  14++BB6C                goto no_way_script
  14++BB6C A7 61       >    defw zxengine.goto_me
  14++BB6E F9 B4       >    defw no_way_script
  15++BB70
  16++BB70              get_:
  17++BB70
  18++BB70                SetVar Vars.var_ret, 0
/Users/random/zx-engine/core/engine.asm(52): error: Label not found: AnalyzerOn.zxengine.set_Vars.var_ret_me
/Users/random/zx-engine/data/cells/analyzer.asm(18): ^ emitted from here
  18++BB70 00 00       >    defw zxengine.set_Vars.var_ret_me
  18++BB72 01          >    defb Vars.var_ret
  18++BB73 00          >    defb 0
  19++BB74                ScanPosTable scan_table
  19++BB74 BF 61       >    defw zxengine.scan_pos_table_me
  19++BB76 7C BB       >    defw scan_table
  20++BB78                ; IfVar Vars.var_ret, 1, no_way_script
  21++BB78                goto no_way_script
  21++BB78 A7 61       >    defw zxengine.goto_me
  21++BB7A F9 B4       >    defw no_way_script
  22++BB7C
  23++BB7C              scan_table:
  24++BB7C
  25++BB7C 1C 06          defb 28,6
  26++BB7E 91 BB          defw show_name1
  27++BB80 1C 08          defb 28,8
  28++BB82 9A BB          defw show_name2
  29++BB84 1C 0A          defb 28,10
  30++BB86 A3 BB          defw show_name3
  31++BB88 1C 0C          defb 28,12
  32++BB8A AC BB          defw show_name4
  33++BB8C 1C 0E          defb 28,14
  34++BB8E B5 BB          defw show_name5
  35++BB90
  36++BB90 00             defb _endByte
  37++BB91
  38++BB91              show_name1:
  39++BB91                ShowText player_name1
  39++BB91 81 66       >        dw screenfx.show_info_message_me
  39++BB93 AE 9C       >        dw player_name1
  40++BB95                SetVar Vars.var_ret, 1
/Users/random/zx-engine/core/engine.asm(52): error: Label not found: AnalyzerOn.zxengine.set_Vars.var_ret_me
/Users/random/zx-engine/data/cells/analyzer.asm(40): ^ emitted from here
  40++BB95 00 00       >    defw zxengine.set_Vars.var_ret_me
  40++BB97 01          >    defb Vars.var_ret
  40++BB98 01          >    defb 1
  41++BB99 00             defb _endByte
  42++BB9A
  43++BB9A              show_name2:
  44++BB9A                ShowText player_name2
  44++BB9A 81 66       >        dw screenfx.show_info_message_me
  44++BB9C C2 9C       >        dw player_name2
  45++BB9E                SetVar Vars.var_ret, 1
/Users/random/zx-engine/core/engine.asm(52): error: Label not found: AnalyzerOn.zxengine.set_Vars.var_ret_me
/Users/random/zx-engine/data/cells/analyzer.asm(45): ^ emitted from here
  45++BB9E 00 00       >    defw zxengine.set_Vars.var_ret_me
  45++BBA0 01          >    defb Vars.var_ret
  45++BBA1 01          >    defb 1
  46++BBA2 00             defb _endByte
  47++BBA3
  48++BBA3              show_name3:
  49++BBA3                ShowText player_name3
  49++BBA3 81 66       >        dw screenfx.show_info_message_me
  49++BBA5 D6 9C       >        dw player_name3
  50++BBA7                SetVar Vars.var_ret, 1
/Users/random/zx-engine/core/engine.asm(52): error: Label not found: AnalyzerOn.zxengine.set_Vars.var_ret_me
/Users/random/zx-engine/data/cells/analyzer.asm(50): ^ emitted from here
  50++BBA7 00 00       >    defw zxengine.set_Vars.var_ret_me
  50++BBA9 01          >    defb Vars.var_ret
  50++BBAA 01          >    defb 1
  51++BBAB 00             defb _endByte
  52++BBAC
  53++BBAC              show_name4:
  54++BBAC                ShowText player_name4
  54++BBAC 81 66       >        dw screenfx.show_info_message_me
  54++BBAE EB 9C       >        dw player_name4
  55++BBB0                SetVar Vars.var_ret, 1
/Users/random/zx-engine/core/engine.asm(52): error: Label not found: AnalyzerOn.zxengine.set_Vars.var_ret_me
/Users/random/zx-engine/data/cells/analyzer.asm(55): ^ emitted from here
  55++BBB0 00 00       >    defw zxengine.set_Vars.var_ret_me
  55++BBB2 01          >    defb Vars.var_ret
  55++BBB3 01          >    defb 1
  56++BBB4 00             defb _endByte
  57++BBB5
  58++BBB5              show_name5:
  59++BBB5                ShowText player_name5
  59++BBB5 81 66       >        dw screenfx.show_info_message_me
  59++BBB7 FE 9C       >        dw player_name5
  60++BBB9                SetVar Vars.var_ret, 1
/Users/random/zx-engine/core/engine.asm(52): error: Label not found: AnalyzerOn.zxengine.set_Vars.var_ret_me
/Users/random/zx-engine/data/cells/analyzer.asm(60): ^ emitted from here
  60++BBB9 00 00       >    defw zxengine.set_Vars.var_ret_me
  60++BBBB 01          >    defb Vars.var_ret
  60++BBBC 01          >    defb 1
  61++BBBD 00             defb _endByte
  62++BBBE
  63++BBBE                ENDMODULE
  64++BBBE
  65++BBBE              ; Евтимов Димчо
  66++BBBE              ; Терзиев Недялко
  67++BBBE              ; Господинов Илия
  68++BBBE              ; Георгиев Васил
# file closed: /Users/random/zx-engine/data/cells/analyzer.asm
   9++BBBE                  include "generator.asm"
# file opened: /Users/random/zx-engine/data/cells/generator.asm
   1++BBBE
   2++BBBE              ; Ballon.spr: equ 5
   3++BBBE              ;   MODULE Ballon
   4++BBBE              ;     SETUP_CELL_TYPE_N Ballon_cell_name, no_way_script
   5++BBBE              ;   ENDMODULE
   6++BBBE
   7++BBBE              Generator.spr: equ 73
   8++BBBE                MODULE Generator
   9++BBBE                  SETUP_CELL_TYPE_N Generator_cell_name, no_way_script
   9++BBBE             >._temp equ $; запоминаем адрес
   9++BBBE             >    ORG CELL_TYPES+spr*CellType
   9++AFA9 10 9F F9 B4 >    CellType Generator_cell_name, no_way_script
   9++AFAD 00          >
   9++AFAE             >    ORG ._temp
  10++BBBE                ENDMODULE
  11++BBBE
# file closed: /Users/random/zx-engine/data/cells/generator.asm
  10++BBBE                  include "scaf.asm"
# file opened: /Users/random/zx-engine/data/cells/scaf.asm
   1++BBBE
   2++BBBE              Scaf.spr: equ 128
   3++BBBE
   4++BBBE                MODULE Scaf
   5++BBBE
   6++BBBE                  SETUP_CELL_TYPE_N Scaf_cell_name, script_
   6++BBBE             >._temp equ $; запоминаем адрес
   6++BBBE             >    ORG CELL_TYPES+spr*CellType
   6++B0BC 4D A1 BE BB >    CellType Scaf_cell_name, script_
   6++B0C0 00          >
   6++B0C1             >    ORG ._temp
   7++BBBE
   8++BBBE              script_:
   9++BBBE
  10++BBBE                IfVar Vars.var_act, do_get, get_
  10++BBBE 1E 62       >	  defw zxengine.if_var_me
  10++BBC0 00          >	  defb Vars.var_act
  10++BBC1 02          >	  defb do_get
  10++BBC2 C8 BB       >	  defw get_
  11++BBC4                ; IfVar Vars.var_act, do_drop, no_way_script
  12++BBC4                goto no_way_script
  12++BBC4 A7 61       >    defw zxengine.goto_me
  12++BBC6 F9 B4       >    defw no_way_script
  13++BBC8
  14++BBC8              get_:
  15++BBC8                SetVar Vars.var_ret, 0
/Users/random/zx-engine/core/engine.asm(52): error: Label not found: Scaf.zxengine.set_Vars.var_ret_me
/Users/random/zx-engine/data/cells/scaf.asm(15): ^ emitted from here
  15++BBC8 00 00       >    defw zxengine.set_Vars.var_ret_me
  15++BBCA 01          >    defb Vars.var_ret
  15++BBCB 00          >    defb 0
  16++BBCC                CallCode binary_check_scaf
  16++BBCC 99 61       >    defw zxengine.call_code_me
  16++BBCE FD BB       >    defw binary_check_scaf
  17++BBD0                IfVar Vars.var_ret, 0, no_way_script
  17++BBD0 1E 62       >	  defw zxengine.if_var_me
  17++BBD2 01          >	  defb Vars.var_ret
  17++BBD3 00          >	  defb 0
  17++BBD4 F9 B4       >	  defw no_way_script
  18++BBD6
  19++BBD6              wear_scaf:
  20++BBD6                CallCode binary_wear_scaf
  20++BBD6 99 61       >    defw zxengine.call_code_me
  20++BBD8 E6 BB       >    defw binary_wear_scaf
  21++BBDA                goto no_way_script
  21++BBDA A7 61       >    defw zxengine.goto_me
  21++BBDC F9 B4       >    defw no_way_script
  22++BBDE
  23++BBDE              unwear_scaf:
  24++BBDE                CallCode binary_unwear_scaf ;  мы можем одеть два вида скафаднра приходится делать универсальную процедуру
  24++BBDE 99 61       >    defw zxengine.call_code_me
  24++BBE0 F0 BB       >    defw binary_unwear_scaf
  25++BBE2                goto no_way_script
  25++BBE2 A7 61       >    defw zxengine.goto_me
  25++BBE4 F9 B4       >    defw no_way_script
  26++BBE6
  27++BBE6              binary_wear_scaf:
  28++BBE6 2A 89 67       LD HL, (Entities.MapCell_ptr)
  29++BBE9 7E             LD A, (HL)
  30++BBEA 47             LD B, A
  31++BBEB 0E BE          LD C, ScafPlace.spr
  32++BBED C3 AF 67       JP Entities.wear_item
  33++BBF0
  34++BBF0              binary_unwear_scaf:
  35++BBF0 DD 2A 86 67    LD IX, (Entities.activePersonage_ptr)
  36++BBF4 DD 7E 04       LD A, ( IX+Hero.base_spr ) ; запомнили одежду
  37++BBF7 4F             LD C, A
  38++BBF8 06 A0          LD B, Hero09.spr
  39++BBFA C3 AF 67       JP Entities.wear_item
  40++BBFD                ; RET
  41++BBFD
  42++BBFD              binary_check_scaf: ; Vars.var_ret = 1 - скафандра нет
  43++BBFD DD 2A 86 67    LD IX, (Entities.activePersonage_ptr)
  44++BC01 3E 80          LD A, Scaf.spr
  45++BC03 DD BE 04       CP ( IX+Hero.base_spr )
  46++BC06 C8             RET Z
  47++BC07 3E 90          LD A, HardScaf.spr
  48++BC09 DD BE 04       CP ( IX+Hero.base_spr)
  49++BC0C C8             RET Z
  50++BC0D 3E 01          LD A, 1
  51++BC0F                setVar Vars.var_ret
  51++BC0F 32 04 60    >    LD ( zxengine.varsTab + Vars.var_ret ), A
  52++BC12 C9             RET
  53++BC13
  54++BC13                ENDMODULE
  55++BC13
  56++BC13              HardScaf.spr: equ 144
  57++BC13
  58++BC13                MODULE HardScaf
  59++BC13
  60++BC13                  SETUP_CELL_TYPE_N HardScaf_cell_name, Scaf.script_
  60++BC13             >._temp equ $; запоминаем адрес
  60++BC13             >    ORG CELL_TYPES+spr*CellType
  60++B10C 5D A1 BE BB >    CellType HardScaf_cell_name, Scaf.script_
  60++B110 00          >
  60++B111             >    ORG ._temp
  61++BC13
  62++BC13                ENDMODULE
  63++BC13
  64++BC13                ; DISPLAY "binary_wear_scaf ", Scaf.binary_wear_scaf
  65++BC13                ; DISPLAY "MAP_SET", MAP_SET
  66++BC13                ; DISPLAY "MapCell_xy", Vars.MapCell_xy
  67++BC13                ; DISPLAY "zxengine.varsTab", zxengine.varsTab
  68++BC13                ; DISPLAY "zxengine.varsTab+Vars.var_item_id", zxengine.varsTab+Vars.var_item_id
  69++BC13
# file closed: /Users/random/zx-engine/data/cells/scaf.asm
  11++BC13                  include "crater.asm"
# file opened: /Users/random/zx-engine/data/cells/crater.asm
   1++BC13              ; --- вмятина на земле
   2++BC13              CraterSmall.spr: equ 65
   3++BC13                MODULE CraterSmall
   4++BC13                  SETUP_CELL_TYPE_N CraterSmall_cell_name, Floor.script
   4++BC13             >._temp equ $; запоминаем адрес
   4++BC13             >    ORG CELL_TYPES+spr*CellType
   4++AF81 12 9E 73 B5 >    CellType CraterSmall_cell_name, Floor.script
   4++AF85 00          >
   4++AF86             >    ORG ._temp
   5++BC13
   6++BC13              ; script:
   7++BC13              ;     IfVarN Vars.var_act, do_stand, Floor.script
   8++BC13              ;     IfVarN Vars.var_pos_y, 31, Floor.script
   9++BC13              ;     IfVarN Vars.var_pos_x, 31, Floor.script
  10++BC13              ; ; тут только в случае если встаем на ячейку 31,31
  11++BC13              ;     GetWearItem
  12++BC13              ;     IfVar Vars.var_ret, HardScaf.spr, happy_end_game
  13++BC13              ;     ShowText Not_away_from_base
  14++BC13              ;     shiruFX FX_Nope
  15++BC13              ;     CallCode input.noKey
  16++BC13              ;     CallCode input.waitKey
  17++BC13              ;     goto no_way_script
  18++BC13
  19++BC13              ; happy_end_game:
  20++BC13              ;     SetVar Vars.game_over, 4
  21++BC13              ;     goto no_way_script
  22++BC13              ;     ; goto no_script
  23++BC13
  24++BC13                ENDMODULE
  25++BC13
# file closed: /Users/random/zx-engine/data/cells/crater.asm
  12++BC13                  include "sand.asm"
# file opened: /Users/random/zx-engine/data/cells/sand.asm
   1++BC13              ; --- песок
   2++BC13              Sand.spr: equ 80
   3++BC13                MODULE Sand
   4++BC13                  SETUP_CELL_TYPE_N Sand_cell_name, script
   4++BC13             >._temp equ $; запоминаем адрес
   4++BC13             >    ORG CELL_TYPES+spr*CellType
   4++AFCC 0C 9E 13 BC >    CellType Sand_cell_name, script
   4++AFD0 00          >
   4++AFD1             >    ORG ._temp
   5++BC13
   6++BC13              script:
   7++BC13                  IfVarN Vars.var_act, do_stand, Floor.script
   7++BC13 2D 62       >	  defw zxengine.if_var_not_me
   7++BC15 00          >	  defb Vars.var_act
   7++BC16 01          >	  defb do_stand
   7++BC17 73 B5       >	  defw Floor.script
   8++BC19                  ; проверяем есть ли скафандр
   9++BC19                  GetWearItem
   9++BC19 CA 67       >    defw Entities.get_wear_item_me
  10++BC1B                  IfVar Vars.var_ret, Scaf.spr, script_next
  10++BC1B 1E 62       >	  defw zxengine.if_var_me
  10++BC1D 01          >	  defb Vars.var_ret
  10++BC1E 80          >	  defb Scaf.spr
  10++BC1F 2F BC       >	  defw script_next
  11++BC21                  IfVar Vars.var_ret, HardScaf.spr, script_next
  11++BC21 1E 62       >	  defw zxengine.if_var_me
  11++BC23 01          >	  defb Vars.var_ret
  11++BC24 90          >	  defb HardScaf.spr
  11++BC25 2F BC       >	  defw script_next
  12++BC27                  ; если скафандра нет - хеппи-энд!
  13++BC27                  SetVar Vars.game_over, 5
/Users/random/zx-engine/core/engine.asm(52): error: Label not found: Sand.zxengine.set_Vars.game_over_me
/Users/random/zx-engine/data/cells/sand.asm(13): ^ emitted from here
  13++BC27 00 00       >    defw zxengine.set_Vars.game_over_me
  13++BC29 05          >    defb Vars.game_over
  13++BC2A 05          >    defb 5
  14++BC2B                  goto no_way_script
  14++BC2B A7 61       >    defw zxengine.goto_me
  14++BC2D F9 B4       >    defw no_way_script
  15++BC2F
  16++BC2F              script_next:
  17++BC2F              ; проверяем что встали на позицию 31,31
  18++BC2F                  IfVarN Vars.var_pos_y, 31, Floor.script
  18++BC2F 2D 62       >	  defw zxengine.if_var_not_me
  18++BC31 02          >	  defb Vars.var_pos_y
  18++BC32 1F          >	  defb 31
  18++BC33 73 B5       >	  defw Floor.script
  19++BC35                  IfVarN Vars.var_pos_x, 31, Floor.script
  19++BC35 2D 62       >	  defw zxengine.if_var_not_me
  19++BC37 03          >	  defb Vars.var_pos_x
  19++BC38 1F          >	  defb 31
  19++BC39 73 B5       >	  defw Floor.script
  20++BC3B              ; тут только в случае если встаем на ячейку 31,31
  21++BC3B                  GetWearItem
  21++BC3B CA 67       >    defw Entities.get_wear_item_me
  22++BC3D                  IfVar Vars.var_ret, HardScaf.spr, happy_end_game
  22++BC3D 1E 62       >	  defw zxengine.if_var_me
  22++BC3F 01          >	  defb Vars.var_ret
  22++BC40 90          >	  defb HardScaf.spr
  22++BC41 56 BC       >	  defw happy_end_game
  23++BC43                  ShowText Not_away_from_base
  23++BC43 81 66       >        dw screenfx.show_info_message_me
  23++BC45 F8 A1       >        dw Not_away_from_base
  24++BC47                  shiruFX FX_Nope
  24++BC47 5A 65       >    defw beeper.shiru_me
  24++BC49 35          >    defb FX_Nope
  25++BC4A                  CallCode input.noKey
  25++BC4A 99 61       >    defw zxengine.call_code_me
  25++BC4C E6 64       >    defw input.noKey
  26++BC4E                  CallCode input.waitKey
  26++BC4E 99 61       >    defw zxengine.call_code_me
  26++BC50 DD 64       >    defw input.waitKey
  27++BC52                  goto no_way_script
  27++BC52 A7 61       >    defw zxengine.goto_me
  27++BC54 F9 B4       >    defw no_way_script
  28++BC56
  29++BC56              happy_end_game:
  30++BC56                  SetVar Vars.game_over, 4
/Users/random/zx-engine/core/engine.asm(52): error: Label not found: Sand.zxengine.set_Vars.game_over_me
/Users/random/zx-engine/data/cells/sand.asm(30): ^ emitted from here
  30++BC56 00 00       >    defw zxengine.set_Vars.game_over_me
  30++BC58 05          >    defb Vars.game_over
  30++BC59 04          >    defb 4
  31++BC5A                  goto no_way_script
  31++BC5A A7 61       >    defw zxengine.goto_me
  31++BC5C F9 B4       >    defw no_way_script
  32++BC5E                  ; goto no_script
  33++BC5E
  34++BC5E
  35++BC5E                ENDMODULE
  36++BC5E
# file closed: /Users/random/zx-engine/data/cells/sand.asm
  13++BC5E                  include "blood.asm"
# file opened: /Users/random/zx-engine/data/cells/blood.asm
   1++BC5E              Blood.spr: equ 97
   2++BC5E                MODULE Blood
   3++BC5E                  SETUP_CELL_TYPE_N Blood_cell_name, script
   3++BC5E             >._temp equ $; запоминаем адрес
   3++BC5E             >    ORG CELL_TYPES+spr*CellType
   3++B021 BC A0 5E BC >    CellType Blood_cell_name, script
   3++B025 00          >
   3++B026             >    ORG ._temp
   4++BC5E
   5++BC5E              script:
   6++BC5E                  IfVar Vars.var_act, do_drop, drop_
   6++BC5E 1E 62       >	  defw zxengine.if_var_me
   6++BC60 00          >	  defb Vars.var_act
   6++BC61 03          >	  defb do_drop
   6++BC62 68 BC       >	  defw drop_
   7++BC64                  goto Floor.script
   7++BC64 A7 61       >    defw zxengine.goto_me
   7++BC66 73 B5       >    defw Floor.script
   8++BC68
   9++BC68              drop_:
  10++BC68                IfVar Vars.var_item_id, CanisterEmpty.spr, fill_
  10++BC68 1E 62       >	  defw zxengine.if_var_me
  10++BC6A 04          >	  defb Vars.var_item_id
  10++BC6B 1D          >	  defb CanisterEmpty.spr
  10++BC6C 72 BC       >	  defw fill_
  11++BC6E                goto need_look_no_way
  11++BC6E A7 61       >    defw zxengine.goto_me
  11++BC70 F5 B4       >    defw need_look_no_way
  12++BC72
  13++BC72              fill_:
  14++BC72                CallCode binary_fill
  14++BC72 99 61       >    defw zxengine.call_code_me
  14++BC74 84 BC       >    defw binary_fill
  15++BC76                shiruFX FX_Pickup
  15++BC76 5A 65       >    defw beeper.shiru_me
  15++BC78 04          >    defb FX_Pickup
  16++BC79                SetMapCell CraterSmall.spr ; на земле ставим маленький кратер
  16++BC79 D9 67       >    defw Entities.set_map_cell_me
  16++BC7B 41          >    defb CraterSmall.spr
  17++BC7C                ShowText Canister_fill
  17++BC7C 81 66       >        dw screenfx.show_info_message_me
  17++BC7E AB 9D       >        dw Canister_fill
  18++BC80                goto no_way_script
  18++BC80 A7 61       >    defw zxengine.goto_me
  18++BC82 F9 B4       >    defw no_way_script
  19++BC84
  20++BC84              binary_fill:
  21++BC84 CD 11 6C       CALL items.del_item_from_hand ; убираем пустую канистру
  22++BC87 3E 07          LD A, CanisterRed.item
  23++BC89 CD 2A 6C       CALL items.add_item_to_hand
  24++BC8C C9             RET
  25++BC8D
  26++BC8D                ENDMODULE
  27++BC8D
# file closed: /Users/random/zx-engine/data/cells/blood.asm
  14++BC8D
  15++BC8D                  include "items/0_shard.asm"
# file opened: /Users/random/zx-engine/data/cells/items/0_shard.asm
   1++BC8D
   2++BC8D              Shard.item: equ 0
   3++BC8D              Shard.spr: equ #34
   4++BC8D
   5++BC8D                MODULE Shard
   6++BC8D
   7++BC8D                SETUP_CELL_TYPE_N Shard_item_name, script
   7++BC8D             >._temp equ $; запоминаем адрес
   7++BC8D             >    ORG CELL_TYPES+spr*CellType
   7++AF40 8E 9C 8D BC >    CellType Shard_item_name, script
   7++AF44 00          >
   7++AF45             >    ORG ._temp
   8++BC8D                SETUP_ITEM_TYPE_N
   8++BC8D             >._temp equ $; запоминаем адрес
   8++BC8D             >    ORG ITEM_TYPES+item*ItemType
   8++B33C 34 00 0A 00 >    ItemType spr, 0, 10
   8++B340             >    ORG ._temp
   9++BC8D
  10++BC8D              script:
  11++BC8D                IfVar Vars.var_act, do_get, take_
  11++BC8D 1E 62       >	  defw zxengine.if_var_me
  11++BC8F 00          >	  defb Vars.var_act
  11++BC90 02          >	  defb do_get
  11++BC91 9A BC       >	  defw take_
  12++BC93                IfVar Vars.var_act, do_drop, no_way_script
  12++BC93 1E 62       >	  defw zxengine.if_var_me
  12++BC95 00          >	  defb Vars.var_act
  12++BC96 03          >	  defb do_drop
  12++BC97 F9 B4       >	  defw no_way_script
  13++BC99 00             defb _endByte
  14++BC9A              take_:
  15++BC9A                ; ShowText Take_shard_mess
  16++BC9A 00             defb _endByte
  17++BC9B              ; drop_: ; дропаем что-то из рук на эту ячейку =)
  18++BC9B                ; goto no_way_script
  19++BC9B                ; IfVar Vars.var_item_id, Shard.spr, no_way_script
  20++BC9B                ; IfVar Vars.var_item_id, Chair.spr, base_kick_shard_fault
  21++BC9B                ; IfVar Vars.var_item_id, Nippers.spr, base_kick_shard_fault
  22++BC9B                ; IfVar Vars.var_item_id, CanisterEmpty.spr, base_kick_shard_fault
  23++BC9B                ; IfVar Vars.var_item_id, Scaf.spr, base_kick_shard_fault
  24++BC9B                ; IfVar Vars.var_item_id, Wrench.spr, base_kick_shard_fault
  25++BC9B                ; defb _endByte
  26++BC9B
  27++BC9B                ENDMODULE
  28++BC9B
# file closed: /Users/random/zx-engine/data/cells/items/0_shard.asm
  16++BC9B                  include "items/1_chair.asm"
# file opened: /Users/random/zx-engine/data/cells/items/1_chair.asm
   1++BC9B
   2++BC9B              Chair.item: equ 1
   3++BC9B              Chair.spr: equ #33
   4++BC9B
   5++BC9B                MODULE Chair
   6++BC9B                  SETUP_CELL_TYPE_N Chair_item_name, script
   6++BC9B             >._temp equ $; запоминаем адрес
   6++BC9B             >    ORG CELL_TYPES+spr*CellType
   6++AF3B A9 9C 9B BC >    CellType Chair_item_name, script
   6++AF3F 00          >
   6++AF40             >    ORG ._temp
   7++BC9B                  SETUP_ITEM_TYPE_N
   7++BC9B             >._temp equ $; запоминаем адрес
   7++BC9B             >    ORG ITEM_TYPES+item*ItemType
   7++B340 33 00 0A 00 >    ItemType spr, 0, 10
   7++B344             >    ORG ._temp
   8++BC9B
   9++BC9B              script:
  10++BC9B                IfVar Vars.var_act, do_stand, no_script
  10++BC9B 1E 62       >	  defw zxengine.if_var_me
  10++BC9D 00          >	  defb Vars.var_act
  10++BC9E 01          >	  defb do_stand
  10++BC9F FD B4       >	  defw no_script
  11++BCA1                IfVar Vars.var_act, do_get, take_
  11++BCA1 1E 62       >	  defw zxengine.if_var_me
  11++BCA3 00          >	  defb Vars.var_act
  11++BCA4 02          >	  defb do_get
  11++BCA5 B1 BC       >	  defw take_
  12++BCA7                IfVar Vars.var_act, do_drop, drop_
  12++BCA7 1E 62       >	  defw zxengine.if_var_me
  12++BCA9 00          >	  defb Vars.var_act
  12++BCAA 03          >	  defb do_drop
  12++BCAB B2 BC       >	  defw drop_
  13++BCAD                goto no_way_script
  13++BCAD A7 61       >    defw zxengine.goto_me
  13++BCAF F9 B4       >    defw no_way_script
  14++BCB1              take_:
  15++BCB1                ; ShowText Take_chair_mess
  16++BCB1 00             defb _endByte
  17++BCB2              drop_:
  18++BCB2                IfVar Vars.var_item_id, Nippers.spr, destroy_
  18++BCB2 1E 62       >	  defw zxengine.if_var_me
  18++BCB4 04          >	  defb Vars.var_item_id
  18++BCB5 3C          >	  defb Nippers.spr
  18++BCB6 C2 BC       >	  defw destroy_
  19++BCB8                IfVar Vars.var_item_id, Wrench.spr, destroy_
  19++BCB8 1E 62       >	  defw zxengine.if_var_me
  19++BCBA 04          >	  defb Vars.var_item_id
  19++BCBB 3D          >	  defb Wrench.spr
  19++BCBC C2 BC       >	  defw destroy_
  20++BCBE                goto need_look_no_way
  20++BCBE A7 61       >    defw zxengine.goto_me
  20++BCC0 F5 B4       >    defw need_look_no_way
  21++BCC2
  22++BCC2              destroy_:
  23++BCC2                CallCode items.self_destroy_item
  23++BCC2 99 61       >    defw zxengine.call_code_me
  23++BCC4 4A 6C       >    defw items.self_destroy_item
  24++BCC6                shiruFX FX_Wall
  24++BCC6 5A 65       >    defw beeper.shiru_me
  24++BCC8 33          >    defb FX_Wall
  25++BCC9                CallScript action_ring_explode
  25++BCC9 11 62       >    defw zxengine.call_script_me
  25++BCCB FE B4       >    defw action_ring_explode
  26++BCCD                SetMapCell Trash.spr
  26++BCCD D9 67       >    defw Entities.set_map_cell_me
  26++BCCF 32          >    defb Trash.spr
  27++BCD0                goto need_look_no_way
  27++BCD0 A7 61       >    defw zxengine.goto_me
  27++BCD2 F5 B4       >    defw need_look_no_way
  28++BCD4                ENDMODULE
  29++BCD4
  30++BCD4              ChairWhite.spr: equ 83
  31++BCD4                MODULE ChairWhite
  32++BCD4                  SETUP_CELL_TYPE_N Chair_item_name, Chair.script
  32++BCD4             >._temp equ $; запоминаем адрес
  32++BCD4             >    ORG CELL_TYPES+spr*CellType
  32++AFDB A9 9C 9B BC >    CellType Chair_item_name, Chair.script
  32++AFDF 00          >
  32++AFE0             >    ORG ._temp
  33++BCD4                ENDMODULE
  34++BCD4
# file closed: /Users/random/zx-engine/data/cells/items/1_chair.asm
  17++BCD4                  include "items/2_nippers.asm"
# file opened: /Users/random/zx-engine/data/cells/items/2_nippers.asm
   1++BCD4
   2++BCD4              Nippers.item: equ 2
   3++BCD4              Nippers.spr: equ 60
   4++BCD4
   5++BCD4                MODULE Nippers
   6++BCD4
   7++BCD4                SETUP_CELL_TYPE_N Nippers_item_name, script
   7++BCD4             >._temp equ $; запоминаем адрес
   7++BCD4             >    ORG CELL_TYPES+spr*CellType
   7++AF68 01 A1 D4 BC >    CellType Nippers_item_name, script
   7++AF6C 00          >
   7++AF6D             >    ORG ._temp
   8++BCD4                SETUP_ITEM_TYPE_N
   8++BCD4             >._temp equ $; запоминаем адрес
   8++BCD4             >    ORG ITEM_TYPES+item*ItemType
   8++B344 3C 00 0A 00 >    ItemType spr, 0, 10
   8++B348             >    ORG ._temp
   9++BCD4
  10++BCD4              script:
  11++BCD4                IfVar Vars.var_act, do_stand, no_script
  11++BCD4 1E 62       >	  defw zxengine.if_var_me
  11++BCD6 00          >	  defb Vars.var_act
  11++BCD7 01          >	  defb do_stand
  11++BCD8 FD B4       >	  defw no_script
  12++BCDA                IfVar Vars.var_act, do_get, take_
  12++BCDA 1E 62       >	  defw zxengine.if_var_me
  12++BCDC 00          >	  defb Vars.var_act
  12++BCDD 02          >	  defb do_get
  12++BCDE EB BC       >	  defw take_
  13++BCE0                IfVar Vars.var_act, do_drop, drop_
  13++BCE0 1E 62       >	  defw zxengine.if_var_me
  13++BCE2 00          >	  defb Vars.var_act
  13++BCE3 03          >	  defb do_drop
  13++BCE4 E7 BC       >	  defw drop_
  14++BCE6 00             defb _endByte
  15++BCE7
  16++BCE7              drop_:
  17++BCE7                goto no_way_script
  17++BCE7 A7 61       >    defw zxengine.goto_me
  17++BCE9 F9 B4       >    defw no_way_script
  18++BCEB
  19++BCEB              take_:
  20++BCEB              ;   ShowText Take_nippers_mess
  21++BCEB 00             defb _endByte
  22++BCEC
  23++BCEC                ENDMODULE
  24++BCEC
# file closed: /Users/random/zx-engine/data/cells/items/2_nippers.asm
  18++BCEC                  include "items/3_7_canister.asm"
# file opened: /Users/random/zx-engine/data/cells/items/3_7_canister.asm
   1++BCEC              Canister.item: equ 3
   2++BCEC              Canister.spr: equ 7
   3++BCEC
   4++BCEC                MODULE Canister
   5++BCEC
   6++BCEC                  SETUP_CELL_TYPE_N Canister_cell_name, script
   6++BCEC             >._temp equ $; запоминаем адрес
   6++BCEC             >    ORG CELL_TYPES+spr*CellType
   6++AE5F D2 9E EC BC >    CellType Canister_cell_name, script
   6++AE63 00          >
   6++AE64             >    ORG ._temp
   7++BCEC                  SETUP_ITEM_TYPE_N
   7++BCEC             >._temp equ $; запоминаем адрес
   7++BCEC             >    ORG ITEM_TYPES+item*ItemType
   7++B348 07 00 0A 00 >    ItemType spr, 0, 10
   7++B34C             >    ORG ._temp
   8++BCEC
   9++BCEC              script:
  10++BCEC                IfVar Vars.var_act, do_stand, no_way_script
  10++BCEC 1E 62       >	  defw zxengine.if_var_me
  10++BCEE 00          >	  defb Vars.var_act
  10++BCEF 01          >	  defb do_stand
  10++BCF0 F9 B4       >	  defw no_way_script
  11++BCF2                IfVar Vars.var_act, do_get, take_
  11++BCF2 1E 62       >	  defw zxengine.if_var_me
  11++BCF4 00          >	  defb Vars.var_act
  11++BCF5 02          >	  defb do_get
  11++BCF6 FF BC       >	  defw take_
  12++BCF8                IfVar Vars.var_act, do_drop, drop_
  12++BCF8 1E 62       >	  defw zxengine.if_var_me
  12++BCFA 00          >	  defb Vars.var_act
  12++BCFB 03          >	  defb do_drop
  12++BCFC 00 BD       >	  defw drop_
  13++BCFE 00             defb _endByte
  14++BCFF              take_:
  15++BCFF                ; goto no_script
  16++BCFF 00             defb _endByte
  17++BD00              drop_:
  18++BD00                goto no_way_script
  18++BD00 A7 61       >    defw zxengine.goto_me
  18++BD02 F9 B4       >    defw no_way_script
  19++BD04
  20++BD04                ENDMODULE
  21++BD04
  22++BD04              CanisterPowered.spr: equ 114
  23++BD04                MODULE CanisterPowered
  24++BD04                  SETUP_CELL_TYPE_N CanisterPowered_cell_name, no_way_script
  24++BD04             >._temp equ $; запоминаем адрес
  24++BD04             >    ORG CELL_TYPES+spr*CellType
  24++B076 FA 9E F9 B4 >    CellType CanisterPowered_cell_name, no_way_script
  24++B07A 00          >
  24++B07B             >    ORG ._temp
  25++BD04                ENDMODULE
  26++BD04
  27++BD04              CanisterRed.item: equ 7
  28++BD04              CanisterRed.spr: equ 113
  29++BD04
  30++BD04                MODULE CanisterRed
  31++BD04
  32++BD04                  SETUP_CELL_TYPE_N Canister_cell_name, Canister.script
  32++BD04             >._temp equ $; запоминаем адрес
  32++BD04             >    ORG CELL_TYPES+spr*CellType
  32++B071 D2 9E EC BC >    CellType Canister_cell_name, Canister.script
  32++B075 00          >
  32++B076             >    ORG ._temp
  33++BD04                  SETUP_ITEM_TYPE_N
  33++BD04             >._temp equ $; запоминаем адрес
  33++BD04             >    ORG ITEM_TYPES+item*ItemType
  33++B358 71 00 0A 00 >    ItemType spr, 0, 10
  33++B35C             >    ORG ._temp
  34++BD04
  35++BD04                ENDMODULE
# file closed: /Users/random/zx-engine/data/cells/items/3_7_canister.asm
  19++BD04                  include "items/4_canister_empty.asm"
# file opened: /Users/random/zx-engine/data/cells/items/4_canister_empty.asm
   1++BD04              CanisterEmpty.item: equ 4
   2++BD04              CanisterEmpty.spr: equ 29
   3++BD04
   4++BD04                MODULE CanisterEmpty
   5++BD04
   6++BD04                  SETUP_CELL_TYPE_N CanisterEmpty_cell_name, script
   6++BD04             >._temp equ $; запоминаем адрес
   6++BD04             >    ORG CELL_TYPES+spr*CellType
   6++AECD E6 9E 04 BD >    CellType CanisterEmpty_cell_name, script
   6++AED1 00          >
   6++AED2             >    ORG ._temp
   7++BD04                  SETUP_ITEM_TYPE_N
   7++BD04             >._temp equ $; запоминаем адрес
   7++BD04             >    ORG ITEM_TYPES+item*ItemType
   7++B34C 1D 00 0A 00 >    ItemType spr, 0, 10
   7++B350             >    ORG ._temp
   8++BD04
   9++BD04              script:
  10++BD04                IfVar Vars.var_act, do_stand, no_way_script
  10++BD04 1E 62       >	  defw zxengine.if_var_me
  10++BD06 00          >	  defb Vars.var_act
  10++BD07 01          >	  defb do_stand
  10++BD08 F9 B4       >	  defw no_way_script
  11++BD0A                IfVar Vars.var_act, do_get, take_
  11++BD0A 1E 62       >	  defw zxengine.if_var_me
  11++BD0C 00          >	  defb Vars.var_act
  11++BD0D 02          >	  defb do_get
  11++BD0E 17 BD       >	  defw take_
  12++BD10                IfVar Vars.var_act, do_drop, drop_
  12++BD10 1E 62       >	  defw zxengine.if_var_me
  12++BD12 00          >	  defb Vars.var_act
  12++BD13 03          >	  defb do_drop
  12++BD14 18 BD       >	  defw drop_
  13++BD16 00             defb _endByte
  14++BD17              take_:
  15++BD17                ; goto no_script
  16++BD17 00             defb _endByte
  17++BD18              drop_:
  18++BD18                goto no_way_script
  18++BD18 A7 61       >    defw zxengine.goto_me
  18++BD1A F9 B4       >    defw no_way_script
  19++BD1C
  20++BD1C              ; drop:
  21++BD1C              ;   goto no_script
  22++BD1C
  23++BD1C                ENDMODULE
  24++BD1C
# file closed: /Users/random/zx-engine/data/cells/items/4_canister_empty.asm
  20++BD1C                  include "items/5_wrench.asm"
# file opened: /Users/random/zx-engine/data/cells/items/5_wrench.asm
   1++BD1C              Wrench.item: equ 5
   2++BD1C              Wrench.spr: equ 61
   3++BD1C
   4++BD1C                MODULE Wrench
   5++BD1C
   6++BD1C                  SETUP_CELL_TYPE_N Wrench_cell_name, script
   6++BD1C             >._temp equ $; запоминаем адрес
   6++BD1C             >    ORG CELL_TYPES+spr*CellType
   6++AF6D 25 A1 1C BD >    CellType Wrench_cell_name, script
   6++AF71 00          >
   6++AF72             >    ORG ._temp
   7++BD1C                  SETUP_ITEM_TYPE_N
   7++BD1C             >._temp equ $; запоминаем адрес
   7++BD1C             >    ORG ITEM_TYPES+item*ItemType
   7++B350 3D 00 0A 00 >    ItemType spr, 0, 10
   7++B354             >    ORG ._temp
   8++BD1C
   9++BD1C              script:
  10++BD1C                IfVar Vars.var_act, do_stand, no_script
  10++BD1C 1E 62       >	  defw zxengine.if_var_me
  10++BD1E 00          >	  defb Vars.var_act
  10++BD1F 01          >	  defb do_stand
  10++BD20 FD B4       >	  defw no_script
  11++BD22                IfVar Vars.var_act, do_get, take_
  11++BD22 1E 62       >	  defw zxengine.if_var_me
  11++BD24 00          >	  defb Vars.var_act
  11++BD25 02          >	  defb do_get
  11++BD26 2F BD       >	  defw take_
  12++BD28                IfVar Vars.var_act, do_drop, drop_
  12++BD28 1E 62       >	  defw zxengine.if_var_me
  12++BD2A 00          >	  defb Vars.var_act
  12++BD2B 03          >	  defb do_drop
  12++BD2C 30 BD       >	  defw drop_
  13++BD2E 00             defb _endByte
  14++BD2F              take_:
  15++BD2F                ; goto no_script
  16++BD2F 00             defb _endByte
  17++BD30              drop_:
  18++BD30                goto no_way_script
  18++BD30 A7 61       >    defw zxengine.goto_me
  18++BD32 F9 B4       >    defw no_way_script
  19++BD34
  20++BD34                ENDMODULE
  21++BD34
# file closed: /Users/random/zx-engine/data/cells/items/5_wrench.asm
  21++BD34                  include "items/6_redcard.asm"
# file opened: /Users/random/zx-engine/data/cells/items/6_redcard.asm
   1++BD34              RedCard.item: equ 6
   2++BD34              RedCard.spr: equ 105
   3++BD34
   4++BD34                MODULE RedCard
   5++BD34                  SETUP_CELL_TYPE_N RedCard_cell_name, script
   5++BD34             >._temp equ $; запоминаем адрес
   5++BD34             >    ORG CELL_TYPES+spr*CellType
   5++B049 B2 9E 34 BD >    CellType RedCard_cell_name, script
   5++B04D 00          >
   5++B04E             >    ORG ._temp
   6++BD34                  SETUP_ITEM_TYPE_N
   6++BD34             >._temp equ $; запоминаем адрес
   6++BD34             >    ORG ITEM_TYPES+item*ItemType
   6++B354 69 00 0A 00 >    ItemType spr, 0, 10
   6++B358             >    ORG ._temp
   7++BD34
   8++BD34              script:
   9++BD34                IfVar Vars.var_act, do_stand, no_script
   9++BD34 1E 62       >	  defw zxengine.if_var_me
   9++BD36 00          >	  defb Vars.var_act
   9++BD37 01          >	  defb do_stand
   9++BD38 FD B4       >	  defw no_script
  10++BD3A                IfVar Vars.var_act, do_get, take_
  10++BD3A 1E 62       >	  defw zxengine.if_var_me
  10++BD3C 00          >	  defb Vars.var_act
  10++BD3D 02          >	  defb do_get
  10++BD3E 47 BD       >	  defw take_
  11++BD40                IfVar Vars.var_act, do_drop, drop_
  11++BD40 1E 62       >	  defw zxengine.if_var_me
  11++BD42 00          >	  defb Vars.var_act
  11++BD43 03          >	  defb do_drop
  11++BD44 48 BD       >	  defw drop_
  12++BD46 00             defb _endByte
  13++BD47              take_:
  14++BD47                ; goto no_script
  15++BD47 00             defb _endByte
  16++BD48              drop_:
  17++BD48                goto no_way_script
  17++BD48 A7 61       >    defw zxengine.goto_me
  17++BD4A F9 B4       >    defw no_way_script
  18++BD4C
  19++BD4C
  20++BD4C                ENDMODULE
  21++BD4C
# file closed: /Users/random/zx-engine/data/cells/items/6_redcard.asm
# file closed: /Users/random/zx-engine/data/cells/_index.asm
  58++BD4C              ENCOUNTER_SET_END
  59++BD4C
  60++BD4C              ; (!) код плеера должен быть в быстрой памяти как Shiru сказал (!!!)
  61++BD4C              ; На 48K это просто любая память выше 32768, на оригинальных 128K
  62++BD4C              ; есть сложности: на 128K и +2 медленные страницы 1,3,5,7;
  63++BD4C              ; на +2A и +3 медленные страницы 4,5,6,7. Т.е. для корректной работы
  64++BD4C              ; на всех оригинальных моделях плеер надо обязательно поместить в страницу 0 или 2.
  65++BD4C              ; На данный момент подключается аккурат во 2ю страницу ( FX_SET: 0xBC46)
  66++BD4C              FX_SET:
  67++BD4C                include "data/demoFX.asm"
# file opened: /Users/random/zx-engine/data/demoFX.asm
   1++BD4C              ;BeepFX player by Shiru
   2++BD4C              ;You are free to do whatever you want with this code
   3++BD4C
   4++BD4C              ; playBasic:
   5++BD4C              	; ld a,0
   6++BD4C              play:
   7++BD4C 21 1B BE     	ld hl,sfxData	;address of sound effects data
   8++BD4F
   9++BD4F F3           	di ; без этого хрипы в динамике
  10++BD50 DD E5        	push ix
  11++BD52 FD E5        	push iy
  12++BD54
  13++BD54 06 00        	ld b,0
  14++BD56 4F           	ld c,a
  15++BD57 09           	add hl,bc
  16++BD58 09           	add hl,bc
  17++BD59 5E           	ld e,(hl)
  18++BD5A 23           	inc hl
  19++BD5B 56           	ld d,(hl)
  20++BD5C D5           	push de
  21++BD5D DD E1        	pop ix			;put it into ix
  22++BD5F
  23++BD5F              	; ld a,(23624)	;get border color from BASIC vars to keep it unchanged
  24++BD5F              	; rra
  25++BD5F              	; rra
  26++BD5F              	; rra
  27++BD5F              	; and 7
  28++BD5F 3E F8        	ld a, 11111000b
  29++BD61 32 C8 BD     	ld (sfxRoutineToneBorder  +1),a
  30++BD64 32 FB BD     	ld (sfxRoutineNoiseBorder +1),a
  31++BD67 32 9C BD     	ld (sfxRoutineSampleBorder+1),a
  32++BD6A
  33++BD6A              readData:
  34++BD6A DD 7E 00     	ld a,(ix+0)		;read block type
  35++BD6D DD 4E 01     	ld c,(ix+1)		;read duration 1
  36++BD70 DD 46 02     	ld b,(ix+2)
  37++BD73 DD 5E 03     	ld e,(ix+3)		;read duration 2
  38++BD76 DD 56 04     	ld d,(ix+4)
  39++BD79 D5           	push de
  40++BD7A FD E1        	pop iy
  41++BD7C
  42++BD7C 3D           	dec a
  43++BD7D 28 2E        	jr z,sfxRoutineTone
  44++BD7F 3D           	dec a
  45++BD80 28 6A        	jr z,sfxRoutineNoise
  46++BD82 3D           	dec a
  47++BD83 28 06        	jr z,sfxRoutineSample
  48++BD85 FD E1        	pop iy
  49++BD87 DD E1        	pop ix
  50++BD89 FB           	ei
  51++BD8A C9           	ret
  52++BD8B
  53++BD8B
  54++BD8B
  55++BD8B              ;play sample
  56++BD8B
  57++BD8B              sfxRoutineSample:
  58++BD8B EB           	ex de,hl
  59++BD8C              sfxRS0:
  60++BD8C 1E 08        	ld e,8
  61++BD8E 56           	ld d,(hl)
  62++BD8F 23           	inc hl
  63++BD90              sfxRS1:
  64++BD90 DD 7E 05     	ld a,(ix+5)
  65++BD93              sfxRS2:
  66++BD93 3D           	dec a
  67++BD94 20 FD        	jr nz,sfxRS2
  68++BD96 CB 12        	rl d
  69++BD98 9F           	sbc a,a
  70++BD99 E6 10        	and 16
  71++BD9B              sfxRoutineSampleBorder:
  72++BD9B E6 00        	and 0
  73++BD9D D3 FE        	out (254),a
  74++BD9F 1D           	dec e
  75++BDA0 20 EE        	jr nz,sfxRS1
  76++BDA2 0B           	dec bc
  77++BDA3 78           	ld a,b
  78++BDA4 B1           	or c
  79++BDA5 20 E5        	jr nz,sfxRS0
  80++BDA7
  81++BDA7 0E 06        	ld c,6
  82++BDA9
  83++BDA9              nextData:
  84++BDA9 DD 09        	add ix,bc		;skip to the next block
  85++BDAB 18 BD        	jr readData
  86++BDAD
  87++BDAD
  88++BDAD
  89++BDAD              ;generate tone with many parameters
  90++BDAD
  91++BDAD              sfxRoutineTone:
  92++BDAD DD 5E 05     	ld e,(ix+5)		;freq
  93++BDB0 DD 56 06     	ld d,(ix+6)
  94++BDB3 DD 7E 09     	ld a,(ix+9)		;duty
  95++BDB6 32 C3 BD     	ld (sfxRoutineToneDuty+1),a
  96++BDB9 21 00 00     	ld hl,0
  97++BDBC
  98++BDBC              sfxRT0:
  99++BDBC C5           	push bc
 100++BDBD FD E5        	push iy
 101++BDBF C1           	pop bc
 102++BDC0              sfxRT1:
 103++BDC0 19           	add hl,de
 104++BDC1 7C           	ld a,h
 105++BDC2              sfxRoutineToneDuty:
 106++BDC2 FE 00        	cp 0
 107++BDC4 9F           	sbc a,a
 108++BDC5 E6 10        	and 16
 109++BDC7              sfxRoutineToneBorder:
 110++BDC7 E6 00        	and 0
 111++BDC9 D3 FE        	out (254),a
 112++BDCB
 113++BDCB 0B           	dec bc
 114++BDCC 78           	ld a,b
 115++BDCD B1           	or c
 116++BDCE 20 F0        	jr nz,sfxRT1
 117++BDD0
 118++BDD0 3A C3 BD     	ld a,(sfxRoutineToneDuty+1)	 ;duty change
 119++BDD3 DD 86 0A     	add a,(ix+10)
 120++BDD6 32 C3 BD     	ld (sfxRoutineToneDuty+1),a
 121++BDD9
 122++BDD9 DD 4E 07     	ld c,(ix+7)		;slide
 123++BDDC DD 46 08     	ld b,(ix+8)
 124++BDDF EB           	ex de,hl
 125++BDE0 09           	add hl,bc
 126++BDE1 EB           	ex de,hl
 127++BDE2
 128++BDE2 C1           	pop bc
 129++BDE3 0B           	dec bc
 130++BDE4 78           	ld a,b
 131++BDE5 B1           	or c
 132++BDE6 20 D4        	jr nz,sfxRT0
 133++BDE8
 134++BDE8 0E 0B        	ld c,11
 135++BDEA 18 BD        	jr nextData
 136++BDEC
 137++BDEC
 138++BDEC
 139++BDEC              ;generate noise with two parameters
 140++BDEC
 141++BDEC              sfxRoutineNoise:
 142++BDEC DD 5E 05     	ld e,(ix+5)		;pitch
 143++BDEF
 144++BDEF 16 01        	ld d,1
 145++BDF1 62           	ld h,d
 146++BDF2 6A           	ld l,d
 147++BDF3              sfxRN0:
 148++BDF3 C5           	push bc
 149++BDF4 FD E5        	push iy
 150++BDF6 C1           	pop bc
 151++BDF7              sfxRN1:
 152++BDF7 7E           	ld a,(hl)
 153++BDF8 E6 10        	and 16
 154++BDFA              sfxRoutineNoiseBorder:
 155++BDFA E6 00        	and 0
 156++BDFC D3 FE        	out (254),a
 157++BDFE 15           	dec d
 158++BDFF 20 06        	jr nz,sfxRN2
 159++BE01 53           	ld d,e
 160++BE02 23           	inc hl
 161++BE03 7C           	ld a,h
 162++BE04 E6 1F        	and 31
 163++BE06 67           	ld h,a
 164++BE07              sfxRN2:
 165++BE07 0B           	dec bc
 166++BE08 78           	ld a,b
 167++BE09 B1           	or c
 168++BE0A 20 EB        	jr nz,sfxRN1
 169++BE0C
 170++BE0C 7B           	ld a,e
 171++BE0D DD 86 06     	add a,(ix+6)	;slide
 172++BE10 5F           	ld e,a
 173++BE11
 174++BE11 C1           	pop bc
 175++BE12 0B           	dec bc
 176++BE13 78           	ld a,b
 177++BE14 B1           	or c
 178++BE15 20 DC        	jr nz,sfxRN0
 179++BE17
 180++BE17 0E 07        	ld c,7
 181++BE19 18 8E        	jr nextData
 182++BE1B
 183++BE1B
 184++BE1B              sfxData:
 185++BE1B
 186++BE1B              SoundEffectsData:
 187++BE1B 91 BE        	defw SoundEffect0Data
 188++BE1D 9D BE        	defw SoundEffect1Data
 189++BE1F A5 BE        	defw SoundEffect2Data
 190++BE21 B1 BE        	defw SoundEffect3Data
 191++BE23 BD BE        	defw SoundEffect4Data
 192++BE25 C9 BE        	defw SoundEffect5Data
 193++BE27 D5 BE        	defw SoundEffect6Data
 194++BE29 DD BE        	defw SoundEffect7Data
 195++BE2B EC BE        	defw SoundEffect8Data
 196++BE2D 06 BF        	defw SoundEffect9Data
 197++BE2F 12 BF        	defw SoundEffect10Data
 198++BE31 1E BF        	defw SoundEffect11Data
 199++BE33 2A BF        	defw SoundEffect12Data
 200++BE35 36 BF        	defw SoundEffect13Data
 201++BE37 42 BF        	defw SoundEffect14Data
 202++BE39 4E BF        	defw SoundEffect15Data
 203++BE3B 5A BF        	defw SoundEffect16Data
 204++BE3D 62 BF        	defw SoundEffect17Data
 205++BE3F 7C BF        	defw SoundEffect18Data
 206++BE41 88 BF        	defw SoundEffect19Data
 207++BE43 90 BF        	defw SoundEffect20Data
 208++BE45 98 BF        	defw SoundEffect21Data
 209++BE47 AB BF        	defw SoundEffect22Data
 210++BE49 BA BF        	defw SoundEffect23Data
 211++BE4B C2 BF        	defw SoundEffect24Data
 212++BE4D 1D C0        	defw SoundEffect25Data
 213++BE4F 37 C0        	defw SoundEffect26Data
 214++BE51 4A C0        	defw SoundEffect27Data
 215++BE53 64 C0        	defw SoundEffect28Data
 216++BE55 70 C0        	defw SoundEffect29Data
 217++BE57 7C C0        	defw SoundEffect30Data
 218++BE59 88 C0        	defw SoundEffect31Data
 219++BE5B 94 C0        	defw SoundEffect32Data
 220++BE5D C1 C0        	defw SoundEffect33Data
 221++BE5F E3 C0        	defw SoundEffect34Data
 222++BE61 F6 C0        	defw SoundEffect35Data
 223++BE63 1B C1        	defw SoundEffect36Data
 224++BE65 7F C1        	defw SoundEffect37Data
 225++BE67 8B C1        	defw SoundEffect38Data
 226++BE69 97 C1        	defw SoundEffect39Data
 227++BE6B A3 C1        	defw SoundEffect40Data
 228++BE6D E6 C1        	defw SoundEffect41Data
 229++BE6F 29 C2        	defw SoundEffect42Data
 230++BE71 4B C2        	defw SoundEffect43Data
 231++BE73 57 C2        	defw SoundEffect44Data
 232++BE75 84 C2        	defw SoundEffect45Data
 233++BE77 A6 C2        	defw SoundEffect46Data
 234++BE79 BD C2        	defw SoundEffect47Data
 235++BE7B EA C2        	defw SoundEffect48Data
 236++BE7D F6 C2        	defw SoundEffect49Data
 237++BE7F 39 C3        	defw SoundEffect50Data
 238++BE81 5B C3        	defw SoundEffect51Data
 239++BE83 67 C3        	defw SoundEffect52Data
 240++BE85 B5 C3        	defw SoundEffect53Data
 241++BE87 D7 C3        	defw SoundEffect54Data
 242++BE89 F9 C3        	defw SoundEffect55Data
 243++BE8B 05 C4        	defw SoundEffect56Data
 244++BE8D 0C C4        	defw SoundEffect57Data
 245++BE8F 13 C4        	defw SoundEffect58Data
 246++BE91
 247++BE91              SoundEffect0Data:
 248++BE91 01           	defb 1 ;tone
 249++BE92 14 00 32 00  	defw 20,50,2000,65486,128
 249++BE96 D0 07 CE FF
 249++BE9A 80 00
 250++BE9C 00           	defb 0
 251++BE9D              SoundEffect1Data:
 252++BE9D 02           	defb 2 ;noise
 253++BE9E 14 00 32 00  	defw 20,50,257
 253++BEA2 01 01
 254++BEA4 00           	defb 0
 255++BEA5              SoundEffect2Data:
 256++BEA5 01           	defb 1 ;tone
 257++BEA6 64 00 14 00  	defw 100,20,500,2,128
 257++BEAA F4 01 02 00
 257++BEAE 80 00
 258++BEB0 00           	defb 0
 259++BEB1              SoundEffect3Data:
 260++BEB1 01           	defb 1 ;tone
 261++BEB2 64 00 14 00  	defw 100,20,500,2,16
 261++BEB6 F4 01 02 00
 261++BEBA 10 00
 262++BEBC 00           	defb 0
 263++BEBD              SoundEffect4Data:
 264++BEBD 01           	defb 1 ;tone
 265++BEBE 0A 00 64 00  	defw 10,100,2000,100,128
 265++BEC2 D0 07 64 00
 265++BEC6 80 00
 266++BEC8 00           	defb 0
 267++BEC9              SoundEffect5Data:
 268++BEC9 01           	defb 1 ;tone
 269++BECA 32 00 64 00  	defw 50,100,200,65531,128
 269++BECE C8 00 FB FF
 269++BED2 80 00
 270++BED4 00           	defb 0
 271++BED5              SoundEffect6Data:
 272++BED5 02           	defb 2 ;noise
 273++BED6 64 00 32 00  	defw 100,50,356
 273++BEDA 64 01
 274++BEDC 00           	defb 0
 275++BEDD              SoundEffect7Data:
 276++BEDD 02           	defb 2 ;noise
 277++BEDE 01 00 E8 03  	defw 1,1000,10
 277++BEE2 0A 00
 278++BEE4 02           	defb 2 ;noise
 279++BEE5 01 00 E8 03  	defw 1,1000,1
 279++BEE9 01 00
 280++BEEB 00           	defb 0
 281++BEEC              SoundEffect8Data:
 282++BEEC 02           	defb 2 ;noise
 283++BEED 01 00 E8 03  	defw 1,1000,20
 283++BEF1 14 00
 284++BEF3 01           	defb 1 ;pause
 285++BEF4 01 00 E8 03  	defw 1,1000,0,0,0
 285++BEF8 00 00 00 00
 285++BEFC 00 00
 286++BEFE 02           	defb 2 ;noise
 287++BEFF 01 00 E8 03  	defw 1,1000,1
 287++BF03 01 00
 288++BF05 00           	defb 0
 289++BF06              SoundEffect9Data:
 290++BF06 01           	defb 1 ;tone
 291++BF07 14 00 E8 03  	defw 20,1000,200,0,63104
 291++BF0B C8 00 00 00
 291++BF0F 80 F6
 292++BF11 00           	defb 0
 293++BF12              SoundEffect10Data:
 294++BF12 01           	defb 1 ;tone
 295++BF13 90 01 32 00  	defw 400,50,200,0,63104
 295++BF17 C8 00 00 00
 295++BF1B 80 F6
 296++BF1D 00           	defb 0
 297++BF1E              SoundEffect11Data:
 298++BF1E 01           	defb 1 ;tone
 299++BF1F D0 07 0A 00  	defw 2000,10,400,0,63104
 299++BF23 90 01 00 00
 299++BF27 80 F6
 300++BF29 00           	defb 0
 301++BF2A              SoundEffect12Data:
 302++BF2A 01           	defb 1 ;tone
 303++BF2B 64 00 64 00  	defw 100,100,1000,0,32896
 303++BF2F E8 03 00 00
 303++BF33 80 80
 304++BF35 00           	defb 0
 305++BF36              SoundEffect13Data:
 306++BF36 01           	defb 1 ;tone
 307++BF37 E8 03 0A 00  	defw 1000,10,100,0,25728
 307++BF3B 64 00 00 00
 307++BF3F 80 64
 308++BF41 00           	defb 0
 309++BF42              SoundEffect14Data:
 310++BF42 01           	defb 1 ;tone
 311++BF43 64 00 64 00  	defw 100,100,1000,0,32640
 311++BF47 E8 03 00 00
 311++BF4B 80 7F
 312++BF4D 00           	defb 0
 313++BF4E              SoundEffect15Data:
 314++BF4E 01           	defb 1 ;tone
 315++BF4F 64 00 14 00  	defw 100,20,400,1,25728
 315++BF53 90 01 01 00
 315++BF57 80 64
 316++BF59 00           	defb 0
 317++BF5A              SoundEffect16Data:
 318++BF5A 02           	defb 2 ;noise
 319++BF5B 02 00 D0 07  	defw 2,2000,32776
 319++BF5F 08 80
 320++BF61 00           	defb 0
 321++BF62              SoundEffect17Data:
 322++BF62 02           	defb 2 ;noise
 323++BF63 01 00 E8 03  	defw 1,1000,10
 323++BF67 0A 00
 324++BF69 01           	defb 1 ;tone
 325++BF6A 14 00 64 00  	defw 20,100,400,65526,128
 325++BF6E 90 01 F6 FF
 325++BF72 80 00
 326++BF74 02           	defb 2 ;noise
 327++BF75 01 00 D0 07  	defw 1,2000,1
 327++BF79 01 00
 328++BF7B 00           	defb 0
 329++BF7C              SoundEffect18Data:
 330++BF7C 01           	defb 1 ;tone
 331++BF7D 64 00 14 00  	defw 100,20,1000,65535,2176
 331++BF81 E8 03 FF FF
 331++BF85 80 08
 332++BF87 00           	defb 0
 333++BF88              SoundEffect19Data:
 334++BF88 02           	defb 2 ;noise
 335++BF89 14 00 D0 07  	defw 20,2000,1290
 335++BF8D 0A 05
 336++BF8F 00           	defb 0
 337++BF90              SoundEffect20Data:
 338++BF90 02           	defb 2 ;noise
 339++BF91 64 00 90 01  	defw 100,400,2562
 339++BF95 02 0A
 340++BF97 00           	defb 0
 341++BF98              SoundEffect21Data:
 342++BF98 02           	defb 2 ;noise
 343++BF99 05 00 E8 03  	defw 5,1000,5124
 343++BF9D 04 14
 344++BF9F 01           	defb 1 ;tone
 345++BFA0 32 00 64 00  	defw 50,100,200,65534,128
 345++BFA4 C8 00 FE FF
 345++BFA8 80 00
 346++BFAA 00           	defb 0
 347++BFAB              SoundEffect22Data:
 348++BFAB 02           	defb 2 ;noise
 349++BFAC 08 00 C8 00  	defw 8,200,20
 349++BFB0 14 00
 350++BFB2 02           	defb 2 ;noise
 351++BFB3 04 00 D0 07  	defw 4,2000,5220
 351++BFB7 64 14
 352++BFB9 00           	defb 0
 353++BFBA              SoundEffect23Data:
 354++BFBA 02           	defb 2 ;noise
 355++BFBB 19 00 C4 09  	defw 25,2500,28288
 355++BFBF 80 6E
 356++BFC1 00           	defb 0
 357++BFC2              SoundEffect24Data:
 358++BFC2 02           	defb 2 ;noise
 359++BFC3 64 00 28 00  	defw 100,40,20
 359++BFC7 14 00
 360++BFC9 01           	defb 1 ;tone
 361++BFCA 64 00 28 00  	defw 100,40,400,65532,128
 361++BFCE 90 01 FC FF
 361++BFD2 80 00
 362++BFD4 02           	defb 2 ;noise
 363++BFD5 64 00 28 00  	defw 100,40,40
 363++BFD9 28 00
 364++BFDB 01           	defb 1 ;tone
 365++BFDC 64 00 28 00  	defw 100,40,350,65532,128
 365++BFE0 5E 01 FC FF
 365++BFE4 80 00
 366++BFE6 02           	defb 2 ;noise
 367++BFE7 64 00 28 00  	defw 100,40,80
 367++BFEB 50 00
 368++BFED 01           	defb 1 ;tone
 369++BFEE 64 00 28 00  	defw 100,40,320,65532,128
 369++BFF2 40 01 FC FF
 369++BFF6 80 00
 370++BFF8 02           	defb 2 ;noise
 371++BFF9 64 00 28 00  	defw 100,40,100
 371++BFFD 64 00
 372++BFFF 01           	defb 1 ;tone
 373++C000 64 00 28 00  	defw 100,40,310,65532,128
 373++C004 36 01 FC FF
 373++C008 80 00
 374++C00A 02           	defb 2 ;noise
 375++C00B 64 00 28 00  	defw 100,40,120
 375++C00F 78 00
 376++C011 01           	defb 1 ;tone
 377++C012 64 00 28 00  	defw 100,40,300,65532,128
 377++C016 2C 01 FC FF
 377++C01A 80 00
 378++C01C 00           	defb 0
 379++C01D              SoundEffect25Data:
 380++C01D 02           	defb 2 ;noise
 381++C01E 05 00 E8 03  	defw 5,1000,5130
 381++C022 0A 14
 382++C024 01           	defb 1 ;tone
 383++C025 14 00 64 00  	defw 20,100,200,65526,128
 383++C029 C8 00 F6 FF
 383++C02D 80 00
 384++C02F 02           	defb 2 ;noise
 385++C030 01 00 10 27  	defw 1,10000,200
 385++C034 C8 00
 386++C036 00           	defb 0
 387++C037              SoundEffect26Data:
 388++C037 01           	defb 1 ;tone
 389++C038 08 00 90 01  	defw 8,400,300,65511,128
 389++C03C 2C 01 E7 FF
 389++C040 80 00
 390++C042 02           	defb 2 ;noise
 391++C043 06 00 88 13  	defw 6,5000,5270
 391++C047 96 14
 392++C049 00           	defb 0
 393++C04A              SoundEffect27Data:
 394++C04A 02           	defb 2 ;noise
 395++C04B 01 00 E8 03  	defw 1,1000,4
 395++C04F 04 00
 396++C051 01           	defb 1 ;tone
 397++C052 04 00 E8 03  	defw 4,1000,400,65436,128
 397++C056 90 01 9C FF
 397++C05A 80 00
 398++C05C 02           	defb 2 ;noise
 399++C05D 01 00 88 13  	defw 1,5000,150
 399++C061 96 00
 400++C063 00           	defb 0
 401++C064              SoundEffect28Data:
 402++C064 01           	defb 1 ;tone
 403++C065 0A 00 90 01  	defw 10,400,1000,65136,2688
 403++C069 E8 03 70 FE
 403++C06D 80 0A
 404++C06F 00           	defb 0
 405++C070              SoundEffect29Data:
 406++C070 01           	defb 1 ;tone
 407++C071 0A 00 90 01  	defw 10,400,1000,65336,2688
 407++C075 E8 03 38 FF
 407++C079 80 0A
 408++C07B 00           	defb 0
 409++C07C              SoundEffect30Data:
 410++C07C 01           	defb 1 ;tone
 411++C07D 04 00 E8 03  	defw 4,1000,1000,400,128
 411++C081 E8 03 90 01
 411++C085 80 00
 412++C087 00           	defb 0
 413++C088              SoundEffect31Data:
 414++C088 01           	defb 1 ;tone
 415++C089 04 00 E8 03  	defw 4,1000,1000,65136,128
 415++C08D E8 03 70 FE
 415++C091 80 00
 416++C093 00           	defb 0
 417++C094              SoundEffect32Data:
 418++C094 01           	defb 1 ;tone
 419++C095 01 00 E8 03  	defw 1,1000,1000,0,128
 419++C099 E8 03 00 00
 419++C09D 80 00
 420++C09F 01           	defb 1 ;pause
 421++C0A0 01 00 E8 03  	defw 1,1000,0,0,0
 421++C0A4 00 00 00 00
 421++C0A8 00 00
 422++C0AA 01           	defb 1 ;tone
 423++C0AB 01 00 D0 07  	defw 1,2000,2000,0,128
 423++C0AF D0 07 00 00
 423++C0B3 80 00
 424++C0B5 01           	defb 1 ;tone
 425++C0B6 01 00 D0 07  	defw 1,2000,2000,0,16
 425++C0BA D0 07 00 00
 425++C0BE 10 00
 426++C0C0 00           	defb 0
 427++C0C1              SoundEffect33Data:
 428++C0C1 01           	defb 1 ;tone
 429++C0C2 01 00 E8 03  	defw 1,1000,2000,0,64
 429++C0C6 D0 07 00 00
 429++C0CA 40 00
 430++C0CC 01           	defb 1 ;pause
 431++C0CD 01 00 E8 03  	defw 1,1000,0,0,0
 431++C0D1 00 00 00 00
 431++C0D5 00 00
 432++C0D7 01           	defb 1 ;tone
 433++C0D8 01 00 E8 03  	defw 1,1000,1500,0,64
 433++C0DC DC 05 00 00
 433++C0E0 40 00
 434++C0E2 00           	defb 0
 435++C0E3              SoundEffect34Data:
 436++C0E3 02           	defb 2 ;noise
 437++C0E4 01 00 E8 03  	defw 1,1000,4
 437++C0E8 04 00
 438++C0EA 01           	defb 1 ;tone
 439++C0EB 01 00 E8 03  	defw 1,1000,2000,0,128
 439++C0EF D0 07 00 00
 439++C0F3 80 00
 440++C0F5 00           	defb 0
 441++C0F6              SoundEffect35Data:
 442++C0F6 02           	defb 2 ;noise
 443++C0F7 01 00 E8 03  	defw 1,1000,8
 443++C0FB 08 00
 444++C0FD 01           	defb 1 ;tone
 445++C0FE 01 00 E8 03  	defw 1,1000,800,0,128
 445++C102 20 03 00 00
 445++C106 80 00
 446++C108 02           	defb 2 ;noise
 447++C109 01 00 E8 03  	defw 1,1000,16
 447++C10D 10 00
 448++C10F 01           	defb 1 ;tone
 449++C110 01 00 E8 03  	defw 1,1000,700,0,128
 449++C114 BC 02 00 00
 449++C118 80 00
 450++C11A 00           	defb 0
 451++C11B              SoundEffect36Data:
 452++C11B 01           	defb 1 ;tone
 453++C11C 0A 00 90 01  	defw 10,400,400,65516,128
 453++C120 90 01 EC FF
 453++C124 80 00
 454++C126 01           	defb 1 ;pause
 455++C127 0A 00 90 01  	defw 10,400,0,0,0
 455++C12B 00 00 00 00
 455++C12F 00 00
 456++C131 01           	defb 1 ;tone
 457++C132 0A 00 90 01  	defw 10,400,350,65516,96
 457++C136 5E 01 EC FF
 457++C13A 60 00
 458++C13C 01           	defb 1 ;pause
 459++C13D 0A 00 90 01  	defw 10,400,0,0,0
 459++C141 00 00 00 00
 459++C145 00 00
 460++C147 01           	defb 1 ;tone
 461++C148 0A 00 90 01  	defw 10,400,300,65516,64
 461++C14C 2C 01 EC FF
 461++C150 40 00
 462++C152 01           	defb 1 ;pause
 463++C153 0A 00 90 01  	defw 10,400,0,0,0
 463++C157 00 00 00 00
 463++C15B 00 00
 464++C15D 01           	defb 1 ;tone
 465++C15E 0A 00 90 01  	defw 10,400,250,65516,32
 465++C162 FA 00 EC FF
 465++C166 20 00
 466++C168 01           	defb 1 ;pause
 467++C169 0A 00 90 01  	defw 10,400,0,0,0
 467++C16D 00 00 00 00
 467++C171 00 00
 468++C173 01           	defb 1 ;tone
 469++C174 0A 00 90 01  	defw 10,400,200,65516,16
 469++C178 C8 00 EC FF
 469++C17C 10 00
 470++C17E 00           	defb 0
 471++C17F              SoundEffect37Data:
 472++C17F 01           	defb 1 ;tone
 473++C180 05 00 08 07  	defw 5,1800,1000,1000,65408
 473++C184 E8 03 E8 03
 473++C188 80 FF
 474++C18A 00           	defb 0
 475++C18B              SoundEffect38Data:
 476++C18B 01           	defb 1 ;tone
 477++C18C AC 0D 0A 00  	defw 3500,10,2,0,25728
 477++C190 02 00 00 00
 477++C194 80 64
 478++C196 00           	defb 0
 479++C197              SoundEffect39Data:
 480++C197 01           	defb 1 ;tone
 481++C198 14 00 C8 00  	defw 20,200,3400,10,64
 481++C19C 48 0D 0A 00
 481++C1A0 40 00
 482++C1A2 00           	defb 0
 483++C1A3              SoundEffect40Data:
 484++C1A3 01           	defb 1 ;tone
 485++C1A4 01 00 D0 07  	defw 1,2000,400,0,128
 485++C1A8 90 01 00 00
 485++C1AC 80 00
 486++C1AE 01           	defb 1 ;tone
 487++C1AF 01 00 D0 07  	defw 1,2000,400,0,16
 487++C1B3 90 01 00 00
 487++C1B7 10 00
 488++C1B9 01           	defb 1 ;tone
 489++C1BA 01 00 D0 07  	defw 1,2000,600,0,128
 489++C1BE 58 02 00 00
 489++C1C2 80 00
 490++C1C4 01           	defb 1 ;tone
 491++C1C5 01 00 D0 07  	defw 1,2000,600,0,16
 491++C1C9 58 02 00 00
 491++C1CD 10 00
 492++C1CF 01           	defb 1 ;tone
 493++C1D0 01 00 D0 07  	defw 1,2000,800,0,128
 493++C1D4 20 03 00 00
 493++C1D8 80 00
 494++C1DA 01           	defb 1 ;tone
 495++C1DB 01 00 D0 07  	defw 1,2000,800,0,16
 495++C1DF 20 03 00 00
 495++C1E3 10 00
 496++C1E5 00           	defb 0
 497++C1E6              SoundEffect41Data:
 498++C1E6 01           	defb 1 ;tone
 499++C1E7 01 00 D0 07  	defw 1,2000,400,0,128
 499++C1EB 90 01 00 00
 499++C1EF 80 00
 500++C1F1 01           	defb 1 ;tone
 501++C1F2 01 00 D0 07  	defw 1,2000,600,0,128
 501++C1F6 58 02 00 00
 501++C1FA 80 00
 502++C1FC 01           	defb 1 ;tone
 503++C1FD 01 00 D0 07  	defw 1,2000,800,0,128
 503++C201 20 03 00 00
 503++C205 80 00
 504++C207 01           	defb 1 ;tone
 505++C208 01 00 D0 07  	defw 1,2000,400,0,16
 505++C20C 90 01 00 00
 505++C210 10 00
 506++C212 01           	defb 1 ;tone
 507++C213 01 00 D0 07  	defw 1,2000,600,0,16
 507++C217 58 02 00 00
 507++C21B 10 00
 508++C21D 01           	defb 1 ;tone
 509++C21E 01 00 D0 07  	defw 1,2000,800,0,16
 509++C222 20 03 00 00
 509++C226 10 00
 510++C228 00           	defb 0
 511++C229              SoundEffect42Data:
 512++C229 01           	defb 1 ;tone
 513++C22A 04 00 E8 03  	defw 4,1000,500,100,384
 513++C22E F4 01 64 00
 513++C232 80 01
 514++C234 01           	defb 1 ;tone
 515++C235 04 00 E8 03  	defw 4,1000,500,100,64
 515++C239 F4 01 64 00
 515++C23D 40 00
 516++C23F 01           	defb 1 ;tone
 517++C240 04 00 E8 03  	defw 4,1000,500,100,16
 517++C244 F4 01 64 00
 517++C248 10 00
 518++C24A 00           	defb 0
 519++C24B              SoundEffect43Data:
 520++C24B 01           	defb 1 ;tone
 521++C24C 05 00 D0 07  	defw 5,2000,200,100,128
 521++C250 C8 00 64 00
 521++C254 80 00
 522++C256 00           	defb 0
 523++C257              SoundEffect44Data:
 524++C257 01           	defb 1 ;tone
 525++C258 04 00 E8 03  	defw 4,1000,400,100,128
 525++C25C 90 01 64 00
 525++C260 80 00
 526++C262 01           	defb 1 ;tone
 527++C263 04 00 E8 03  	defw 4,1000,400,100,64
 527++C267 90 01 64 00
 527++C26B 40 00
 528++C26D 01           	defb 1 ;tone
 529++C26E 04 00 E8 03  	defw 4,1000,400,100,32
 529++C272 90 01 64 00
 529++C276 20 00
 530++C278 01           	defb 1 ;tone
 531++C279 04 00 E8 03  	defw 4,1000,400,100,16
 531++C27D 90 01 64 00
 531++C281 10 00
 532++C283 00           	defb 0
 533++C284              SoundEffect45Data:
 534++C284 01           	defb 1 ;tone
 535++C285 04 00 D0 07  	defw 4,2000,600,65436,61504
 535++C289 58 02 9C FF
 535++C28D 40 F0
 536++C28F 01           	defb 1 ;tone
 537++C290 04 00 D0 07  	defw 4,2000,600,65436,8
 537++C294 58 02 9C FF
 537++C298 08 00
 538++C29A 01           	defb 1 ;tone
 539++C29B 04 00 D0 07  	defw 4,2000,600,65436,4
 539++C29F 58 02 9C FF
 539++C2A3 04 00
 540++C2A5 00           	defb 0
 541++C2A6              SoundEffect46Data:
 542++C2A6 01           	defb 1 ;tone
 543++C2A7 02 00 A0 0F  	defw 2,4000,400,200,64
 543++C2AB 90 01 C8 00
 543++C2AF 40 00
 544++C2B1 01           	defb 1 ;tone
 545++C2B2 02 00 A0 0F  	defw 2,4000,200,200,32
 545++C2B6 C8 00 C8 00
 545++C2BA 20 00
 546++C2BC 00           	defb 0
 547++C2BD              SoundEffect47Data:
 548++C2BD 01           	defb 1 ;tone
 549++C2BE 02 00 E8 03  	defw 2,1000,400,100,64
 549++C2C2 90 01 64 00
 549++C2C6 40 00
 550++C2C8 01           	defb 1 ;tone
 551++C2C9 02 00 E8 03  	defw 2,1000,400,100,64
 551++C2CD 90 01 64 00
 551++C2D1 40 00
 552++C2D3 01           	defb 1 ;tone
 553++C2D4 02 00 E8 03  	defw 2,1000,400,100,64
 553++C2D8 90 01 64 00
 553++C2DC 40 00
 554++C2DE 01           	defb 1 ;tone
 555++C2DF 02 00 E8 03  	defw 2,1000,400,100,64
 555++C2E3 90 01 64 00
 555++C2E7 40 00
 556++C2E9 00           	defb 0
 557++C2EA              SoundEffect48Data:
 558++C2EA 01           	defb 1 ;tone
 559++C2EB 20 00 E8 03  	defw 32,1000,2000,16384,320
 559++C2EF D0 07 00 40
 559++C2F3 40 01
 560++C2F5 00           	defb 0
 561++C2F6              SoundEffect49Data:
 562++C2F6 01           	defb 1 ;tone
 563++C2F7 C8 00 14 00  	defw 200,20,400,0,384
 563++C2FB 90 01 00 00
 563++C2FF 80 01
 564++C301 01           	defb 1 ;tone
 565++C302 C8 00 14 00  	defw 200,20,800,0,384
 565++C306 20 03 00 00
 565++C30A 80 01
 566++C30C 01           	defb 1 ;tone
 567++C30D C8 00 14 00  	defw 200,20,400,0,384
 567++C311 90 01 00 00
 567++C315 80 01
 568++C317 01           	defb 1 ;tone
 569++C318 C8 00 14 00  	defw 200,20,800,0,384
 569++C31C 20 03 00 00
 569++C320 80 01
 570++C322 01           	defb 1 ;tone
 571++C323 C8 00 14 00  	defw 200,20,400,0,384
 571++C327 90 01 00 00
 571++C32B 80 01
 572++C32D 01           	defb 1 ;tone
 573++C32E C8 00 14 00  	defw 200,20,800,0,384
 573++C332 20 03 00 00
 573++C336 80 01
 574++C338 00           	defb 0
 575++C339              SoundEffect50Data:
 576++C339 01           	defb 1 ;tone
 577++C33A 14 00 64 00  	defw 20,100,200,10,1025
 577++C33E C8 00 0A 00
 577++C342 01 04
 578++C344 01           	defb 1 ;pause
 579++C345 1E 00 64 00  	defw 30,100,0,0,0
 579++C349 00 00 00 00
 579++C34D 00 00
 580++C34F 01           	defb 1 ;tone
 581++C350 32 00 64 00  	defw 50,100,200,10,1025
 581++C354 C8 00 0A 00
 581++C358 01 04
 582++C35A 00           	defb 0
 583++C35B              SoundEffect51Data:
 584++C35B 01           	defb 1 ;tone
 585++C35C 32 00 C8 00  	defw 50,200,500,65516,128
 585++C360 F4 01 EC FF
 585++C364 80 00
 586++C366 00           	defb 0
 587++C367              SoundEffect52Data:
 588++C367 01           	defb 1 ;tone
 589++C368 01 00 D0 07  	defw 1,2000,200,0,128
 589++C36C C8 00 00 00
 589++C370 80 00
 590++C372 01           	defb 1 ;pause
 591++C373 01 00 D0 07  	defw 1,2000,0,0,0
 591++C377 00 00 00 00
 591++C37B 00 00
 592++C37D 01           	defb 1 ;tone
 593++C37E 01 00 D0 07  	defw 1,2000,200,0,32
 593++C382 C8 00 00 00
 593++C386 20 00
 594++C388 01           	defb 1 ;pause
 595++C389 01 00 D0 07  	defw 1,2000,0,0,0
 595++C38D 00 00 00 00
 595++C391 00 00
 596++C393 01           	defb 1 ;tone
 597++C394 01 00 D0 07  	defw 1,2000,200,0,16
 597++C398 C8 00 00 00
 597++C39C 10 00
 598++C39E 01           	defb 1 ;pause
 599++C39F 01 00 D0 07  	defw 1,2000,0,0,0
 599++C3A3 00 00 00 00
 599++C3A7 00 00
 600++C3A9 01           	defb 1 ;tone
 601++C3AA 01 00 D0 07  	defw 1,2000,200,0,8
 601++C3AE C8 00 00 00
 601++C3B2 08 00
 602++C3B4 00           	defb 0
 603++C3B5              SoundEffect53Data:
 604++C3B5 01           	defb 1 ;tone
 605++C3B6 0A 00 E8 03  	defw 10,1000,200,2,272
 605++C3BA C8 00 02 00
 605++C3BE 10 01
 606++C3C0 01           	defb 1 ;pause
 607++C3C1 01 00 A0 0F  	defw 1,4000,0,0,0
 607++C3C5 00 00 00 00
 607++C3C9 00 00
 608++C3CB 01           	defb 1 ;tone
 609++C3CC 0A 00 E8 03  	defw 10,1000,200,65534,272
 609++C3D0 C8 00 FE FF
 609++C3D4 10 01
 610++C3D6 00           	defb 0
 611++C3D7              SoundEffect54Data:
 612++C3D7 01           	defb 1 ;tone
 613++C3D8 14 00 F4 01  	defw 20,500,200,5,272
 613++C3DC C8 00 05 00
 613++C3E0 10 01
 614++C3E2 01           	defb 1 ;pause
 615++C3E3 01 00 E8 03  	defw 1,1000,0,0,0
 615++C3E7 00 00 00 00
 615++C3EB 00 00
 616++C3ED 01           	defb 1 ;tone
 617++C3EE 1E 00 F4 01  	defw 30,500,200,8,272
 617++C3F2 C8 00 08 00
 617++C3F6 10 01
 618++C3F8 00           	defb 0
 619++C3F9              SoundEffect55Data:
 620++C3F9 01           	defb 1 ;tone
 621++C3FA 28 00 4D 08  	defw 40,2125,16384,45459,128
 621++C3FE 00 40 93 B1
 621++C402 80 00
 622++C404 00           	defb 0
 623++C405              SoundEffect56Data:
 624++C405 03           	defb 3 ;sample
 625++C406 06 01        	defw 262
 626++C408 1A C4        	defw Sample0Data+0
 627++C40A 2D           	defb 45
 628++C40B 00           	defb 0
 629++C40C              SoundEffect57Data:
 630++C40C 03           	defb 3 ;sample
 631++C40D A0 00        	defw 160
 632++C40F 20 C5        	defw Sample1Data+0
 633++C411 2D           	defb 45
 634++C412 00           	defb 0
 635++C413              SoundEffect58Data:
 636++C413 03           	defb 3 ;sample
 637++C414 06 01        	defw 262
 638++C416 1A C4        	defw Sample0Data+0
 639++C418 64           	defb 100
 640++C419 00           	defb 0
 641++C41A
 642++C41A              Sample0Data:
 643++C41A 7F FF FF A3  	defb 127,255,255,163,255,255,129,255,255,213,31,255,168,31,255,240
 643++C41E FF FF 81 FF
 643++C422 FF D5 1F FF
 643++C426 A8 1F FF F0
 644++C42A 3F FF E8 0F  	defb 63,255,232,15,255,171,253,71,254,128,127,224,127,128,255,208
 644++C42E FF AB FD 47
 644++C432 FE 80 7F E0
 644++C436 7F 80 FF D0
 645++C43A 7F F5 7F 81  	defb 127,245,127,129,255,240,255,234,255,15,254,175,254,191,250,255
 645++C43E FF F0 FF EA
 645++C442 FF 0F FE AF
 645++C446 FE BF FA FF
 646++C44A F5 7F FA FF  	defb 245,127,250,255,111,255,249,255,175,250,253,250,151,253,127,135
 646++C44E 6F FF F9 FF
 646++C452 AF FA FD FA
 646++C456 97 FD 7F 87
 647++C45A FF A8 AF D7  	defb 255,168,175,215,252,63,253,87,254,191,171,255,250,215,237,250
 647++C45E FC 3F FD 57
 647++C462 FE BF AB FF
 647++C466 FA D7 ED FA
 648++C46A FF FF 57 FE  	defb 255,255,87,254,175,255,255,245,127,235,250,255,191,171,127,95
 648++C46E AF FF FF F5
 648++C472 7F EB FA FF
 648++C476 BF AB 7F 5F
 649++C47A FF BF FA BE  	defb 255,191,250,190,247,255,255,255,244,191,255,255,95,255,173,253
 649++C47E F7 FF FF FF
 649++C482 F4 BF FF FF
 649++C486 5F FF AD FD
 650++C48A 7F FF FF EB  	defb 127,255,255,235,171,251,255,255,255,87,223,254,254,255,245,117
 650++C48E AB FB FF FF
 650++C492 FF 57 DF FE
 650++C496 FE FF F5 75
 651++C49A BF BF EF FF  	defb 191,191,239,255,87,91,251,255,255,245,117,181,191,255,255,95
 651++C49E 57 5B FB FF
 651++C4A2 FF F5 75 B5
 651++C4A6 BF FF FF 5F
 652++C4AA 5F EB FF BF  	defb 95,235,255,191,250,191,255,223,121,249,213,242,250,223,215,206
 652++C4AE FA BF FF DF
 652++C4B2 79 F9 D5 F2
 652++C4B6 FA DF D7 CE
 653++C4BA AE BF D6 FE  	defb 174,191,214,254,63,117,94,254,215,250,251,215,251,123,127,249
 653++C4BE 3F 75 5E FE
 653++C4C2 D7 FA FB D7
 653++C4C6 FB 7B 7F F9
 654++C4CA FF AF B7 F6  	defb 255,175,183,246,223,233,127,175,167,243,223,227,239,215,219,233
 654++C4CE DF E9 7F AF
 654++C4D2 A7 F3 DF E3
 654++C4D6 EF D7 DB E9
 655++C4DA EF F8 71 F5  	defb 239,248,113,245,244,250,121,248,120,125,124,126,124,62,62,31
 655++C4DE F4 FA 79 F8
 655++C4E2 78 7D 7C 7E
 655++C4E6 7C 3E 3E 1F
 656++C4EA 97 CF 8F 8F  	defb 151,207,143,143,207,7,252,158,124,60,126,60,127,248,120,240
 656++C4EE CF 07 FC 9E
 656++C4F2 7C 3C 7E 3C
 656++C4F6 7F F8 78 F0
 657++C4FA F1 F1 E1 F3  	defb 241,241,225,243,243,225,243,231,243,231,199,249,178,253,211,240
 657++C4FE F3 E1 F3 E7
 657++C502 F3 E7 C7 F9
 657++C506 B2 FD D3 F0
 658++C50A E3 E3 EF 0E  	defb 227,227,239,14,30,60,124,120,241,255,227,227,199,143,143,31
 658++C50E 1E 3C 7C 78
 658++C512 F1 FF E3 E3
 658++C516 C7 8F 8F 1F
 659++C51A 3F FF 9F 3E  	defb 63,255,159,62,124,254
 659++C51E 7C FE
 660++C520
 661++C520              Sample1Data:
 662++C520 CB CB F7 E3  	defb 203,203,247,227,248,120,223,60,127,143,56,247,15,113,227,159
 662++C524 F8 78 DF 3C
 662++C528 7F 8F 38 F7
 662++C52C 0F 71 E3 9F
 663++C530 E1 EE 3C 73  	defb 225,238,60,115,248,127,207,252,255,15,225,243,223,195,252,63
 663++C534 F8 7F CF FC
 663++C538 FF 0F E1 F3
 663++C53C DF C3 FC 3F
 664++C540 6B F8 7F 87  	defb 107,248,127,135,244,63,7,248,63,195,240,31,135,252,63,0
 664++C544 F4 3F 07 F8
 664++C548 3F C3 F0 1F
 664++C54C 87 FC 3F 00
 665++C550 FC 3F E1 F1  	defb 252,63,225,241,135,195,255,31,30,126,63,249,241,243,227,247
 665++C554 87 C3 FF 1F
 665++C558 1E 7E 3F F9
 665++C55C F1 F3 E3 F7
 666++C560 8F BF FE 1F  	defb 143,191,254,31,239,255,255,247,248,127,249,249,255,5,255,191
 666++C564 EF FF FF F7
 666++C568 F8 7F F9 F9
 666++C56C FF 05 FF BF
 667++C570 BF C7 DF 8F  	defb 191,199,223,143,239,240,7,254,3,252,3,255,192,254,1,255
 667++C574 EF F0 07 FE
 667++C578 03 FC 03 FF
 667++C57C C0 FE 01 FF
 668++C580 80 FF 80 FF  	defb 128,255,128,255,193,255,128,255,131,255,1,255,63,240,15,248
 668++C584 C1 FF 80 FF
 668++C588 83 FF 01 FF
 668++C58C 3F F0 0F F8
 669++C590 7F E0 3F E1  	defb 127,224,63,225,255,128,127,227,255,0,255,227,255,0,255,225
 669++C594 FF 80 7F E3
 669++C598 FF 00 FF E3
 669++C59C FF 00 FF E1
 670++C5A0 FF E0 3F FC  	defb 255,224,63,252,31,252,1,255,228,255,192,31,255,231,255,128
 670++C5A4 1F FC 01 FF
 670++C5A8 E4 FF C0 1F
 670++C5AC FF E7 FF 80
 671++C5B0 7F FF F0 7F  	defb 127,255,240,127,224,31,255,255,255,255,192,63,255,255,255,255
 671++C5B4 E0 1F FF FF
 671++C5B8 FF FF C0 3F
 671++C5BC FF FF FF FF
 672++C5C0
# file closed: /Users/random/zx-engine/data/demoFX.asm
  68++C5C0              FX_SET_END
  69++C5C0
  70++C5C0              TRITONE:
  71++C5C0
  72++C5C0                include "core/routines/music_tritone.asm"
# file opened: /Users/random/zx-engine/core/routines/music_tritone.asm
   1++C5C0              ; *****************************************************************************
   2++C5C0              ; * Tritone v2 Player (with equal channel volumes)
   3++C5C0              ; *
   4++C5C0              ; * By Shiru (shiru@mail.ru) 03'11
   5++C5C0              ; *
   6++C5C0              ; * Three channels of tone, per-pattern tempo
   7++C5C0              ; * One channel of interrupting drums
   8++C5C0              ; * Feel free to do whatever you want with the code, it is PD
   9++C5C0              ; *
  10++C5C0              ; * Produced by Beepola v1.08.01
  11++C5C0              ; ******************************************************************************
  12++C5C0
  13++C5C0              OP_NOP:         EQU   $00                 ; NOP opcode  (used for CHECK_KEMPSTON)
  14++C5C0              OP_SCF:         EQU   $37                 ; SCF opcode  (used in CHECK_KEMPSTON)
  15++C5C0              OP_ORC:         EQU   $b1                 ; OR C opcode (used in CHECK_KEMPSTON)
  16++C5C0
  17++C5C0              ; LD    HL,MUSICDATA - указатель на музыкальные данные
  18++C5C0
  19++C5C0              TRI_PLAY:
  20++C5C0 F3                           DI
  21++C5C1 22 DA C6                     LD    (NEXT_POS_POS + 1),HL
  22++C5C4 0E 10                        LD    C,16
  23++C5C6 FD E5                        PUSH  IY
  24++C5C8 D9                           EXX
  25++C5C9 E5                           PUSH  HL
  26++C5CA ED 73 47 C7                  LD    (PREV_SP+1),SP
  27++C5CE AF                           XOR   A
  28++C5CF 67                           LD    H,A
  29++C5D0 6C                           LD    L,H
  30++C5D1 22 00 C7                     LD    (CNT0 + 1),HL
  31++C5D4 22 07 C7                     LD    (CNT1 + 1),HL
  32++C5D7 22 0A C7                     LD    (CNT2 + 1),HL
  33++C5DA 32 11 C7                     LD    (DUTY0 + 1),A
  34++C5DD 32 1B C7                     LD    (DUTY1 + 1),A
  35++C5E0 32 23 C7                     LD    (DUTY2 + 1),A
  36++C5E3 32 5F C6                     LD    (SKIP_DRUM),A
  37++C5E6 DB 1F                        IN    A,($1F)
  38++C5E8 E6 1F                        AND   $1F
  39++C5EA 3E 00                        LD    A,OP_NOP
  40++C5EC 20 02                        JR    NZ,SET_KEMPSTON
  41++C5EE 3E B1                        LD    A,OP_ORC
  42++C5F0 32 40 C7     SET_KEMPSTON:   LD    (CHECK_KEMPSTON),A
  43++C5F3 C3 D9 C6                     JP    NEXT_POS
  44++C5F6
  45++C5F6              NEXT_ROW:
  46++C5F6 21 00 00     NEXT_ROW_POS:   LD    HL,0
  47++C5F9 7E                           LD    A,(HL)
  48++C5FA 23                           INC   HL
  49++C5FB FE 02                        CP    2
  50++C5FD 38 09                        JR    C,CH0
  51++C5FF FE 80                        CP    128
  52++C601 38 7E                        JR    C,DRUM_SOUND
  53++C603 FE FF                        CP    255
  54++C605 CA D9 C6                     JP    Z,NEXT_POS
  55++C608              CH0:
  56++C608 16 01                        LD    D,1
  57++C60A BA                           CP    D
  58++C60B 28 17                        JR    Z,CH1
  59++C60D B7                           OR    A
  60++C60E 20 04                        JR    NZ,CH0_NOTE
  61++C610 47                           LD    B,A
  62++C611 4F                           LD    C,A
  63++C612 18 09                        JR    CH0_SET
  64++C614 5F           CH0_NOTE:       LD    E,A
  65++C615 E6 0F                        AND   $0F
  66++C617 47                           LD    B,A
  67++C618 4E                           LD    C,(HL)
  68++C619 23                           INC   HL
  69++C61A 7B                           LD    A,E
  70++C61B E6 F0                        AND   $F0
  71++C61D 32 11 C7     CH0_SET:        LD    (DUTY0 + 1),A
  72++C620 ED 43 00 C7                  LD    (CNT0 + 1),BC
  73++C624              CH1:
  74++C624 7E                           LD    A,(HL)
  75++C625 23                           INC   HL
  76++C626 BA                           CP    D
  77++C627 28 17                        JR    Z,CH2
  78++C629 B7                           OR    A
  79++C62A 20 04                        JR    NZ,CH1_NOTE
  80++C62C 47                           LD    B,A
  81++C62D 4F                           LD    C,A
  82++C62E 18 09                        JR    CH1_SET
  83++C630 5F           CH1_NOTE:       LD    E,A
  84++C631 E6 0F                        AND   $0F
  85++C633 47                           LD    B,A
  86++C634 4E                           LD    C,(HL)
  87++C635 23                           INC   HL
  88++C636 7B                           LD    A,E
  89++C637 E6 F0                        AND   $F0
  90++C639 32 1B C7     CH1_SET:        LD    (DUTY1 + 1),A
  91++C63C ED 43 07 C7                  LD    (CNT1 + 1),BC
  92++C640              CH2:
  93++C640 7E                           LD    A,(HL)
  94++C641 23                           INC   HL
  95++C642 BA                           CP    D
  96++C643 28 17                        JR    Z,SKIP
  97++C645 B7                           OR    A
  98++C646 20 04                        JR    NZ,CH2_NOTE
  99++C648 47                           LD    B,A
 100++C649 4F                           LD    C,A
 101++C64A 18 09                        JR    CH2_SET
 102++C64C 5F           CH2_NOTE:       LD    E,A
 103++C64D E6 0F                        AND   $0F
 104++C64F 47                           LD    B,A
 105++C650 4E                           LD    C,(HL)
 106++C651 23                           INC   HL
 107++C652 7B                           LD    A,E
 108++C653 E6 F0                        AND   $F0
 109++C655 32 23 C7     CH2_SET:        LD    (DUTY2 + 1),A
 110++C658 ED 43 0A C7                  LD    (CNT2 + 1),BC
 111++C65C              SKIP:
 112++C65C 22 F7 C5                     LD    (NEXT_ROW_POS + 1),HL
 113++C65F 37           SKIP_DRUM:      SCF
 114++C660 D2 FC C6                     JP    NC,PLAY_ROW
 115++C663 3E 00                        LD    A,OP_NOP
 116++C665 32 5F C6                     LD    (SKIP_DRUM),A
 117++C668 2A FD C6                     LD    HL,(TEMPO+1)
 118++C66B 11 6A FF                     LD    DE,65386                 ; DE = -150
 119++C66E 19                           ADD   HL,DE
 120++C66F EB                           EX    DE,HL
 121++C670 38 03                        JR    C,DRM1
 122++C672 11 01 01                     LD    DE,257
 123++C675 7A           DRM1:           LD    A,D
 124++C676 B7                           OR    A
 125++C677 20 01                        JR    NZ,DRM2
 126++C679 14                           INC   D
 127++C67A 7B           DRM2:           LD    A,E
 128++C67B B7                           OR    A
 129++C67C 20 01                        JR    NZ,DRM3
 130++C67E 1C                           INC   E
 131++C67F 18 7E        DRM3:           JR    DRUM
 132++C681
 133++C681 22 F7 C5     DRUM_SOUND:     LD    (NEXT_ROW_POS + 1),HL
 134++C684 87                           ADD   A,A
 135++C685 DD 6F                        LD    IXL,A
 136++C687 DD 26 00                     LD    IXH,0
 137++C68A 01 4B C7                     LD    BC,DRUM_SETTINGS - 4
 138++C68D DD 09                        ADD   IX,BC
 139++C68F FE 1C                        CP    28                       ; 14 * 2
 140++C691 3E 37                        LD    A,OP_SCF
 141++C693 32 5F C6                     LD    (SKIP_DRUM),A
 142++C696 30 25                        JR    NC,DRUM_NOISE
 143++C698 01 02 00     DRUM_TONE:      LD    BC,2
 144++C69B 78                           LD    A,B
 145++C69C 11 01 10                     LD    DE,$1001
 146++C69F DD 6E 00                     LD    L,(IX+0)
 147++C6A2 CB 40        DRUM_TONE_L0:   BIT   0,B
 148++C6A4 28 0C                        JR    Z,DRUM_TONE_L1
 149++C6A6 1D                           DEC   E
 150++C6A7 20 09                        JR    NZ,DRUM_TONE_L1
 151++C6A9 5D                           LD    E,L
 152++C6AA 08                           EX    AF,AF'
 153++C6AB 7D                           LD    A,L
 154++C6AC DD 86 01                     ADD   A,(IX + 1)
 155++C6AF 6F                           LD    L,A
 156++C6B0 08                           EX    AF,AF'
 157++C6B1 AA                           XOR   D
 158++C6B2 D3 FE        DRUM_TONE_L1:   OUT   ($FE),A
 159++C6B4 10 EC                        DJNZ  DRUM_TONE_L0
 160++C6B6 0D                           DEC   C
 161++C6B7 C2 A2 C6                     JP    NZ,DRUM_TONE_L0
 162++C6BA C3 F6 C5                     JP    NEXT_ROW
 163++C6BD 06 00        DRUM_NOISE:     LD    B,0
 164++C6BF 60                           LD    H,B
 165++C6C0 6C                           LD    L,H
 166++C6C1 11 01 10                     LD    DE,$1001
 167++C6C4 7E           DRUM_NOISE_L0:  LD    A,(HL)
 168++C6C5 A2                           AND   D
 169++C6C6 D3 FE                        OUT   ($FE),A
 170++C6C8 DD A6 00                     AND   (IX+0)
 171++C6CB 1D                           DEC   E
 172++C6CC D3 FE                        OUT   ($FE),A
 173++C6CE 20 04                        JR    NZ,DRUM_NOISE_L1
 174++C6D0 DD 5E 01                     LD    E,(IX+1)
 175++C6D3 23                           INC   HL
 176++C6D4 10 EE        DRUM_NOISE_L1:  DJNZ  DRUM_NOISE_L0
 177++C6D6 C3 F6 C5                     JP    NEXT_ROW
 178++C6D9
 179++C6D9              NEXT_POS:
 180++C6D9 21 00 00     NEXT_POS_POS:   LD    HL,0
 181++C6DC 5E           NEXT_POS_READ:  LD    E,(HL)
 182++C6DD 23                           INC   HL
 183++C6DE 56                           LD    D,(HL)
 184++C6DF 23                           INC   HL
 185++C6E0 7A                           LD    A,D
 186++C6E1 B3                           OR    E
 187++C6E2 28 12                        JR    Z,ORDER_LOOP
 188++C6E4 22 DA C6                     LD    (NEXT_POS_POS+1),HL
 189++C6E7 EB                           EX    DE,HL
 190++C6E8 4E                           LD    C,(HL)
 191++C6E9 23                           INC   HL
 192++C6EA 46                           LD    B,(HL)
 193++C6EB 23                           INC   HL
 194++C6EC 22 F7 C5                     LD    (NEXT_ROW_POS+1),HL
 195++C6EF ED 43 FD C6                  LD    (TEMPO+1),BC
 196++C6F3 C3 F6 C5                     JP    NEXT_ROW
 197++C6F6
 198++C6F6 5E           ORDER_LOOP:     LD    E,(HL)
 199++C6F7 23                           INC   HL
 200++C6F8 56                           LD    D,(HL)
 201++C6F9 EB                           EX    DE,HL
 202++C6FA 18 E0                        JR    NEXT_POS_READ
 203++C6FC
 204++C6FC              PLAY_ROW:
 205++C6FC 11 00 00     TEMPO:          LD    DE,0
 206++C6FF              DRUM:
 207++C6FF 01 00 00     CNT0:           LD    BC,0
 208++C702 21 00 00     PREV_HL         LD    HL,0
 209++C705 D9                           EXX
 210++C706 11 00 00     CNT1:           LD    DE,0
 211++C709 31 00 00     CNT2:           LD    SP,0
 212++C70C D9                           EXX
 213++C70D
 214++C70D              SOUND_LOOP:
 215++C70D 09                           ADD   HL,BC            ; 11 Ts
 216++C70E 7C                           LD    A,H              ;  4 Ts
 217++C70F D9                           EXX                    ;  4 Ts
 218++C710 FE 80        DUTY0:          CP    128              ;  7 Ts
 219++C712 9F                           SBC   A,A              ;  4 Ts
 220++C713 A1                           AND   C                ;  4 Ts
 221++C714 DD 19                        ADD   IX,DE            ; 15 Ts
 222++C716 D3 FE                        OUT   ($FE),A          ; 11 Ts
 223++C718 DD 7C                        LD    A,IXH            ;  8 Ts
 224++C71A FE 80        DUTY1:          CP    128              ;  7 Ts
 225++C71C 9F                           SBC   A,A              ;  4 Ts
 226++C71D A1                           AND   C                ;  4 Ts
 227++C71E D3 FE                        OUT   ($FE),A          ; 11 Ts
 228++C720 39                           ADD   HL,SP            ; 11 Ts
 229++C721 7C                           LD    A,H              ;  4 Ts
 230++C722 FE 80        DUTY2:          CP    128              ;  7 Ts
 231++C724 9F                           SBC   A,A              ;  4 Ts
 232++C725 A1                           AND   C                ;  4 Ts
 233++C726 D9                           EXX                    ;  4 Ts
 234++C727 1D                           DEC   E                ;  4 Ts
 235++C728 D3 FE                        OUT   ($FE),A          ; 11 Ts
 236++C72A C2 0D C7                     JP    NZ,SOUND_LOOP    ; 10 Ts  = 153
 237++C72D 15                           DEC   D                ;  4 Ts
 238++C72E C2 0D C7                     JP    NZ,SOUND_LOOP    ; 10 Ts
 239++C731 AF                           XOR   A
 240++C732 D3 FE                        OUT   ($FE),A
 241++C734 22 03 C7                     LD    (PREV_HL + 1),HL
 242++C737
 243++C737 DB 1F                        IN    A,($1F)
 244++C739 E6 1F                        AND   $1F
 245++C73B 4F                           LD    C,A
 246++C73C AF                           XOR   A
 247++C73D DB FE                        IN    A,($FE)
 248++C73F 2F                           CPL
 249++C740 B1           CHECK_KEMPSTON: OR    C            ; This is set to NOP if no kempston i/f detected
 250++C741 E6 1F                        AND   $1F
 251++C743 CA F6 C5                     JP    Z,NEXT_ROW   ; Jump to next row unless key/joystick pressed
 252++C746
 253++C746              STOP_PLAYER:
 254++C746 31 00 00     PREV_SP:        LD    SP,0
 255++C749 E1                           POP   HL
 256++C74A D9                           EXX
 257++C74B FD E1                        POP   IY
 258++C74D FB                           EI
 259++C74E C9                           RET
 260++C74F
 261++C74F              DRUM_SETTINGS:
 262++C74F 01 01                        DEFB  $01,$01     ; 1: Tone, Highest
 263++C751 01 02                        DEFB  $01,$02
 264++C753 01 04                        DEFB  $01,$04
 265++C755 01 08                        DEFB  $01,$08
 266++C757 01 20                        DEFB  $01,$20
 267++C759 20 04                        DEFB  $20,$04
 268++C75B 40 04                        DEFB  $40,$04
 269++C75D 40 08                        DEFB  $40,$08     ; 8: Lowest
 270++C75F 04 80                        DEFB  $04,$80     ; 9: Special
 271++C761 08 80                        DEFB  $08,$80
 272++C763 10 80                        DEFB  $10,$80
 273++C765 10 02                        DEFB  $10,$02
 274++C767 20 02                        DEFB  $20,$02
 275++C769 40 02                        DEFB  $40,$02
 276++C76B 16 01                        DEFB  $16,$01     ; 15: Noise, Highest
 277++C76D 16 02                        DEFB  $16,$02
 278++C76F 16 04                        DEFB  $16,$04
 279++C771 16 08                        DEFB  $16,$08
 280++C773 16 10                        DEFB  $16,$10
 281++C775 00 01                        DEFB  $00,$01
 282++C777 00 02                        DEFB  $00,$02
 283++C779 00 04                        DEFB  $00,$04
 284++C77B 00 08                        DEFB  $00,$08
 285++C77D 00 10                        DEFB  $00,$10     ; 24: Last drum
# file closed: /Users/random/zx-engine/core/routines/music_tritone.asm
  73++C77F
  74++C77F                include "data/music/AER/foryou.asm"
# file opened: /Users/random/zx-engine/data/music/AER/foryou.asm
   1++C77F              ; ************************************************************************
   2++C77F              ; * Song data...
   3++C77F              ; ************************************************************************
   4++C77F
   5++C77F              ; *** DATA ***
   6++C77F              MUSICDATA:
   7++C77F
   8++C77F              ; *** Song layout ***
   9++C77F CD C7        LOOPSTART:            DEFW      PAT0
  10++C781 08 C8                              DEFW      PAT1
  11++C783 CD C7                              DEFW      PAT0
  12++C785 08 C8                              DEFW      PAT1
  13++C787 47 C8                              DEFW      PAT2
  14++C789 8E C8                              DEFW      PAT3
  15++C78B 47 C8                              DEFW      PAT2
  16++C78D D9 C8                              DEFW      PAT4
  17++C78F 25 C9                              DEFW      PAT5
  18++C791 7F C9                              DEFW      PAT6
  19++C793 25 C9                              DEFW      PAT5
  20++C795 7F C9                              DEFW      PAT6
  21++C797 DB C9                              DEFW      PAT7
  22++C799 DB C9                              DEFW      PAT7
  23++C79B DB C9                              DEFW      PAT7
  24++C79D DB C9                              DEFW      PAT7
  25++C79F 38 CA                              DEFW      PAT8
  26++C7A1 8E CA                              DEFW      PAT9
  27++C7A3 38 CA                              DEFW      PAT8
  28++C7A5 8E CA                              DEFW      PAT9
  29++C7A7 EA CA                              DEFW      PAT10
  30++C7A9 44 CB                              DEFW      PAT11
  31++C7AB EA CA                              DEFW      PAT10
  32++C7AD 9E CB                              DEFW      PAT12
  33++C7AF F4 CB                              DEFW      PAT13
  34++C7B1 F4 CB                              DEFW      PAT13
  35++C7B3 F4 CB                              DEFW      PAT13
  36++C7B5 F4 CB                              DEFW      PAT13
  37++C7B7 52 CC                              DEFW      PAT14
  38++C7B9 52 CC                              DEFW      PAT14
  39++C7BB 52 CC                              DEFW      PAT14
  40++C7BD 52 CC                              DEFW      PAT14
  41++C7BF F4 CB                              DEFW      PAT13
  42++C7C1 F4 CB                              DEFW      PAT13
  43++C7C3 F4 CB                              DEFW      PAT13
  44++C7C5 F4 CB                              DEFW      PAT13
  45++C7C7 AF CC                              DEFW      PAT15
  46++C7C9 00 00                              DEFW      $0000
  47++C7CB 7F C7                              DEFW      LOOPSTART
  48++C7CD
  49++C7CD              ; *** Patterns ***
  50++C7CD              PAT0:
  51++C7CD 6C 0E                        DEFW  3692     ; Pattern tempo
  52++C7CF                              ;    Drum,Chan.1 ,Chan.2 ,Chan.3
  53++C7CF 00 00 F1 D8                  DEFB      $00    ,$00    ,$F1,$D8
  54++C7D3 01 01 F1 D8                  DEFB      $01    ,$01    ,$F1,$D8
  55++C7D7 01 01 F3 B0                  DEFB      $01    ,$01    ,$F3,$B0
  56++C7DB 01 01 F1 D8                  DEFB      $01    ,$01    ,$F1,$D8
  57++C7DF 01 01 01                     DEFB      $01    ,$01    ,$01
  58++C7E2 01 01 00                     DEFB      $01    ,$01    ,$00
  59++C7E5 01 01 01                     DEFB      $01    ,$01    ,$01
  60++C7E8 01 01 01                     DEFB      $01    ,$01    ,$01
  61++C7EB 01 01 F1 D8                  DEFB      $01    ,$01    ,$F1,$D8
  62++C7EF 01 01 F1 D8                  DEFB      $01    ,$01    ,$F1,$D8
  63++C7F3 01 01 F3 B0                  DEFB      $01    ,$01    ,$F3,$B0
  64++C7F7 01 01 F1 D8                  DEFB      $01    ,$01    ,$F1,$D8
  65++C7FB 01 01 01                     DEFB      $01    ,$01    ,$01
  66++C7FE 01 01 00                     DEFB      $01    ,$01    ,$00
  67++C801 01 01 01                     DEFB      $01    ,$01    ,$01
  68++C804 01 01 01                     DEFB      $01    ,$01    ,$01
  69++C807 FF                           DEFB  $FF  ; End of Pattern
  70++C808
  71++C808              PAT1:
  72++C808 6C 0E                        DEFW  3692     ; Pattern tempo
  73++C80A                              ;    Drum,Chan.1 ,Chan.2 ,Chan.3
  74++C80A 00 00 F1 D8                  DEFB      $00    ,$00    ,$F1,$D8
  75++C80E 01 01 F1 D8                  DEFB      $01    ,$01    ,$F1,$D8
  76++C812 01 01 F3 B0                  DEFB      $01    ,$01    ,$F3,$B0
  77++C816 01 01 F1 D8                  DEFB      $01    ,$01    ,$F1,$D8
  78++C81A 01 01 01                     DEFB      $01    ,$01    ,$01
  79++C81D 01 01 00                     DEFB      $01    ,$01    ,$00
  80++C820 01 01 01                     DEFB      $01    ,$01    ,$01
  81++C823 01 01 01                     DEFB      $01    ,$01    ,$01
  82++C826 01 01 F1 D8                  DEFB      $01    ,$01    ,$F1,$D8
  83++C82A 01 01 F1 D8                  DEFB      $01    ,$01    ,$F1,$D8
  84++C82E 01 01 F3 B0                  DEFB      $01    ,$01    ,$F3,$B0
  85++C832 01 01 F1 D8                  DEFB      $01    ,$01    ,$F1,$D8
  86++C836 01 01 F1 A4                  DEFB      $01    ,$01    ,$F1,$A4
  87++C83A 01 01 F3 49                  DEFB      $01    ,$01    ,$F3,$49
  88++C83E 01 01 F1 76                  DEFB      $01    ,$01    ,$F1,$76
  89++C842 01 01 F2 ED                  DEFB      $01    ,$01    ,$F2,$ED
  90++C846 FF                           DEFB  $FF  ; End of Pattern
  91++C847
  92++C847              PAT2:
  93++C847 6C 0E                        DEFW  3692     ; Pattern tempo
  94++C849                              ;    Drum,Chan.1 ,Chan.2 ,Chan.3
  95++C849 06 00 C1 D8                  DEFB  $06,$00    ,$C1,$D8,$F1,$D8
  95++C84D F1 D8
  96++C84F 01 00 F1 D8                  DEFB      $01    ,$00    ,$F1,$D8
  97++C853 01 C2 C3 F3                  DEFB      $01    ,$C2,$C3,$F3,$B0
  97++C857 B0
  98++C858 01 00 F1 D8                  DEFB      $01    ,$00    ,$F1,$D8
  99++C85C 06 01 C2 ED                  DEFB  $06,$01    ,$C2,$ED,$01
  99++C860 01
 100++C861 01 00 00                     DEFB      $01    ,$00    ,$00
 101++C864 01 C2 C3 01                  DEFB      $01    ,$C2,$C3,$01
 102++C868 01 00 01                     DEFB      $01    ,$00    ,$01
 103++C86B 06 01 C1 D8                  DEFB  $06,$01    ,$C1,$D8,$F1,$D8
 103++C86F F1 D8
 104++C871 01 00 F1 D8                  DEFB      $01    ,$00    ,$F1,$D8
 105++C875 01 C2 C3 F3                  DEFB      $01    ,$C2,$C3,$F3,$B0
 105++C879 B0
 106++C87A 01 00 F1 D8                  DEFB      $01    ,$00    ,$F1,$D8
 107++C87E 06 01 C2 ED                  DEFB  $06,$01    ,$C2,$ED,$01
 107++C882 01
 108++C883 01 00 00                     DEFB      $01    ,$00    ,$00
 109++C886 01 C2 C3 01                  DEFB      $01    ,$C2,$C3,$01
 110++C88A 01 00 01                     DEFB      $01    ,$00    ,$01
 111++C88D FF                           DEFB  $FF  ; End of Pattern
 112++C88E
 113++C88E              PAT3:
 114++C88E 6C 0E                        DEFW  3692     ; Pattern tempo
 115++C890                              ;    Drum,Chan.1 ,Chan.2 ,Chan.3
 116++C890 06 00 C1 D8                  DEFB  $06,$00    ,$C1,$D8,$F1,$D8
 116++C894 F1 D8
 117++C896 01 00 F1 D8                  DEFB      $01    ,$00    ,$F1,$D8
 118++C89A 01 C2 C3 F3                  DEFB      $01    ,$C2,$C3,$F3,$B0
 118++C89E B0
 119++C89F 01 00 F1 D8                  DEFB      $01    ,$00    ,$F1,$D8
 120++C8A3 06 01 C2 ED                  DEFB  $06,$01    ,$C2,$ED,$01
 120++C8A7 01
 121++C8A8 01 00 00                     DEFB      $01    ,$00    ,$00
 122++C8AB 01 C2 C3 01                  DEFB      $01    ,$C2,$C3,$01
 123++C8AF 01 00 01                     DEFB      $01    ,$00    ,$01
 124++C8B2 06 01 C1 D8                  DEFB  $06,$01    ,$C1,$D8,$F1,$D8
 124++C8B6 F1 D8
 125++C8B8 01 00 F1 D8                  DEFB      $01    ,$00    ,$F1,$D8
 126++C8BC 01 C2 C3 F3                  DEFB      $01    ,$C2,$C3,$F3,$B0
 126++C8C0 B0
 127++C8C1 01 00 F1 D8                  DEFB      $01    ,$00    ,$F1,$D8
 128++C8C5 06 01 C2 ED                  DEFB  $06,$01    ,$C2,$ED,$F1,$A4
 128++C8C9 F1 A4
 129++C8CB 01 00 F3 49                  DEFB      $01    ,$00    ,$F3,$49
 130++C8CF 01 C2 C3 F1                  DEFB      $01    ,$C2,$C3,$F1,$76
 130++C8D3 76
 131++C8D4 01 00 F2 ED                  DEFB      $01    ,$00    ,$F2,$ED
 132++C8D8 FF                           DEFB  $FF  ; End of Pattern
 133++C8D9
 134++C8D9              PAT4:
 135++C8D9 6C 0E                        DEFW  3692     ; Pattern tempo
 136++C8DB                              ;    Drum,Chan.1 ,Chan.2 ,Chan.3
 137++C8DB 06 00 C1 D8                  DEFB  $06,$00    ,$C1,$D8,$F1,$D8
 137++C8DF F1 D8
 138++C8E1 01 00 F1 D8                  DEFB      $01    ,$00    ,$F1,$D8
 139++C8E5 01 C2 C3 F3                  DEFB      $01    ,$C2,$C3,$F3,$B0
 139++C8E9 B0
 140++C8EA 01 00 F1 D8                  DEFB      $01    ,$00    ,$F1,$D8
 141++C8EE 06 01 C2 ED                  DEFB  $06,$01    ,$C2,$ED,$01
 141++C8F2 01
 142++C8F3 01 00 00                     DEFB      $01    ,$00    ,$00
 143++C8F6 01 C2 C3 01                  DEFB      $01    ,$C2,$C3,$01
 144++C8FA 01 00 01                     DEFB      $01    ,$00    ,$01
 145++C8FD 06 01 C1 D8                  DEFB  $06,$01    ,$C1,$D8,$F1,$D8
 145++C901 F1 D8
 146++C903 01 00 F1 D8                  DEFB      $01    ,$00    ,$F1,$D8
 147++C907 01 C2 C3 F3                  DEFB      $01    ,$C2,$C3,$F3,$B0
 147++C90B B0
 148++C90C 01 00 F1 D8                  DEFB      $01    ,$00    ,$F1,$D8
 149++C910 06 F0 76 C2                  DEFB  $06,$F0,$76,$C2,$ED,$F1,$A4
 149++C914 ED F1 A4
 150++C917 F0 9D 01 00                  DEFB      $F0,$9D,$01    ,$00
 151++C91B F0 BB 01 01                  DEFB      $F0,$BB,$01    ,$01
 152++C91F F0 D2 01 F2                  DEFB      $F0,$D2,$01    ,$F2,$ED
 152++C923 ED
 153++C924 FF                           DEFB  $FF  ; End of Pattern
 154++C925
 155++C925              PAT5:
 156++C925 6C 0E                        DEFW  3692     ; Pattern tempo
 157++C927                              ;    Drum,Chan.1 ,Chan.2 ,Chan.3
 158++C927 06 B0 76 C1                  DEFB  $06,$B0,$76,$C1,$D8,$F1,$D8
 158++C92B D8 F1 D8
 159++C92E 00 F3 B0 F1                  DEFB      $00    ,$F3,$B0,$F1,$D8
 159++C932 D8
 160++C933 B0 76 C2 C3                  DEFB      $B0,$76,$C2,$C3,$F3,$B0
 160++C937 F3 B0
 161++C939 00 F7 60 F1                  DEFB      $00    ,$F7,$60,$F1,$D8
 161++C93D D8
 162++C93E 03 B0 76 C2                  DEFB  $03,$B0,$76,$C2,$ED,$01
 162++C942 ED 01
 163++C944 00 F3 B0 00                  DEFB      $00    ,$F3,$B0,$00
 164++C948 B0 EC C2 C3                  DEFB      $B0,$EC,$C2,$C3,$01
 164++C94C 01
 165++C94D B0 FA F6 92                  DEFB      $B0,$FA,$F6,$92,$01
 165++C951 01
 166++C952 06 B0 76 C1                  DEFB  $06,$B0,$76,$C1,$D8,$F1,$D8
 166++C956 D8 F1 D8
 167++C959 00 F7 60 F1                  DEFB      $00    ,$F7,$60,$F1,$D8
 167++C95D D8
 168++C95E B0 76 C2 C3                  DEFB      $B0,$76,$C2,$C3,$F3,$B0
 168++C962 F3 B0
 169++C964 00 F3 B0 F1                  DEFB      $00    ,$F3,$B0,$F1,$D8
 169++C968 D8
 170++C969 03 B0 76 C2                  DEFB  $03,$B0,$76,$C2,$ED,$01
 170++C96D ED 01
 171++C96F B0 9D F7 60                  DEFB      $B0,$9D,$F7,$60,$00
 171++C973 00
 172++C974 B0 EC C2 C3                  DEFB      $B0,$EC,$C2,$C3,$01
 172++C978 01
 173++C979 B0 9D F3 B0                  DEFB      $B0,$9D,$F3,$B0,$01
 173++C97D 01
 174++C97E FF                           DEFB  $FF  ; End of Pattern
 175++C97F
 176++C97F              PAT6:
 177++C97F 6C 0E                        DEFW  3692     ; Pattern tempo
 178++C981                              ;    Drum,Chan.1 ,Chan.2 ,Chan.3
 179++C981 06 B0 76 C1                  DEFB  $06,$B0,$76,$C1,$D8,$F1,$D8
 179++C985 D8 F1 D8
 180++C988 00 F3 B0 F1                  DEFB      $00    ,$F3,$B0,$F1,$D8
 180++C98C D8
 181++C98D B0 76 C2 C3                  DEFB      $B0,$76,$C2,$C3,$F3,$B0
 181++C991 F3 B0
 182++C993 00 F7 60 F1                  DEFB      $00    ,$F7,$60,$F1,$D8
 182++C997 D8
 183++C998 03 B0 76 C2                  DEFB  $03,$B0,$76,$C2,$ED,$01
 183++C99C ED 01
 184++C99E 00 F3 B0 00                  DEFB      $00    ,$F3,$B0,$00
 185++C9A2 B0 EC C2 C3                  DEFB      $B0,$EC,$C2,$C3,$01
 185++C9A6 01
 186++C9A7 B0 FA F6 92                  DEFB      $B0,$FA,$F6,$92,$01
 186++C9AB 01
 187++C9AC 06 B0 76 C1                  DEFB  $06,$B0,$76,$C1,$D8,$F1,$D8
 187++C9B0 D8 F1 D8
 188++C9B3 00 F7 60 F1                  DEFB      $00    ,$F7,$60,$F1,$D8
 188++C9B7 D8
 189++C9B8 B0 76 C2 C3                  DEFB      $B0,$76,$C2,$C3,$F3,$B0
 189++C9BC F3 B0
 190++C9BE 00 F3 B0 F1                  DEFB      $00    ,$F3,$B0,$F1,$D8
 190++C9C2 D8
 191++C9C3 03 B0 76 C2                  DEFB  $03,$B0,$76,$C2,$ED,$00
 191++C9C7 ED 00
 192++C9C9 B0 9D F7 60                  DEFB      $B0,$9D,$F7,$60,$01
 192++C9CD 01
 193++C9CE 03 B0 EC C2                  DEFB  $03,$B0,$EC,$C2,$C3,$01
 193++C9D2 C3 01
 194++C9D4 03 B0 9D F3                  DEFB  $03,$B0,$9D,$F3,$B0,$01
 194++C9D8 B0 01
 195++C9DA FF                           DEFB  $FF  ; End of Pattern
 196++C9DB
 197++C9DB              PAT7:
 198++C9DB 6C 0E                        DEFW  3692     ; Pattern tempo
 199++C9DD                              ;    Drum,Chan.1 ,Chan.2 ,Chan.3
 200++C9DD 06 B0 84 C2                  DEFB  $06,$B0,$84,$C2,$76,$F2,$11
 200++C9E1 76 F2 11
 201++C9E4 00 F2 11 F2                  DEFB      $00    ,$F2,$11,$F2,$11
 201++C9E8 11
 202++C9E9 B0 84 C2 C3                  DEFB      $B0,$84,$C2,$C3,$F4,$23
 202++C9ED F4 23
 203++C9EF 00 F2 11 F2                  DEFB      $00    ,$F2,$11,$F2,$11
 203++C9F3 11
 204++C9F4 03 B0 84 C1                  DEFB  $03,$B0,$84,$C1,$61,$01
 204++C9F8 61 01
 205++C9FA 00 F2 11 F1                  DEFB      $00    ,$F2,$11,$F1,$08
 205++C9FE 08
 206++C9FF B1 08 C2 C3                  DEFB      $B1,$08,$C2,$C3,$00
 206++CA03 00
 207++CA04 B1 18 F2 11                  DEFB      $B1,$18,$F2,$11,$01
 207++CA08 01
 208++CA09 06 B0 84 C2                  DEFB  $06,$B0,$84,$C2,$76,$F2,$11
 208++CA0D 76 F2 11
 209++CA10 00 F2 C3 F2                  DEFB      $00    ,$F2,$C3,$F2,$11
 209++CA14 11
 210++CA15 B0 84 C2 C3                  DEFB      $B0,$84,$C2,$C3,$F4,$23
 210++CA19 F4 23
 211++CA1B 00 F2 C3 F2                  DEFB      $00    ,$F2,$C3,$F2,$11
 211++CA1F 11
 212++CA20 03 B0 84 C1                  DEFB  $03,$B0,$84,$C1,$61,$01
 212++CA24 61 01
 213++CA26 B0 B0 F2 C3                  DEFB      $B0,$B0,$F2,$C3,$00
 213++CA2A 00
 214++CA2B B1 08 C2 C3                  DEFB      $B1,$08,$C2,$C3,$F2,$31
 214++CA2F F2 31
 215++CA31 B0 B0 F2 C3                  DEFB      $B0,$B0,$F2,$C3,$F1,$D8
 215++CA35 F1 D8
 216++CA37 FF                           DEFB  $FF  ; End of Pattern
 217++CA38
 218++CA38              PAT8:
 219++CA38 6C 0E                        DEFW  3692     ; Pattern tempo
 220++CA3A                              ;    Drum,Chan.1 ,Chan.2 ,Chan.3
 221++CA3A 06 B0 76 D3                  DEFB  $06,$B0,$76,$D3,$B0,$F1,$D8
 221++CA3E B0 F1 D8
 222++CA41 00 D3 B0 F1                  DEFB      $00    ,$D3,$B0,$F1,$D8
 222++CA45 D8
 223++CA46 B0 76 D3 B0                  DEFB      $B0,$76,$D3,$B0,$F3,$B0
 223++CA4A F3 B0
 224++CA4C 00 D3 B0 F1                  DEFB      $00    ,$D3,$B0,$F1,$D8
 224++CA50 D8
 225++CA51 03 B0 76 01                  DEFB  $03,$B0,$76,$01    ,$01
 225++CA55 01
 226++CA56 00 01 00                     DEFB      $00    ,$01    ,$00
 227++CA59 B0 EC D1 D8                  DEFB      $B0,$EC,$D1,$D8,$01
 227++CA5D 01
 228++CA5E B0 FA D3 B0                  DEFB      $B0,$FA,$D3,$B0,$01
 228++CA62 01
 229++CA63 06 B0 76 D4                  DEFB  $06,$B0,$76,$D4,$63,$F1,$D8
 229++CA67 63 F1 D8
 230++CA6A 00 D1 D8 F1                  DEFB      $00    ,$D1,$D8,$F1,$D8
 230++CA6E D8
 231++CA6F B0 76 D3 B0                  DEFB      $B0,$76,$D3,$B0,$F3,$B0
 231++CA73 F3 B0
 232++CA75 00 D4 63 F1                  DEFB      $00    ,$D4,$63,$F1,$D8
 232++CA79 D8
 233++CA7A 03 B0 76 D3                  DEFB  $03,$B0,$76,$D3,$B0,$01
 233++CA7E B0 01
 234++CA80 B0 9D D1 D8                  DEFB      $B0,$9D,$D1,$D8,$00
 234++CA84 00
 235++CA85 B0 EC 01 01                  DEFB      $B0,$EC,$01    ,$01
 236++CA89 B0 9D 01 01                  DEFB      $B0,$9D,$01    ,$01
 237++CA8D FF                           DEFB  $FF  ; End of Pattern
 238++CA8E
 239++CA8E              PAT9:
 240++CA8E 6C 0E                        DEFW  3692     ; Pattern tempo
 241++CA90                              ;    Drum,Chan.1 ,Chan.2 ,Chan.3
 242++CA90 06 B0 76 C5                  DEFB  $06,$B0,$76,$C5,$DB,$F1,$D8
 242++CA94 DB F1 D8
 243++CA97 00 C5 DB F1                  DEFB      $00    ,$C5,$DB,$F1,$D8
 243++CA9B D8
 244++CA9C B0 76 C5 86                  DEFB      $B0,$76,$C5,$86,$F3,$B0
 244++CAA0 F3 B0
 245++CAA2 00 C4 E7 F1                  DEFB      $00    ,$C4,$E7,$F1,$D8
 245++CAA6 D8
 246++CAA7 03 B0 76 C5                  DEFB  $03,$B0,$76,$C5,$DB,$01
 246++CAAB DB 01
 247++CAAD 00 C5 DB 00                  DEFB      $00    ,$C5,$DB,$00
 248++CAB1 B0 EC C5 86                  DEFB      $B0,$EC,$C5,$86,$01
 248++CAB5 01
 249++CAB6 B0 FA C4 E7                  DEFB      $B0,$FA,$C4,$E7,$01
 249++CABA 01
 250++CABB 06 B0 76 C3                  DEFB  $06,$B0,$76,$C3,$E8,$F1,$D8
 250++CABF E8 F1 D8
 251++CAC2 00 C3 E8 F1                  DEFB      $00    ,$C3,$E8,$F1,$D8
 251++CAC6 D8
 252++CAC7 B0 76 C3 B0                  DEFB      $B0,$76,$C3,$B0,$F3,$B0
 252++CACB F3 B0
 253++CACD 00 C3 49 F1                  DEFB      $00    ,$C3,$49,$F1,$D8
 253++CAD1 D8
 254++CAD2 03 B0 76 C3                  DEFB  $03,$B0,$76,$C3,$E8,$00
 254++CAD6 E8 00
 255++CAD8 B0 9D C3 E8                  DEFB      $B0,$9D,$C3,$E8,$01
 255++CADC 01
 256++CADD 03 B0 EC C3                  DEFB  $03,$B0,$EC,$C3,$B0,$01
 256++CAE1 B0 01
 257++CAE3 03 B0 9D C3                  DEFB  $03,$B0,$9D,$C3,$49,$01
 257++CAE7 49 01
 258++CAE9 FF                           DEFB  $FF  ; End of Pattern
 259++CAEA
 260++CAEA              PAT10:
 261++CAEA 6C 0E                        DEFW  3692     ; Pattern tempo
 262++CAEC                              ;    Drum,Chan.1 ,Chan.2 ,Chan.3
 263++CAEC 06 B0 76 D4                  DEFB  $06,$B0,$76,$D4,$63,$F1,$D8
 263++CAF0 63 F1 D8
 264++CAF3 00 D3 B0 F1                  DEFB      $00    ,$D3,$B0,$F1,$D8
 264++CAF7 D8
 265++CAF8 B0 76 D3 B0                  DEFB      $B0,$76,$D3,$B0,$F3,$B0
 265++CAFC F3 B0
 266++CAFE 00 D3 B0 F1                  DEFB      $00    ,$D3,$B0,$F1,$D8
 266++CB02 D8
 267++CB03 03 B0 76 D1                  DEFB  $03,$B0,$76,$D1,$D8,$01
 267++CB07 D8 01
 268++CB09 00 D3 49 00                  DEFB      $00    ,$D3,$49,$00
 269++CB0D B0 EC D3 B0                  DEFB      $B0,$EC,$D3,$B0,$01
 269++CB11 01
 270++CB12 B0 FA D1 D8                  DEFB      $B0,$FA,$D1,$D8,$01
 270++CB16 01
 271++CB17 06 B0 76 D3                  DEFB  $06,$B0,$76,$D3,$B0,$F1,$D8
 271++CB1B B0 F1 D8
 272++CB1E 00 D1 D8 F1                  DEFB      $00    ,$D1,$D8,$F1,$D8
 272++CB22 D8
 273++CB23 B0 76 D3 49                  DEFB      $B0,$76,$D3,$49,$F3,$B0
 273++CB27 F3 B0
 274++CB29 00 D3 B0 F1                  DEFB      $00    ,$D3,$B0,$F1,$D8
 274++CB2D D8
 275++CB2E 03 B0 76 D1                  DEFB  $03,$B0,$76,$D1,$D8,$01
 275++CB32 D8 01
 276++CB34 B0 9D D1 F4                  DEFB      $B0,$9D,$D1,$F4,$00
 276++CB38 00
 277++CB39 B0 EC D3 E8                  DEFB      $B0,$EC,$D3,$E8,$01
 277++CB3D 01
 278++CB3E B0 9D D2 31                  DEFB      $B0,$9D,$D2,$31,$01
 278++CB42 01
 279++CB43 FF                           DEFB  $FF  ; End of Pattern
 280++CB44
 281++CB44              PAT11:
 282++CB44 6C 0E                        DEFW  3692     ; Pattern tempo
 283++CB46                              ;    Drum,Chan.1 ,Chan.2 ,Chan.3
 284++CB46 06 B0 76 D2                  DEFB  $06,$B0,$76,$D2,$76,$F1,$D8
 284++CB4A 76 F1 D8
 285++CB4D 00 D2 76 F1                  DEFB      $00    ,$D2,$76,$F1,$D8
 285++CB51 D8
 286++CB52 B0 76 D1 F4                  DEFB      $B0,$76,$D1,$F4,$F3,$B0
 286++CB56 F3 B0
 287++CB58 00 D2 76 F1                  DEFB      $00    ,$D2,$76,$F1,$D8
 287++CB5C D8
 288++CB5D 03 B0 76 D2                  DEFB  $03,$B0,$76,$D2,$31,$01
 288++CB61 31 01
 289++CB63 00 D2 31 00                  DEFB      $00    ,$D2,$31,$00
 290++CB67 B0 EC D1 D8                  DEFB      $B0,$EC,$D1,$D8,$01
 290++CB6B 01
 291++CB6C B0 FA D2 31                  DEFB      $B0,$FA,$D2,$31,$01
 291++CB70 01
 292++CB71 06 B0 76 D1                  DEFB  $06,$B0,$76,$D1,$F4,$F1,$D8
 292++CB75 F4 F1 D8
 293++CB78 00 D1 F4 F1                  DEFB      $00    ,$D1,$F4,$F1,$D8
 293++CB7C D8
 294++CB7D B0 76 D1 A4                  DEFB      $B0,$76,$D1,$A4,$F3,$B0
 294++CB81 F3 B0
 295++CB83 00 D1 F4 F1                  DEFB      $00    ,$D1,$F4,$F1,$D8
 295++CB87 D8
 296++CB88 03 B0 76 D1                  DEFB  $03,$B0,$76,$D1,$D8,$01
 296++CB8C D8 01
 297++CB8E B0 9D D1 D8                  DEFB      $B0,$9D,$D1,$D8,$00
 297++CB92 00
 298++CB93 B0 EC D1 76                  DEFB      $B0,$EC,$D1,$76,$01
 298++CB97 01
 299++CB98 B0 9D D1 D8                  DEFB      $B0,$9D,$D1,$D8,$01
 299++CB9C 01
 300++CB9D FF                           DEFB  $FF  ; End of Pattern
 301++CB9E
 302++CB9E              PAT12:
 303++CB9E 6C 0E                        DEFW  3692     ; Pattern tempo
 304++CBA0                              ;    Drum,Chan.1 ,Chan.2 ,Chan.3
 305++CBA0 06 B0 76 D2                  DEFB  $06,$B0,$76,$D2,$76,$F1,$D8
 305++CBA4 76 F1 D8
 306++CBA7 00 D2 76 F1                  DEFB      $00    ,$D2,$76,$F1,$D8
 306++CBAB D8
 307++CBAC B0 76 D1 F4                  DEFB      $B0,$76,$D1,$F4,$F3,$B0
 307++CBB0 F3 B0
 308++CBB2 00 D2 76 F1                  DEFB      $00    ,$D2,$76,$F1,$D8
 308++CBB6 D8
 309++CBB7 03 B0 76 D2                  DEFB  $03,$B0,$76,$D2,$31,$01
 309++CBBB 31 01
 310++CBBD 00 D2 31 00                  DEFB      $00    ,$D2,$31,$00
 311++CBC1 B0 EC D1 D8                  DEFB      $B0,$EC,$D1,$D8,$01
 311++CBC5 01
 312++CBC6 B0 FA D2 31                  DEFB      $B0,$FA,$D2,$31,$01
 312++CBCA 01
 313++CBCB 06 B0 76 D1                  DEFB  $06,$B0,$76,$D1,$F4,$F1,$D8
 313++CBCF F4 F1 D8
 314++CBD2 00 D1 F4 F1                  DEFB      $00    ,$D1,$F4,$F1,$D8
 314++CBD6 D8
 315++CBD7 B0 76 D1 A4                  DEFB      $B0,$76,$D1,$A4,$F3,$B0
 315++CBDB F3 B0
 316++CBDD 00 D1 F4 F1                  DEFB      $00    ,$D1,$F4,$F1,$D8
 316++CBE1 D8
 317++CBE2 03 B0 76 D1                  DEFB  $03,$B0,$76,$D1,$D8,$01
 317++CBE6 D8 01
 318++CBE8 00 00 00                     DEFB      $00    ,$00    ,$00
 319++CBEB B0 EC D1 76                  DEFB      $B0,$EC,$D1,$76,$01
 319++CBEF 01
 320++CBF0 00 00 01                     DEFB      $00    ,$00    ,$01
 321++CBF3 FF                           DEFB  $FF  ; End of Pattern
 322++CBF4
 323++CBF4              PAT13:
 324++CBF4 6C 0E                        DEFW  3692     ; Pattern tempo
 325++CBF6                              ;    Drum,Chan.1 ,Chan.2 ,Chan.3
 326++CBF6 06 B0 76 C1                  DEFB  $06,$B0,$76,$C1,$D8,$F1,$D8
 326++CBFA D8 F1 D8
 327++CBFD 00 F0 EC F1                  DEFB      $00    ,$F0,$EC,$F1,$D8
 327++CC01 D8
 328++CC02 B0 76 C2 76                  DEFB      $B0,$76,$C2,$76,$F3,$B0
 328++CC06 F3 B0
 329++CC08 00 F0 EC F1                  DEFB      $00    ,$F0,$EC,$F1,$D8
 329++CC0C D8
 330++CC0D 03 B0 76 C2                  DEFB  $03,$B0,$76,$C2,$C3,$F0,$EC
 330++CC11 C3 F0 EC
 331++CC14 00 F1 D8 F1                  DEFB      $00    ,$F1,$D8,$F1,$D8
 331++CC18 D8
 332++CC19 B0 EC C2 76                  DEFB      $B0,$EC,$C2,$76,$F1,$3B
 332++CC1D F1 3B
 333++CC1F B0 FA F0 EC                  DEFB      $B0,$FA,$F0,$EC,$01
 333++CC23 01
 334++CC24 06 B0 76 C2                  DEFB  $06,$B0,$76,$C2,$ED,$F1,$D8
 334++CC28 ED F1 D8
 335++CC2B 00 F1 A4 F1                  DEFB      $00    ,$F1,$A4,$F1,$D8
 335++CC2F D8
 336++CC30 B0 76 C2 C3                  DEFB      $B0,$76,$C2,$C3,$F3,$B0
 336++CC34 F3 B0
 337++CC36 00 F1 D8 F1                  DEFB      $00    ,$F1,$D8,$F1,$D8
 337++CC3A D8
 338++CC3B 03 B0 76 C2                  DEFB  $03,$B0,$76,$C2,$76,$01
 338++CC3F 76 01
 339++CC41 B0 9D F0 EC                  DEFB      $B0,$9D,$F0,$EC,$F1,$D8
 339++CC45 F1 D8
 340++CC47 B0 EC C2 C3                  DEFB      $B0,$EC,$C2,$C3,$01
 340++CC4B 01
 341++CC4C B0 9D F1 D8                  DEFB      $B0,$9D,$F1,$D8,$01
 341++CC50 01
 342++CC51 FF                           DEFB  $FF  ; End of Pattern
 343++CC52
 344++CC52              PAT14:
 345++CC52 6C 0E                        DEFW  3692     ; Pattern tempo
 346++CC54                              ;    Drum,Chan.1 ,Chan.2 ,Chan.3
 347++CC54 06 B0 76 C0                  DEFB  $06,$B0,$76,$C0,$EC,$F1,$D8
 347++CC58 EC F1 D8
 348++CC5B 00 F2 76 F1                  DEFB      $00    ,$F2,$76,$F1,$D8
 348++CC5F D8
 349++CC60 B0 76 C0 EC                  DEFB      $B0,$76,$C0,$EC,$F3,$B0
 349++CC64 F3 B0
 350++CC66 00 F2 76 F1                  DEFB      $00    ,$F2,$76,$F1,$D8
 350++CC6A D8
 351++CC6B 03 B0 76 C1                  DEFB  $03,$B0,$76,$C1,$D8,$01
 351++CC6F D8 01
 352++CC71 00 F1 3B F1                  DEFB      $00    ,$F1,$3B,$F1,$D8
 352++CC75 D8
 353++CC76 B0 EC C0 EC                  DEFB      $B0,$EC,$C0,$EC,$01
 353++CC7A 01
 354++CC7B B0 FA F2 76                  DEFB      $B0,$FA,$F2,$76,$01
 354++CC7F 01
 355++CC80 06 B0 76 C1                  DEFB  $06,$B0,$76,$C1,$A4,$F1,$D8
 355++CC84 A4 F1 D8
 356++CC87 00 F1 3B F1                  DEFB      $00    ,$F1,$3B,$F1,$D8
 356++CC8B D8
 357++CC8C B0 76 C1 D8                  DEFB      $B0,$76,$C1,$D8,$F3,$B0
 357++CC90 F3 B0
 358++CC92 00 F2 76 F1                  DEFB      $00    ,$F2,$76,$F1,$D8
 358++CC96 D8
 359++CC97 03 B0 76 C0                  DEFB  $03,$B0,$76,$C0,$EC,$01
 359++CC9B EC 01
 360++CC9D B0 9D F2 ED                  DEFB      $B0,$9D,$F2,$ED,$F1,$76
 360++CCA1 F1 76
 361++CCA3 B0 EC C1 D8                  DEFB      $B0,$EC,$C1,$D8,$F0,$EC
 361++CCA7 F0 EC
 362++CCA9 B0 9D F2 76                  DEFB      $B0,$9D,$F2,$76,$01
 362++CCAD 01
 363++CCAE FF                           DEFB  $FF  ; End of Pattern
 364++CCAF
 365++CCAF              PAT15:
 366++CCAF 6C 0E                        DEFW  3692     ; Pattern tempo
 367++CCB1                              ;    Drum,Chan.1 ,Chan.2 ,Chan.3
 368++CCB1 06 B0 76 C1                  DEFB  $06,$B0,$76,$C1,$D8,$F1,$D8
 368++CCB5 D8 F1 D8
 369++CCB8 01 01 01                     DEFB      $01    ,$01    ,$01
 370++CCBB 01 01 01                     DEFB      $01    ,$01    ,$01
 371++CCBE 01 01 01                     DEFB      $01    ,$01    ,$01
 372++CCC1 03 01 01 01                  DEFB  $03,$01    ,$01    ,$01
 373++CCC5 01 01 00                     DEFB      $01    ,$01    ,$00
 374++CCC8 01 01 01                     DEFB      $01    ,$01    ,$01
 375++CCCB 01 00 01                     DEFB      $01    ,$00    ,$01
 376++CCCE 01 01 01                     DEFB      $01    ,$01    ,$01
 377++CCD1 01 01 01                     DEFB      $01    ,$01    ,$01
 378++CCD4 00 01 01                     DEFB      $00    ,$01    ,$01
 379++CCD7 01 01 01                     DEFB      $01    ,$01    ,$01
 380++CCDA 01 01 01                     DEFB      $01    ,$01    ,$01
 381++CCDD 01 01 01                     DEFB      $01    ,$01    ,$01
 382++CCE0 01 01 01                     DEFB      $01    ,$01    ,$01
 383++CCE3 01 01 01                     DEFB      $01    ,$01    ,$01
 384++CCE6 FF                           DEFB  $FF  ; End of Pattern
 385++CCE7
# file closed: /Users/random/zx-engine/data/music/AER/foryou.asm
  75++CCE7
  76++CCE7                MODULE gameover
  77++CCE7                include "data/music/AER/gameover.asm"
# file opened: /Users/random/zx-engine/data/music/AER/gameover.asm
   1++CCE7                              ; ORG 40000
   2++CCE7              MUSICDATA:
   3++CCE7
   4++CCE7              ; *** Song layout ***
   5++CCE7 EF CC        LOOPSTART:            DEFW      PAT0
   6++CCE9 45 CD                              DEFW      PAT1
   7++CCEB 00 00                              DEFW      $0000
   8++CCED E7 CC                              DEFW      LOOPSTART
   9++CCEF
  10++CCEF              ; *** Patterns ***
  11++CCEF              PAT0:
  12++CCEF 6C 0E                        DEFW  3692     ; Pattern tempo
  13++CCF1                              ;    Drum,Chan.1 ,Chan.2 ,Chan.3
  14++CCF1 08 83 B0 C1                  DEFB  $08,$83,$B0,$C1,$3B,$F1,$D8
  14++CCF5 3B F1 D8
  15++CCF8 08 01 C1 76                  DEFB  $08,$01    ,$C1,$76,$01
  15++CCFC 01
  16++CCFD 08 00 C2 ED                  DEFB  $08,$00    ,$C2,$ED,$00
  16++CD01 00
  17++CD02 08 01 C1 76                  DEFB  $08,$01    ,$C1,$76,$F2,$76
  17++CD06 F2 76
  18++CD08 08 83 B0 C2                  DEFB  $08,$83,$B0,$C2,$C3,$01
  18++CD0C C3 01
  19++CD0E 01 C1 61 F3                  DEFB      $01    ,$C1,$61,$F3,$B0
  19++CD12 B0
  20++CD13 00 C2 76 F1                  DEFB      $00    ,$C2,$76,$F1,$F4
  20++CD17 F4
  21++CD18 01 C0 FA 00                  DEFB      $01    ,$C0,$FA,$00
  22++CD1C 08 83 B0 C1                  DEFB  $08,$83,$B0,$C1,$F4,$F2,$76
  22++CD20 F4 F2 76
  23++CD23 00 00 F3 B0                  DEFB      $00    ,$00    ,$F3,$B0
  24++CD27 01 C1 D8 F2                  DEFB      $01    ,$C1,$D8,$F2,$31
  24++CD2B 31
  25++CD2C 00 C3 B0 F2                  DEFB      $00    ,$C3,$B0,$F2,$76
  25++CD30 76
  26++CD31 83 B0 C1 D8                  DEFB      $83,$B0,$C1,$D8,$F1,$F4
  26++CD35 F1 F4
  27++CD37 00 C1 18 00                  DEFB      $00    ,$C1,$18,$00
  28++CD3B 01 C0 FA F2                  DEFB      $01    ,$C0,$FA,$F2,$76
  28++CD3F 76
  29++CD40 01 C0 EC 00                  DEFB      $01    ,$C0,$EC,$00
  30++CD44 FF                           DEFB  $FF  ; End of Pattern
  31++CD45
  32++CD45              PAT1:
  33++CD45 6C 0E                        DEFW  3692     ; Pattern tempo
  34++CD47                              ;    Drum,Chan.1 ,Chan.2 ,Chan.3
  35++CD47 E0 DE F1 BD                  DEFB      $E0,$DE,$F1,$BD,$F3,$7B
  35++CD4B F3 7B
  36++CD4D 01 01 01                     DEFB      $01    ,$01    ,$01
  37++CD50 01 01 01                     DEFB      $01    ,$01    ,$01
  38++CD53 01 01 01                     DEFB      $01    ,$01    ,$01
  39++CD56 01 01 01                     DEFB      $01    ,$01    ,$01
  40++CD59 01 01 01                     DEFB      $01    ,$01    ,$01
  41++CD5C 01 01 01                     DEFB      $01    ,$01    ,$01
  42++CD5F 08 01 01 01                  DEFB  $08,$01    ,$01    ,$01
  43++CD63 08 01 01 01                  DEFB  $08,$01    ,$01    ,$01
  44++CD67 08 01 01 01                  DEFB  $08,$01    ,$01    ,$01
  45++CD6B 08 01 01 01                  DEFB  $08,$01    ,$01    ,$01
  46++CD6F 08 01 01 01                  DEFB  $08,$01    ,$01    ,$01
  47++CD73 08 01 01 01                  DEFB  $08,$01    ,$01    ,$01
  48++CD77 01 01 00                     DEFB      $01    ,$01    ,$00
  49++CD7A 08 01 00 01                  DEFB  $08,$01    ,$00    ,$01
  50++CD7E 01 01 01                     DEFB      $01    ,$01    ,$01
  51++CD81 FF                           DEFB  $FF  ; End of Pattern
  52++CD82
# file closed: /Users/random/zx-engine/data/music/AER/gameover.asm
  78++CD82                ENDMODULE
  79++CD82
  80++CD82                MODULE gameend
  81++CD82                include "data/music/AER/gameend.asm"
# file opened: /Users/random/zx-engine/data/music/AER/gameend.asm
   1++CD82                              ; ORG 40000
   2++CD82              MUSICDATA:
   3++CD82
   4++CD82              ; *** Song layout ***
   5++CD82 9A CD                              DEFW      PAT0
   6++CD84 C4 CF                              DEFW      PAT7
   7++CD86 EC CD        LOOPSTART:            DEFW      PAT1
   8++CD88 3B CE                              DEFW      PAT2
   9++CD8A EC CD                              DEFW      PAT1
  10++CD8C 89 CE                              DEFW      PAT3
  11++CD8E D9 CE                              DEFW      PAT4
  12++CD90 28 CF                              DEFW      PAT5
  13++CD92 D9 CE                              DEFW      PAT4
  14++CD94 76 CF                              DEFW      PAT6
  15++CD96 00 00                              DEFW      $0000
  16++CD98 86 CD                              DEFW      LOOPSTART
  17++CD9A
  18++CD9A              ; *** Patterns ***
  19++CD9A              PAT0:
  20++CD9A 6C 0E                        DEFW  3692     ; Pattern tempo
  21++CD9C                              ;    Drum,Chan.1 ,Chan.2 ,Chan.3
  22++CD9C 08 81 D8 00                  DEFB  $08,$81,$D8,$00    ,$80,$EC
  22++CDA0 80 EC
  23++CDA2 00 81 D8 01                  DEFB      $00    ,$81,$D8,$01
  24++CDA6 83 B0 00 01                  DEFB      $83,$B0,$00    ,$01
  25++CDAA 00 83 B0 01                  DEFB      $00    ,$83,$B0,$01
  26++CDAE 03 81 D8 00                  DEFB  $03,$81,$D8,$00    ,$01
  26++CDB2 01
  27++CDB3 00 81 D8 01                  DEFB      $00    ,$81,$D8,$01
  28++CDB7 83 B0 00 81                  DEFB      $83,$B0,$00    ,$81,$3B
  28++CDBB 3B
  29++CDBC 00 83 B0 01                  DEFB      $00    ,$83,$B0,$01
  30++CDC0 08 81 D8 00                  DEFB  $08,$81,$D8,$00    ,$80,$76
  30++CDC4 80 76
  31++CDC6 00 81 D8 01                  DEFB      $00    ,$81,$D8,$01
  32++CDCA 83 B0 00 80                  DEFB      $83,$B0,$00    ,$80,$EC
  32++CDCE EC
  33++CDCF 82 C3 83 B0                  DEFB      $82,$C3,$83,$B0,$01
  33++CDD3 01
  34++CDD4 03 82 31 82                  DEFB  $03,$82,$31,$82,$C3,$80,$8C
  34++CDD8 C3 80 8C
  35++CDDB 08 00 82 31                  DEFB  $08,$00    ,$82,$31,$01
  35++CDDF 01
  36++CDE0 08 82 31 00                  DEFB  $08,$82,$31,$00    ,$81,$18
  36++CDE4 81 18
  37++CDE6 82 C3 82 C3                  DEFB      $82,$C3,$82,$C3,$01
  37++CDEA 01
  38++CDEB FF                           DEFB  $FF  ; End of Pattern
  39++CDEC
  40++CDEC              PAT1:
  41++CDEC 6C 0E                        DEFW  3692     ; Pattern tempo
  42++CDEE                              ;    Drum,Chan.1 ,Chan.2 ,Chan.3
  43++CDEE 08 81 D8 F5                  DEFB  $08,$81,$D8,$F5,$86,$80,$EC
  43++CDF2 86 80 EC
  44++CDF5 00 01 01                     DEFB      $00    ,$01    ,$01
  45++CDF8 83 B0 01 01                  DEFB      $83,$B0,$01    ,$01
  46++CDFC 00 F4 E7 01                  DEFB      $00    ,$F4,$E7,$01
  47++CE00 03 81 D8 01                  DEFB  $03,$81,$D8,$01    ,$01
  47++CE04 01
  48++CE05 00 F2 76 01                  DEFB      $00    ,$F2,$76,$01
  49++CE09 83 B0 F4 63                  DEFB      $83,$B0,$F4,$63,$81,$3B
  49++CE0D 81 3B
  50++CE0F 00 01 01                     DEFB      $00    ,$01    ,$01
  51++CE12 08 81 D8 F2                  DEFB  $08,$81,$D8,$F2,$76,$80,$76
  51++CE16 76 80 76
  52++CE19 00 01 01                     DEFB      $00    ,$01    ,$01
  53++CE1C 83 B0 01 80                  DEFB      $83,$B0,$01    ,$80,$EC
  53++CE20 EC
  54++CE21 82 C3 01 01                  DEFB      $82,$C3,$01    ,$01
  55++CE25 03 82 31 F3                  DEFB  $03,$82,$31,$F3,$B0,$80,$8C
  55++CE29 B0 80 8C
  56++CE2C 08 00 01 01                  DEFB  $08,$00    ,$01    ,$01
  57++CE30 08 82 31 01                  DEFB  $08,$82,$31,$01    ,$81,$18
  57++CE34 81 18
  58++CE36 82 C3 01 01                  DEFB      $82,$C3,$01    ,$01
  59++CE3A FF                           DEFB  $FF  ; End of Pattern
  60++CE3B
  61++CE3B              PAT2:
  62++CE3B 6C 0E                        DEFW  3692     ; Pattern tempo
  63++CE3D                              ;    Drum,Chan.1 ,Chan.2 ,Chan.3
  64++CE3D 08 81 D8 C5                  DEFB  $08,$81,$D8,$C5,$86,$80,$EC
  64++CE41 86 80 EC
  65++CE44 00 01 01                     DEFB      $00    ,$01    ,$01
  66++CE47 83 B0 01 01                  DEFB      $83,$B0,$01    ,$01
  67++CE4B 00 C4 E7 01                  DEFB      $00    ,$C4,$E7,$01
  68++CE4F 03 81 D8 01                  DEFB  $03,$81,$D8,$01    ,$01
  68++CE53 01
  69++CE54 00 C2 76 01                  DEFB      $00    ,$C2,$76,$01
  70++CE58 83 B0 C4 63                  DEFB      $83,$B0,$C4,$63,$81,$3B
  70++CE5C 81 3B
  71++CE5E 00 01 01                     DEFB      $00    ,$01    ,$01
  72++CE61 08 81 76 C2                  DEFB  $08,$81,$76,$C2,$ED,$80,$BB
  72++CE65 ED 80 BB
  73++CE68 00 01 01                     DEFB      $00    ,$01    ,$01
  74++CE6B 82 ED 01 81                  DEFB      $82,$ED,$01    ,$81,$76
  74++CE6F 76
  75++CE70 81 76 01 01                  DEFB      $81,$76,$01    ,$01
  76++CE74 03 82 ED 01                  DEFB  $03,$82,$ED,$01    ,$80,$BB
  76++CE78 80 BB
  77++CE7A 08 00 01 01                  DEFB  $08,$00    ,$01    ,$01
  78++CE7E 08 81 D8 01                  DEFB  $08,$81,$D8,$01    ,$81,$76
  78++CE82 81 76
  79++CE84 83 B0 01 01                  DEFB      $83,$B0,$01    ,$01
  80++CE88 FF                           DEFB  $FF  ; End of Pattern
  81++CE89
  82++CE89              PAT3:
  83++CE89 6C 0E                        DEFW  3692     ; Pattern tempo
  84++CE8B                              ;    Drum,Chan.1 ,Chan.2 ,Chan.3
  85++CE8B 08 81 D8 C5                  DEFB  $08,$81,$D8,$C5,$86,$80,$EC
  85++CE8F 86 80 EC
  86++CE92 00 01 01                     DEFB      $00    ,$01    ,$01
  87++CE95 83 B0 01 01                  DEFB      $83,$B0,$01    ,$01
  88++CE99 00 C4 E7 01                  DEFB      $00    ,$C4,$E7,$01
  89++CE9D 03 81 D8 01                  DEFB  $03,$81,$D8,$01    ,$01
  89++CEA1 01
  90++CEA2 00 C2 76 01                  DEFB      $00    ,$C2,$76,$01
  91++CEA6 83 B0 C4 63                  DEFB      $83,$B0,$C4,$63,$81,$3B
  91++CEAA 81 3B
  92++CEAC 00 01 01                     DEFB      $00    ,$01    ,$01
  93++CEAF 08 81 76 C2                  DEFB  $08,$81,$76,$C2,$ED,$80,$BB
  93++CEB3 ED 80 BB
  94++CEB6 00 01 01                     DEFB      $00    ,$01    ,$01
  95++CEB9 03 82 ED 01                  DEFB  $03,$82,$ED,$01    ,$81,$76
  95++CEBD 81 76
  96++CEBF 81 76 01 01                  DEFB      $81,$76,$01    ,$01
  97++CEC3 03 82 ED 01                  DEFB  $03,$82,$ED,$01    ,$80,$BB
  97++CEC7 80 BB
  98++CEC9 03 00 01 01                  DEFB  $03,$00    ,$01    ,$01
  99++CECD 03 81 D8 01                  DEFB  $03,$81,$D8,$01    ,$81,$76
  99++CED1 81 76
 100++CED3 03 83 B0 01                  DEFB  $03,$83,$B0,$01    ,$01
 100++CED7 01
 101++CED8 FF                           DEFB  $FF  ; End of Pattern
 102++CED9
 103++CED9              PAT4:
 104++CED9 6C 0E                        DEFW  3692     ; Pattern tempo
 105++CEDB                              ;    Drum,Chan.1 ,Chan.2 ,Chan.3
 106++CEDB 08 82 11 F6                  DEFB  $08,$82,$11,$F6,$34,$81,$08
 106++CEDF 34 81 08
 107++CEE2 00 01 01                     DEFB      $00    ,$01    ,$01
 108++CEE5 84 23 01 01                  DEFB      $84,$23,$01    ,$01
 109++CEE9 00 F5 86 01                  DEFB      $00    ,$F5,$86,$01
 110++CEED 03 82 11 01                  DEFB  $03,$82,$11,$01    ,$01
 110++CEF1 01
 111++CEF2 00 F2 C3 01                  DEFB      $00    ,$F2,$C3,$01
 112++CEF6 84 23 F4 E7                  DEFB      $84,$23,$F4,$E7,$81,$61
 112++CEFA 81 61
 113++CEFC 00 01 01                     DEFB      $00    ,$01    ,$01
 114++CEFF 08 82 11 F2                  DEFB  $08,$82,$11,$F2,$C3,$80,$84
 114++CF03 C3 80 84
 115++CF06 00 01 01                     DEFB      $00    ,$01    ,$01
 116++CF09 84 23 01 81                  DEFB      $84,$23,$01    ,$81,$08
 116++CF0D 08
 117++CF0E 83 1A 01 01                  DEFB      $83,$1A,$01    ,$01
 118++CF12 03 82 76 F4                  DEFB  $03,$82,$76,$F4,$23,$80,$9D
 118++CF16 23 80 9D
 119++CF19 08 00 01 01                  DEFB  $08,$00    ,$01    ,$01
 120++CF1D 08 82 76 01                  DEFB  $08,$82,$76,$01    ,$81,$3B
 120++CF21 81 3B
 121++CF23 83 1A 01 01                  DEFB      $83,$1A,$01    ,$01
 122++CF27 FF                           DEFB  $FF  ; End of Pattern
 123++CF28
 124++CF28              PAT5:
 125++CF28 6C 0E                        DEFW  3692     ; Pattern tempo
 126++CF2A                              ;    Drum,Chan.1 ,Chan.2 ,Chan.3
 127++CF2A 08 82 11 C6                  DEFB  $08,$82,$11,$C6,$34,$81,$08
 127++CF2E 34 81 08
 128++CF31 00 01 01                     DEFB      $00    ,$01    ,$01
 129++CF34 84 23 01 01                  DEFB      $84,$23,$01    ,$01
 130++CF38 00 C5 86 01                  DEFB      $00    ,$C5,$86,$01
 131++CF3C 03 82 11 01                  DEFB  $03,$82,$11,$01    ,$01
 131++CF40 01
 132++CF41 00 C2 C3 01                  DEFB      $00    ,$C2,$C3,$01
 133++CF45 84 23 C4 E7                  DEFB      $84,$23,$C4,$E7,$81,$61
 133++CF49 81 61
 134++CF4B 00 01 01                     DEFB      $00    ,$01    ,$01
 135++CF4E 08 81 A4 C3                  DEFB  $08,$81,$A4,$C3,$49,$80,$D2
 135++CF52 49 80 D2
 136++CF55 00 01 01                     DEFB      $00    ,$01    ,$01
 137++CF58 83 49 01 81                  DEFB      $83,$49,$01    ,$81,$A4
 137++CF5C A4
 138++CF5D 81 A4 01 01                  DEFB      $81,$A4,$01    ,$01
 139++CF61 03 83 49 01                  DEFB  $03,$83,$49,$01    ,$80,$D2
 139++CF65 80 D2
 140++CF67 08 00 01 01                  DEFB  $08,$00    ,$01    ,$01
 141++CF6B 08 82 11 01                  DEFB  $08,$82,$11,$01    ,$81,$A4
 141++CF6F 81 A4
 142++CF71 84 23 01 01                  DEFB      $84,$23,$01    ,$01
 143++CF75 FF                           DEFB  $FF  ; End of Pattern
 144++CF76
 145++CF76              PAT6:
 146++CF76 6C 0E                        DEFW  3692     ; Pattern tempo
 147++CF78                              ;    Drum,Chan.1 ,Chan.2 ,Chan.3
 148++CF78 08 82 11 C6                  DEFB  $08,$82,$11,$C6,$34,$81,$08
 148++CF7C 34 81 08
 149++CF7F 00 01 01                     DEFB      $00    ,$01    ,$01
 150++CF82 84 23 01 01                  DEFB      $84,$23,$01    ,$01
 151++CF86 00 C5 86 01                  DEFB      $00    ,$C5,$86,$01
 152++CF8A 03 82 11 01                  DEFB  $03,$82,$11,$01    ,$01
 152++CF8E 01
 153++CF8F 00 C2 C3 01                  DEFB      $00    ,$C2,$C3,$01
 154++CF93 84 23 C4 E7                  DEFB      $84,$23,$C4,$E7,$81,$61
 154++CF97 81 61
 155++CF99 00 01 01                     DEFB      $00    ,$01    ,$01
 156++CF9C 08 81 A4 C3                  DEFB  $08,$81,$A4,$C3,$49,$80,$D2
 156++CFA0 49 80 D2
 157++CFA3 00 01 01                     DEFB      $00    ,$01    ,$01
 158++CFA6 03 83 49 01                  DEFB  $03,$83,$49,$01    ,$81,$A4
 158++CFAA 81 A4
 159++CFAC 81 A4 01 01                  DEFB      $81,$A4,$01    ,$01
 160++CFB0 03 00 C1 A4                  DEFB  $03,$00    ,$C1,$A4,$80,$D2
 160++CFB4 80 D2
 161++CFB6 03 80 9D 00                  DEFB  $03,$80,$9D,$00    ,$00
 161++CFBA 00
 162++CFBB 03 01 00 01                  DEFB  $03,$01    ,$00    ,$01
 163++CFBF 03 01 01 01                  DEFB  $03,$01    ,$01    ,$01
 164++CFC3 FF                           DEFB  $FF  ; End of Pattern
 165++CFC4
 166++CFC4              PAT7:
 167++CFC4 6C 0E                        DEFW  3692     ; Pattern tempo
 168++CFC6                              ;    Drum,Chan.1 ,Chan.2 ,Chan.3
 169++CFC6 08 81 D8 00                  DEFB  $08,$81,$D8,$00    ,$80,$EC
 169++CFCA 80 EC
 170++CFCC 00 81 D8 01                  DEFB      $00    ,$81,$D8,$01
 171++CFD0 83 B0 00 01                  DEFB      $83,$B0,$00    ,$01
 172++CFD4 00 83 B0 01                  DEFB      $00    ,$83,$B0,$01
 173++CFD8 03 81 D8 00                  DEFB  $03,$81,$D8,$00    ,$01
 173++CFDC 01
 174++CFDD 00 81 D8 01                  DEFB      $00    ,$81,$D8,$01
 175++CFE1 83 B0 00 81                  DEFB      $83,$B0,$00    ,$81,$3B
 175++CFE5 3B
 176++CFE6 00 83 B0 01                  DEFB      $00    ,$83,$B0,$01
 177++CFEA 08 81 D8 00                  DEFB  $08,$81,$D8,$00    ,$80,$76
 177++CFEE 80 76
 178++CFF0 00 81 D8 01                  DEFB      $00    ,$81,$D8,$01
 179++CFF4 08 83 B0 00                  DEFB  $08,$83,$B0,$00    ,$80,$EC
 179++CFF8 80 EC
 180++CFFA 82 C3 83 B0                  DEFB      $82,$C3,$83,$B0,$01
 180++CFFE 01
 181++CFFF 08 82 31 82                  DEFB  $08,$82,$31,$82,$C3,$80,$8C
 181++D003 C3 80 8C
 182++D006 00 00 00                     DEFB      $00    ,$00    ,$00
 183++D009 08 82 31 00                  DEFB  $08,$82,$31,$00    ,$81,$18
 183++D00D 81 18
 184++D00F 00 00 00                     DEFB      $00    ,$00    ,$00
 185++D012 FF                           DEFB  $FF  ; End of Pattern
 186++D013
# file closed: /Users/random/zx-engine/data/music/AER/gameend.asm
  82++D013                ENDMODULE
  83++D013
  84++D013              TRITONE_END
  85++D013
  86++D013              DISPLAY "FX_SET ", FX_SET
# file closed: /Users/random/zx-engine/static.asm
   6+ D013              dynamic:
   7+ D013                include "dynamic.asm"
# file opened: /Users/random/zx-engine/dynamic.asm
   1++D013              MAP_MASK:
   2++D013                DUP mapSize*mapSize
   3++D013 00          >  defb 0; 0 - ячейка еще не просмотрена
   3++D014 00          >  defb 0; 0 - ячейка еще не просмотрена
   3++D015 00          >  defb 0; 0 - ячейка еще не просмотрена
   3++D016 00          >  defb 0; 0 - ячейка еще не просмотрена
   3++D017 00          >  defb 0; 0 - ячейка еще не просмотрена
   3++D018 00          >  defb 0; 0 - ячейка еще не просмотрена
   3++D019 00          >  defb 0; 0 - ячейка еще не просмотрена
   3++D01A 00          >  defb 0; 0 - ячейка еще не просмотрена
   3++D01B 00          >  defb 0; 0 - ячейка еще не просмотрена
   3++D01C 00          >  defb 0; 0 - ячейка еще не просмотрена
   3++D01D 00          >  defb 0; 0 - ячейка еще не просмотрена
   3++D01E 00          >  defb 0; 0 - ячейка еще не просмотрена
   3++D01F 00          >  defb 0; 0 - ячейка еще не просмотрена
   3++D020 00          >  defb 0; 0 - ячейка еще не просмотрена
   3++D021 00          >  defb 0; 0 - ячейка еще не просмотрена
   3++D022 00          >  defb 0; 0 - ячейка еще не просмотрена
   3++D023 00          >  defb 0; 0 - ячейка еще не просмотрена
   3++D024 00          >  defb 0; 0 - ячейка еще не просмотрена
   3++D025 00          >  defb 0; 0 - ячейка еще не просмотрена
   3++D026 00          >  defb 0; 0 - ячейка еще не просмотрена
   3++D027 00          >  defb 0; 0 - ячейка еще не просмотрена
   3++D028 00          >  defb 0; 0 - ячейка еще не просмотрена
   3++D029 00          >  defb 0; 0 - ячейка еще не просмотрена
   3++D02A 00          >  defb 0; 0 - ячейка еще не просмотрена
   3++D02B 00          >  defb 0; 0 - ячейка еще не просмотрена
   3++D02C 00          >  defb 0; 0 - ячейка еще не просмотрена
   3++D02D 00          >  defb 0; 0 - ячейка еще не просмотрена
   3++D02E 00          >  defb 0; 0 - ячейка еще не просмотрена
   3++D02F 00          >  defb 0; 0 - ячейка еще не просмотрена
   3++D030 00          >  defb 0; 0 - ячейка еще не просмотрена
   3++D031 00          >  defb 0; 0 - ячейка еще не просмотрена
   3++D032 00          >  defb 0; 0 - ячейка еще не просмотрена
   3++D033 00          >  defb 0; 0 - ячейка еще не просмотрена
   3++D034 00          >  defb 0; 0 - ячейка еще не просмотрена
   3++D035 00          >  defb 0; 0 - ячейка еще не просмотрена
   3++D036 00          >  defb 0; 0 - ячейка еще не просмотрена
   3++D037 00          >  defb 0; 0 - ячейка еще не просмотрена
   3++D038 00          >  defb 0; 0 - ячейка еще не просмотрена
   3++D039 00          >  defb 0; 0 - ячейка еще не просмотрена
   3++D03A 00          >  defb 0; 0 - ячейка еще не просмотрена
   3++D03B 00          >  defb 0; 0 - ячейка еще не просмотрена
   3++D03C 00          >  defb 0; 0 - ячейка еще не просмотрена
   3++D03D 00          >  defb 0; 0 - ячейка еще не просмотрена
   3++D03E 00          >  defb 0; 0 - ячейка еще не просмотрена
   3++D03F 00          >  defb 0; 0 - ячейка еще не просмотрена
   3++D040 00          >  defb 0; 0 - ячейка еще не просмотрена
   3++D041 00          >  defb 0; 0 - ячейка еще не просмотрена
   3++D042 00          >  defb 0; 0 - ячейка еще не просмотрена
   3++D043 00          >  defb 0; 0 - ячейка еще не просмотрена
   3++D044 00          >  defb 0; 0 - ячейка еще не просмотрена
   3++D045 00          >  defb 0; 0 - ячейка еще не просмотрена
   3++D046 00          >  defb 0; 0 - ячейка еще не просмотрена
   3++D047 00          >  defb 0; 0 - ячейка еще не просмотрена
   3++D048 00          >  defb 0; 0 - ячейка еще не просмотрена
   3++D049 00          >  defb 0; 0 - ячейка еще не просмотрена
   3++D04A 00          >  defb 0; 0 - ячейка еще не просмотрена
   3++D04B 00          >  defb 0; 0 - ячейка еще не просмотрена
   3++D04C 00          >  defb 0; 0 - ячейка еще не просмотрена
   3++D04D 00          >  defb 0; 0 - ячейка еще не просмотрена
   3++D04E 00          >  defb 0; 0 - ячейка еще не просмотрена
   3++D04F 00          >  defb 0; 0 - ячейка еще не просмотрена
   3++D050 00          >  defb 0; 0 - ячейка еще не просмотрена
   3++D051 00          >  defb 0; 0 - ячейка еще не просмотрена
   3++D052 00          >  defb 0; 0 - ячейка еще не просмотрена
   3++D053 00          >  defb 0; 0 - ячейка еще не просмотрена
   3++D054 00          >  defb 0; 0 - ячейка еще не просмотрена
   3++D055 00          >  defb 0; 0 - ячейка еще не просмотрена
   3++D056 00          >  defb 0; 0 - ячейка еще не просмотрена
   3++D057 00          >  defb 0; 0 - ячейка еще не просмотрена
   3++D058 00          >  defb 0; 0 - ячейка еще не просмотрена
   3++D059 00          >  defb 0; 0 - ячейка еще не просмотрена
   3++D05A 00          >  defb 0; 0 - ячейка еще не просмотрена
   3++D05B 00          >  defb 0; 0 - ячейка еще не просмотрена
   3++D05C 00          >  defb 0; 0 - ячейка еще не просмотрена
   3++D05D 00          >  defb 0; 0 - ячейка еще не просмотрена
   3++D05E 00          >  defb 0; 0 - ячейка еще не просмотрена
   3++D05F 00          >  defb 0; 0 - ячейка еще не просмотрена
   3++D060 00          >  defb 0; 0 - ячейка еще не просмотрена
   3++D061 00          >  defb 0; 0 - ячейка еще не просмотрена
   3++D062 00          >  defb 0; 0 - ячейка еще не просмотрена
   3++D063 00          >  defb 0; 0 - ячейка еще не просмотрена
   3++D064 00          >  defb 0; 0 - ячейка еще не просмотрена
   3++D065 00          >  defb 0; 0 - ячейка еще не просмотрена
   3++D066 00          >  defb 0; 0 - ячейка еще не просмотрена
   3++D067 00          >  defb 0; 0 - ячейка еще не просмотрена
   3++D068 00          >  defb 0; 0 - ячейка еще не просмотрена
   3++D069 00          >  defb 0; 0 - ячейка еще не просмотрена
   3++D06A 00          >  defb 0; 0 - ячейка еще не просмотрена
   3++D06B 00          >  defb 0; 0 - ячейка еще не просмотрена
   3++D06C 00          >  defb 0; 0 - ячейка еще не просмотрена
   3++D06D 00          >  defb 0; 0 - ячейка еще не просмотрена
   3++D06E 00          >  defb 0; 0 - ячейка еще не просмотрена
   3++D06F 00          >  defb 0; 0 - ячейка еще не просмотрена
   3++D070 00          >  defb 0; 0 - ячейка еще не просмотрена
   3++D071 00          >  defb 0; 0 - ячейка еще не просмотрена
   3++D072 00          >  defb 0; 0 - ячейка еще не просмотрена
   3++D073 00          >  defb 0; 0 - ячейка еще не просмотрена
   3++D074 00          >  defb 0; 0 - ячейка еще не просмотрена
   3++D075 00          >  defb 0; 0 - ячейка еще не просмотрена
   3++D076 00          >  defb 0; 0 - ячейка еще не просмотрена
   3++D077 00          >  defb 0; 0 - ячейка еще не просмотрена
   3++D078 00          >  defb 0; 0 - ячейка еще не просмотрена
   3++D079 00          >  defb 0; 0 - ячейка еще не просмотрена
   3++D07A 00          >  defb 0; 0 - ячейка еще не просмотрена
   3++D07B 00          >  defb 0; 0 - ячейка еще не просмотрена
   3++D07C 00          >  defb 0; 0 - ячейка еще не просмотрена
   3++D07D 00          >  defb 0; 0 - ячейка еще не просмотрена
   3++D07E 00          >  defb 0; 0 - ячейка еще не просмотрена
   3++D07F 00          >  defb 0; 0 - ячейка еще не просмотрена
   3++D080 00          >  defb 0; 0 - ячейка еще не просмотрена
   3++D081 00          >  defb 0; 0 - ячейка еще не просмотрена
   3++D082 00          >  defb 0; 0 - ячейка еще не просмотрена
   3++D083 00          >  defb 0; 0 - ячейка еще не просмотрена
   3++D084 00          >  defb 0; 0 - ячейка еще не просмотрена
   3++D085 00          >  defb 0; 0 - ячейка еще не просмотрена
   3++D086 00          >  defb 0; 0 - ячейка еще не просмотрена
   3++D087 00          >  defb 0; 0 - ячейка еще не просмотрена
   3++D088 00          >  defb 0; 0 - ячейка еще не просмотрена
   3++D089 00          >  defb 0; 0 - ячейка еще не просмотрена
   3++D08A 00          >  defb 0; 0 - ячейка еще не просмотрена
   3++D08B 00          >  defb 0; 0 - ячейка еще не просмотрена
   3++D08C 00          >  defb 0; 0 - ячейка еще не просмотрена
   3++D08D 00          >  defb 0; 0 - ячейка еще не просмотрена
   3++D08E 00          >  defb 0; 0 - ячейка еще не просмотрена
   3++D08F 00          >  defb 0; 0 - ячейка еще не просмотрена
   3++D090 00          >  defb 0; 0 - ячейка еще не просмотрена
   3++D091 00          >  defb 0; 0 - ячейка еще не просмотрена
   3++D092 00          >  defb 0; 0 - ячейка еще не просмотрена
   3++D093 00          >  defb 0; 0 - ячейка еще не просмотрена
   3++D094 00          >  defb 0; 0 - ячейка еще не просмотрена
   3++D095 00          >  defb 0; 0 - ячейка еще не просмотрена
   3++D096 00          >  defb 0; 0 - ячейка еще не просмотрена
   3++D097 00          >  defb 0; 0 - ячейка еще не просмотрена
   3++D098 00          >  defb 0; 0 - ячейка еще не просмотрена
   3++D099 00          >  defb 0; 0 - ячейка еще не просмотрена
   3++D09A 00          >  defb 0; 0 - ячейка еще не просмотрена
   3++D09B 00          >  defb 0; 0 - ячейка еще не просмотрена
   3++D09C 00          >  defb 0; 0 - ячейка еще не просмотрена
   3++D09D 00          >  defb 0; 0 - ячейка еще не просмотрена
   3++D09E 00          >  defb 0; 0 - ячейка еще не просмотрена
   3++D09F 00          >  defb 0; 0 - ячейка еще не просмотрена
   3++D0A0 00          >  defb 0; 0 - ячейка еще не просмотрена
   3++D0A1 00          >  defb 0; 0 - ячейка еще не просмотрена
   3++D0A2 00          >  defb 0; 0 - ячейка еще не просмотрена
   3++D0A3 00          >  defb 0; 0 - ячейка еще не просмотрена
   3++D0A4 00          >  defb 0; 0 - ячейка еще не просмотрена
   3++D0A5 00          >  defb 0; 0 - ячейка еще не просмотрена
   3++D0A6 00          >  defb 0; 0 - ячейка еще не просмотрена
   3++D0A7 00          >  defb 0; 0 - ячейка еще не просмотрена
   3++D0A8 00          >  defb 0; 0 - ячейка еще не просмотрена
   3++D0A9 00          >  defb 0; 0 - ячейка еще не просмотрена
   3++D0AA 00          >  defb 0; 0 - ячейка еще не просмотрена
   3++D0AB 00          >  defb 0; 0 - ячейка еще не просмотрена
   3++D0AC 00          >  defb 0; 0 - ячейка еще не просмотрена
   3++D0AD 00          >  defb 0; 0 - ячейка еще не просмотрена
   3++D0AE 00          >  defb 0; 0 - ячейка еще не просмотрена
   3++D0AF 00          >  defb 0; 0 - ячейка еще не просмотрена
   3++D0B0 00          >  defb 0; 0 - ячейка еще не просмотрена
   3++D0B1 00          >  defb 0; 0 - ячейка еще не просмотрена
   3++D0B2 00          >  defb 0; 0 - ячейка еще не просмотрена
   3++D0B3 00          >  defb 0; 0 - ячейка еще не просмотрена
   3++D0B4 00          >  defb 0; 0 - ячейка еще не просмотрена
   3++D0B5 00          >  defb 0; 0 - ячейка еще не просмотрена
   3++D0B6 00          >  defb 0; 0 - ячейка еще не просмотрена
   3++D0B7 00          >  defb 0; 0 - ячейка еще не просмотрена
   3++D0B8 00          >  defb 0; 0 - ячейка еще не просмотрена
   3++D0B9 00          >  defb 0; 0 - ячейка еще не просмотрена
   3++D0BA 00          >  defb 0; 0 - ячейка еще не просмотрена
   3++D0BB 00          >  defb 0; 0 - ячейка еще не просмотрена
   3++D0BC 00          >  defb 0; 0 - ячейка еще не просмотрена
   3++D0BD 00          >  defb 0; 0 - ячейка еще не просмотрена
   3++D0BE 00          >  defb 0; 0 - ячейка еще не просмотрена
   3++D0BF 00          >  defb 0; 0 - ячейка еще не просмотрена
   3++D0C0 00          >  defb 0; 0 - ячейка еще не просмотрена
   3++D0C1 00          >  defb 0; 0 - ячейка еще не просмотрена
   3++D0C2 00          >  defb 0; 0 - ячейка еще не просмотрена
   3++D0C3 00          >  defb 0; 0 - ячейка еще не просмотрена
   3++D0C4 00          >  defb 0; 0 - ячейка еще не просмотрена
   3++D0C5 00          >  defb 0; 0 - ячейка еще не просмотрена
   3++D0C6 00          >  defb 0; 0 - ячейка еще не просмотрена
   3++D0C7 00          >  defb 0; 0 - ячейка еще не просмотрена
   3++D0C8 00          >  defb 0; 0 - ячейка еще не просмотрена
   3++D0C9 00          >  defb 0; 0 - ячейка еще не просмотрена
   3++D0CA 00          >  defb 0; 0 - ячейка еще не просмотрена
   3++D0CB 00          >  defb 0; 0 - ячейка еще не просмотрена
   3++D0CC 00          >  defb 0; 0 - ячейка еще не просмотрена
   3++D0CD 00          >  defb 0; 0 - ячейка еще не просмотрена
   3++D0CE 00          >  defb 0; 0 - ячейка еще не просмотрена
   3++D0CF 00          >  defb 0; 0 - ячейка еще не просмотрена
   3++D0D0 00          >  defb 0; 0 - ячейка еще не просмотрена
   3++D0D1 00          >  defb 0; 0 - ячейка еще не просмотрена
   3++D0D2 00          >  defb 0; 0 - ячейка еще не просмотрена
   3++D0D3 00          >  defb 0; 0 - ячейка еще не просмотрена
   3++D0D4 00          >  defb 0; 0 - ячейка еще не просмотрена
   3++D0D5 00          >  defb 0; 0 - ячейка еще не просмотрена
   3++D0D6 00          >  defb 0; 0 - ячейка еще не просмотрена
   3++D0D7 00          >  defb 0; 0 - ячейка еще не просмотрена
   3++D0D8 00          >  defb 0; 0 - ячейка еще не просмотрена
   3++D0D9 00          >  defb 0; 0 - ячейка еще не просмотрена
   3++D0DA 00          >  defb 0; 0 - ячейка еще не просмотрена
   3++D0DB 00          >  defb 0; 0 - ячейка еще не просмотрена
   3++D0DC 00          >  defb 0; 0 - ячейка еще не просмотрена
   3++D0DD 00          >  defb 0; 0 - ячейка еще не просмотрена
   3++D0DE 00          >  defb 0; 0 - ячейка еще не просмотрена
   3++D0DF 00          >  defb 0; 0 - ячейка еще не просмотрена
   3++D0E0 00          >  defb 0; 0 - ячейка еще не просмотрена
   3++D0E1 00          >  defb 0; 0 - ячейка еще не просмотрена
   3++D0E2 00          >  defb 0; 0 - ячейка еще не просмотрена
   3++D0E3 00          >  defb 0; 0 - ячейка еще не просмотрена
   3++D0E4 00          >  defb 0; 0 - ячейка еще не просмотрена
   3++D0E5 00          >  defb 0; 0 - ячейка еще не просмотрена
   3++D0E6 00          >  defb 0; 0 - ячейка еще не просмотрена
   3++D0E7 00          >  defb 0; 0 - ячейка еще не просмотрена
   3++D0E8 00          >  defb 0; 0 - ячейка еще не просмотрена
   3++D0E9 00          >  defb 0; 0 - ячейка еще не просмотрена
   3++D0EA 00          >  defb 0; 0 - ячейка еще не просмотрена
   3++D0EB 00          >  defb 0; 0 - ячейка еще не просмотрена
   3++D0EC 00          >  defb 0; 0 - ячейка еще не просмотрена
   3++D0ED 00          >  defb 0; 0 - ячейка еще не просмотрена
   3++D0EE 00          >  defb 0; 0 - ячейка еще не просмотрена
   3++D0EF 00          >  defb 0; 0 - ячейка еще не просмотрена
   3++D0F0 00          >  defb 0; 0 - ячейка еще не просмотрена
   3++D0F1 00          >  defb 0; 0 - ячейка еще не просмотрена
   3++D0F2 00          >  defb 0; 0 - ячейка еще не просмотрена
   3++D0F3 00          >  defb 0; 0 - ячейка еще не просмотрена
   3++D0F4 00          >  defb 0; 0 - ячейка еще не просмотрена
   3++D0F5 00          >  defb 0; 0 - ячейка еще не просмотрена
   3++D0F6 00          >  defb 0; 0 - ячейка еще не просмотрена
   3++D0F7 00          >  defb 0; 0 - ячейка еще не просмотрена
   3++D0F8 00          >  defb 0; 0 - ячейка еще не просмотрена
   3++D0F9 00          >  defb 0; 0 - ячейка еще не просмотрена
   3++D0FA 00          >  defb 0; 0 - ячейка еще не просмотрена
   3++D0FB 00          >  defb 0; 0 - ячейка еще не просмотрена
   3++D0FC 00          >  defb 0; 0 - ячейка еще не просмотрена
   3++D0FD 00          >  defb 0; 0 - ячейка еще не просмотрена
   3++D0FE 00          >  defb 0; 0 - ячейка еще не просмотрена
   3++D0FF 00          >  defb 0; 0 - ячейка еще не просмотрена
   3++D100 00          >  defb 0; 0 - ячейка еще не просмотрена
   3++D101 00          >  defb 0; 0 - ячейка еще не просмотрена
   3++D102 00          >  defb 0; 0 - ячейка еще не просмотрена
   3++D103 00          >  defb 0; 0 - ячейка еще не просмотрена
   3++D104 00          >  defb 0; 0 - ячейка еще не просмотрена
   3++D105 00          >  defb 0; 0 - ячейка еще не просмотрена
   3++D106 00          >  defb 0; 0 - ячейка еще не просмотрена
   3++D107 00          >  defb 0; 0 - ячейка еще не просмотрена
   3++D108 00          >  defb 0; 0 - ячейка еще не просмотрена
   3++D109 00          >  defb 0; 0 - ячейка еще не просмотрена
   3++D10A 00          >  defb 0; 0 - ячейка еще не просмотрена
   3++D10B 00          >  defb 0; 0 - ячейка еще не просмотрена
   3++D10C 00          >  defb 0; 0 - ячейка еще не просмотрена
   3++D10D 00          >  defb 0; 0 - ячейка еще не просмотрена
   3++D10E 00          >  defb 0; 0 - ячейка еще не просмотрена
   3++D10F 00          >  defb 0; 0 - ячейка еще не просмотрена
   3++D110 00          >  defb 0; 0 - ячейка еще не просмотрена
   3++D111 00          >  defb 0; 0 - ячейка еще не просмотрена
   3++D112 00          >  defb 0; 0 - ячейка еще не просмотрена
   3++D113 00          >  defb 0; 0 - ячейка еще не просмотрена
   3++D114 00          >  defb 0; 0 - ячейка еще не просмотрена
   3++D115 00          >  defb 0; 0 - ячейка еще не просмотрена
   3++D116 00          >  defb 0; 0 - ячейка еще не просмотрена
   3++D117 00          >  defb 0; 0 - ячейка еще не просмотрена
   3++D118 00          >  defb 0; 0 - ячейка еще не просмотрена
   3++D119 00          >  defb 0; 0 - ячейка еще не просмотрена
   3++D11A 00          >  defb 0; 0 - ячейка еще не просмотрена
   3++D11B 00          >  defb 0; 0 - ячейка еще не просмотрена
   3++D11C 00          >  defb 0; 0 - ячейка еще не просмотрена
   3++D11D 00          >  defb 0; 0 - ячейка еще не просмотрена
   3++D11E 00          >  defb 0; 0 - ячейка еще не просмотрена
   3++D11F 00          >  defb 0; 0 - ячейка еще не просмотрена
   3++D120 00          >  defb 0; 0 - ячейка еще не просмотрена
   3++D121 00          >  defb 0; 0 - ячейка еще не просмотрена
   3++D122 00          >  defb 0; 0 - ячейка еще не просмотрена
   3++D123 00          >  defb 0; 0 - ячейка еще не просмотрена
   3++D124 00          >  defb 0; 0 - ячейка еще не просмотрена
   3++D125 00          >  defb 0; 0 - ячейка еще не просмотрена
   3++D126 00          >  defb 0; 0 - ячейка еще не просмотрена
   3++D127 00          >  defb 0; 0 - ячейка еще не просмотрена
   3++D128 00          >  defb 0; 0 - ячейка еще не просмотрена
   3++D129 00          >  defb 0; 0 - ячейка еще не просмотрена
   3++D12A 00          >  defb 0; 0 - ячейка еще не просмотрена
   3++D12B 00          >  defb 0; 0 - ячейка еще не просмотрена
   3++D12C 00          >  defb 0; 0 - ячейка еще не просмотрена
   3++D12D 00          >  defb 0; 0 - ячейка еще не просмотрена
   3++D12E 00          >  defb 0; 0 - ячейка еще не просмотрена
   3++D12F 00          >  defb 0; 0 - ячейка еще не просмотрена
   3++D130 00          >  defb 0; 0 - ячейка еще не просмотрена
   3++D131 00          >  defb 0; 0 - ячейка еще не просмотрена
   3++D132 00          >  defb 0; 0 - ячейка еще не просмотрена
   3++D133 00          >  defb 0; 0 - ячейка еще не просмотрена
   3++D134 00          >  defb 0; 0 - ячейка еще не просмотрена
   3++D135 00          >  defb 0; 0 - ячейка еще не просмотрена
   3++D136 00          >  defb 0; 0 - ячейка еще не просмотрена
   3++D137 00          >  defb 0; 0 - ячейка еще не просмотрена
   3++D138 00          >  defb 0; 0 - ячейка еще не просмотрена
   3++D139 00          >  defb 0; 0 - ячейка еще не просмотрена
   3++D13A 00          >  defb 0; 0 - ячейка еще не просмотрена
   3++D13B 00          >  defb 0; 0 - ячейка еще не просмотрена
   3++D13C 00          >  defb 0; 0 - ячейка еще не просмотрена
   3++D13D 00          >  defb 0; 0 - ячейка еще не просмотрена
   3++D13E 00          >  defb 0; 0 - ячейка еще не просмотрена
   3++D13F 00          >  defb 0; 0 - ячейка еще не просмотрена
   3++D140 00          >  defb 0; 0 - ячейка еще не просмотрена
   3++D141 00          >  defb 0; 0 - ячейка еще не просмотрена
   3++D142 00          >  defb 0; 0 - ячейка еще не просмотрена
   3++D143 00          >  defb 0; 0 - ячейка еще не просмотрена
   3++D144 00          >  defb 0; 0 - ячейка еще не просмотрена
   3++D145 00          >  defb 0; 0 - ячейка еще не просмотрена
   3++D146 00          >  defb 0; 0 - ячейка еще не просмотрена
   3++D147 00          >  defb 0; 0 - ячейка еще не просмотрена
   3++D148 00          >  defb 0; 0 - ячейка еще не просмотрена
   3++D149 00          >  defb 0; 0 - ячейка еще не просмотрена
   3++D14A 00          >  defb 0; 0 - ячейка еще не просмотрена
   3++D14B 00          >  defb 0; 0 - ячейка еще не просмотрена
   3++D14C 00          >  defb 0; 0 - ячейка еще не просмотрена
   3++D14D 00          >  defb 0; 0 - ячейка еще не просмотрена
   3++D14E 00          >  defb 0; 0 - ячейка еще не просмотрена
   3++D14F 00          >  defb 0; 0 - ячейка еще не просмотрена
   3++D150 00          >  defb 0; 0 - ячейка еще не просмотрена
   3++D151 00          >  defb 0; 0 - ячейка еще не просмотрена
   3++D152 00          >  defb 0; 0 - ячейка еще не просмотрена
   3++D153 00          >  defb 0; 0 - ячейка еще не просмотрена
   3++D154 00          >  defb 0; 0 - ячейка еще не просмотрена
   3++D155 00          >  defb 0; 0 - ячейка еще не просмотрена
   3++D156 00          >  defb 0; 0 - ячейка еще не просмотрена
   3++D157 00          >  defb 0; 0 - ячейка еще не просмотрена
   3++D158 00          >  defb 0; 0 - ячейка еще не просмотрена
   3++D159 00          >  defb 0; 0 - ячейка еще не просмотрена
   3++D15A 00          >  defb 0; 0 - ячейка еще не просмотрена
   3++D15B 00          >  defb 0; 0 - ячейка еще не просмотрена
   3++D15C 00          >  defb 0; 0 - ячейка еще не просмотрена
   3++D15D 00          >  defb 0; 0 - ячейка еще не просмотрена
   3++D15E 00          >  defb 0; 0 - ячейка еще не просмотрена
   3++D15F 00          >  defb 0; 0 - ячейка еще не просмотрена
   3++D160 00          >  defb 0; 0 - ячейка еще не просмотрена
   3++D161 00          >  defb 0; 0 - ячейка еще не просмотрена
   3++D162 00          >  defb 0; 0 - ячейка еще не просмотрена
   3++D163 00          >  defb 0; 0 - ячейка еще не просмотрена
   3++D164 00          >  defb 0; 0 - ячейка еще не просмотрена
   3++D165 00          >  defb 0; 0 - ячейка еще не просмотрена
   3++D166 00          >  defb 0; 0 - ячейка еще не просмотрена
   3++D167 00          >  defb 0; 0 - ячейка еще не просмотрена
   3++D168 00          >  defb 0; 0 - ячейка еще не просмотрена
   3++D169 00          >  defb 0; 0 - ячейка еще не просмотрена
   3++D16A 00          >  defb 0; 0 - ячейка еще не просмотрена
   3++D16B 00          >  defb 0; 0 - ячейка еще не просмотрена
   3++D16C 00          >  defb 0; 0 - ячейка еще не просмотрена
   3++D16D 00          >  defb 0; 0 - ячейка еще не просмотрена
   3++D16E 00          >  defb 0; 0 - ячейка еще не просмотрена
   3++D16F 00          >  defb 0; 0 - ячейка еще не просмотрена
   3++D170 00          >  defb 0; 0 - ячейка еще не просмотрена
   3++D171 00          >  defb 0; 0 - ячейка еще не просмотрена
   3++D172 00          >  defb 0; 0 - ячейка еще не просмотрена
   3++D173 00          >  defb 0; 0 - ячейка еще не просмотрена
   3++D174 00          >  defb 0; 0 - ячейка еще не просмотрена
   3++D175 00          >  defb 0; 0 - ячейка еще не просмотрена
   3++D176 00          >  defb 0; 0 - ячейка еще не просмотрена
   3++D177 00          >  defb 0; 0 - ячейка еще не просмотрена
   3++D178 00          >  defb 0; 0 - ячейка еще не просмотрена
   3++D179 00          >  defb 0; 0 - ячейка еще не просмотрена
   3++D17A 00          >  defb 0; 0 - ячейка еще не просмотрена
   3++D17B 00          >  defb 0; 0 - ячейка еще не просмотрена
   3++D17C 00          >  defb 0; 0 - ячейка еще не просмотрена
   3++D17D 00          >  defb 0; 0 - ячейка еще не просмотрена
   3++D17E 00          >  defb 0; 0 - ячейка еще не просмотрена
   3++D17F 00          >  defb 0; 0 - ячейка еще не просмотрена
   3++D180 00          >  defb 0; 0 - ячейка еще не просмотрена
   3++D181 00          >  defb 0; 0 - ячейка еще не просмотрена
   3++D182 00          >  defb 0; 0 - ячейка еще не просмотрена
   3++D183 00          >  defb 0; 0 - ячейка еще не просмотрена
   3++D184 00          >  defb 0; 0 - ячейка еще не просмотрена
   3++D185 00          >  defb 0; 0 - ячейка еще не просмотрена
   3++D186 00          >  defb 0; 0 - ячейка еще не просмотрена
   3++D187 00          >  defb 0; 0 - ячейка еще не просмотрена
   3++D188 00          >  defb 0; 0 - ячейка еще не просмотрена
   3++D189 00          >  defb 0; 0 - ячейка еще не просмотрена
   3++D18A 00          >  defb 0; 0 - ячейка еще не просмотрена
   3++D18B 00          >  defb 0; 0 - ячейка еще не просмотрена
   3++D18C 00          >  defb 0; 0 - ячейка еще не просмотрена
   3++D18D 00          >  defb 0; 0 - ячейка еще не просмотрена
   3++D18E 00          >  defb 0; 0 - ячейка еще не просмотрена
   3++D18F 00          >  defb 0; 0 - ячейка еще не просмотрена
   3++D190 00          >  defb 0; 0 - ячейка еще не просмотрена
   3++D191 00          >  defb 0; 0 - ячейка еще не просмотрена
   3++D192 00          >  defb 0; 0 - ячейка еще не просмотрена
   3++D193 00          >  defb 0; 0 - ячейка еще не просмотрена
   3++D194 00          >  defb 0; 0 - ячейка еще не просмотрена
   3++D195 00          >  defb 0; 0 - ячейка еще не просмотрена
   3++D196 00          >  defb 0; 0 - ячейка еще не просмотрена
   3++D197 00          >  defb 0; 0 - ячейка еще не просмотрена
   3++D198 00          >  defb 0; 0 - ячейка еще не просмотрена
   3++D199 00          >  defb 0; 0 - ячейка еще не просмотрена
   3++D19A 00          >  defb 0; 0 - ячейка еще не просмотрена
   3++D19B 00          >  defb 0; 0 - ячейка еще не просмотрена
   3++D19C 00          >  defb 0; 0 - ячейка еще не просмотрена
   3++D19D 00          >  defb 0; 0 - ячейка еще не просмотрена
   3++D19E 00          >  defb 0; 0 - ячейка еще не просмотрена
   3++D19F 00          >  defb 0; 0 - ячейка еще не просмотрена
   3++D1A0 00          >  defb 0; 0 - ячейка еще не просмотрена
   3++D1A1 00          >  defb 0; 0 - ячейка еще не просмотрена
   3++D1A2 00          >  defb 0; 0 - ячейка еще не просмотрена
   3++D1A3 00          >  defb 0; 0 - ячейка еще не просмотрена
   3++D1A4 00          >  defb 0; 0 - ячейка еще не просмотрена
   3++D1A5 00          >  defb 0; 0 - ячейка еще не просмотрена
   3++D1A6 00          >  defb 0; 0 - ячейка еще не просмотрена
   3++D1A7 00          >  defb 0; 0 - ячейка еще не просмотрена
   3++D1A8 00          >  defb 0; 0 - ячейка еще не просмотрена
   3++D1A9 00          >  defb 0; 0 - ячейка еще не просмотрена
   3++D1AA 00          >  defb 0; 0 - ячейка еще не просмотрена
   3++D1AB 00          >  defb 0; 0 - ячейка еще не просмотрена
   3++D1AC 00          >  defb 0; 0 - ячейка еще не просмотрена
   3++D1AD 00          >  defb 0; 0 - ячейка еще не просмотрена
   3++D1AE 00          >  defb 0; 0 - ячейка еще не просмотрена
   3++D1AF 00          >  defb 0; 0 - ячейка еще не просмотрена
   3++D1B0 00          >  defb 0; 0 - ячейка еще не просмотрена
   3++D1B1 00          >  defb 0; 0 - ячейка еще не просмотрена
   3++D1B2 00          >  defb 0; 0 - ячейка еще не просмотрена
   3++D1B3 00          >  defb 0; 0 - ячейка еще не просмотрена
   3++D1B4 00          >  defb 0; 0 - ячейка еще не просмотрена
   3++D1B5 00          >  defb 0; 0 - ячейка еще не просмотрена
   3++D1B6 00          >  defb 0; 0 - ячейка еще не просмотрена
   3++D1B7 00          >  defb 0; 0 - ячейка еще не просмотрена
   3++D1B8 00          >  defb 0; 0 - ячейка еще не просмотрена
   3++D1B9 00          >  defb 0; 0 - ячейка еще не просмотрена
   3++D1BA 00          >  defb 0; 0 - ячейка еще не просмотрена
   3++D1BB 00          >  defb 0; 0 - ячейка еще не просмотрена
   3++D1BC 00          >  defb 0; 0 - ячейка еще не просмотрена
   3++D1BD 00          >  defb 0; 0 - ячейка еще не просмотрена
   3++D1BE 00          >  defb 0; 0 - ячейка еще не просмотрена
   3++D1BF 00          >  defb 0; 0 - ячейка еще не просмотрена
   3++D1C0 00          >  defb 0; 0 - ячейка еще не просмотрена
   3++D1C1 00          >  defb 0; 0 - ячейка еще не просмотрена
   3++D1C2 00          >  defb 0; 0 - ячейка еще не просмотрена
   3++D1C3 00          >  defb 0; 0 - ячейка еще не просмотрена
   3++D1C4 00          >  defb 0; 0 - ячейка еще не просмотрена
   3++D1C5 00          >  defb 0; 0 - ячейка еще не просмотрена
   3++D1C6 00          >  defb 0; 0 - ячейка еще не просмотрена
   3++D1C7 00          >  defb 0; 0 - ячейка еще не просмотрена
   3++D1C8 00          >  defb 0; 0 - ячейка еще не просмотрена
   3++D1C9 00          >  defb 0; 0 - ячейка еще не просмотрена
   3++D1CA 00          >  defb 0; 0 - ячейка еще не просмотрена
   3++D1CB 00          >  defb 0; 0 - ячейка еще не просмотрена
   3++D1CC 00          >  defb 0; 0 - ячейка еще не просмотрена
   3++D1CD 00          >  defb 0; 0 - ячейка еще не просмотрена
   3++D1CE 00          >  defb 0; 0 - ячейка еще не просмотрена
   3++D1CF 00          >  defb 0; 0 - ячейка еще не просмотрена
   3++D1D0 00          >  defb 0; 0 - ячейка еще не просмотрена
   3++D1D1 00          >  defb 0; 0 - ячейка еще не просмотрена
   3++D1D2 00          >  defb 0; 0 - ячейка еще не просмотрена
   3++D1D3 00          >  defb 0; 0 - ячейка еще не просмотрена
   3++D1D4 00          >  defb 0; 0 - ячейка еще не просмотрена
   3++D1D5 00          >  defb 0; 0 - ячейка еще не просмотрена
   3++D1D6 00          >  defb 0; 0 - ячейка еще не просмотрена
   3++D1D7 00          >  defb 0; 0 - ячейка еще не просмотрена
   3++D1D8 00          >  defb 0; 0 - ячейка еще не просмотрена
   3++D1D9 00          >  defb 0; 0 - ячейка еще не просмотрена
   3++D1DA 00          >  defb 0; 0 - ячейка еще не просмотрена
   3++D1DB 00          >  defb 0; 0 - ячейка еще не просмотрена
   3++D1DC 00          >  defb 0; 0 - ячейка еще не просмотрена
   3++D1DD 00          >  defb 0; 0 - ячейка еще не просмотрена
   3++D1DE 00          >  defb 0; 0 - ячейка еще не просмотрена
   3++D1DF 00          >  defb 0; 0 - ячейка еще не просмотрена
   3++D1E0 00          >  defb 0; 0 - ячейка еще не просмотрена
   3++D1E1 00          >  defb 0; 0 - ячейка еще не просмотрена
   3++D1E2 00          >  defb 0; 0 - ячейка еще не просмотрена
   3++D1E3 00          >  defb 0; 0 - ячейка еще не просмотрена
   3++D1E4 00          >  defb 0; 0 - ячейка еще не просмотрена
   3++D1E5 00          >  defb 0; 0 - ячейка еще не просмотрена
   3++D1E6 00          >  defb 0; 0 - ячейка еще не просмотрена
   3++D1E7 00          >  defb 0; 0 - ячейка еще не просмотрена
   3++D1E8 00          >  defb 0; 0 - ячейка еще не просмотрена
   3++D1E9 00          >  defb 0; 0 - ячейка еще не просмотрена
   3++D1EA 00          >  defb 0; 0 - ячейка еще не просмотрена
   3++D1EB 00          >  defb 0; 0 - ячейка еще не просмотрена
   3++D1EC 00          >  defb 0; 0 - ячейка еще не просмотрена
   3++D1ED 00          >  defb 0; 0 - ячейка еще не просмотрена
   3++D1EE 00          >  defb 0; 0 - ячейка еще не просмотрена
   3++D1EF 00          >  defb 0; 0 - ячейка еще не просмотрена
   3++D1F0 00          >  defb 0; 0 - ячейка еще не просмотрена
   3++D1F1 00          >  defb 0; 0 - ячейка еще не просмотрена
   3++D1F2 00          >  defb 0; 0 - ячейка еще не просмотрена
   3++D1F3 00          >  defb 0; 0 - ячейка еще не просмотрена
   3++D1F4 00          >  defb 0; 0 - ячейка еще не просмотрена
   3++D1F5 00          >  defb 0; 0 - ячейка еще не просмотрена
   3++D1F6 00          >  defb 0; 0 - ячейка еще не просмотрена
   3++D1F7 00          >  defb 0; 0 - ячейка еще не просмотрена
   3++D1F8 00          >  defb 0; 0 - ячейка еще не просмотрена
   3++D1F9 00          >  defb 0; 0 - ячейка еще не просмотрена
   3++D1FA 00          >  defb 0; 0 - ячейка еще не просмотрена
   3++D1FB 00          >  defb 0; 0 - ячейка еще не просмотрена
   3++D1FC 00          >  defb 0; 0 - ячейка еще не просмотрена
   3++D1FD 00          >  defb 0; 0 - ячейка еще не просмотрена
   3++D1FE 00          >  defb 0; 0 - ячейка еще не просмотрена
   3++D1FF 00          >  defb 0; 0 - ячейка еще не просмотрена
   3++D200 00          >  defb 0; 0 - ячейка еще не просмотрена
   3++D201 00          >  defb 0; 0 - ячейка еще не просмотрена
   3++D202 00          >  defb 0; 0 - ячейка еще не просмотрена
   3++D203 00          >  defb 0; 0 - ячейка еще не просмотрена
   3++D204 00          >  defb 0; 0 - ячейка еще не просмотрена
   3++D205 00          >  defb 0; 0 - ячейка еще не просмотрена
   3++D206 00          >  defb 0; 0 - ячейка еще не просмотрена
   3++D207 00          >  defb 0; 0 - ячейка еще не просмотрена
   3++D208 00          >  defb 0; 0 - ячейка еще не просмотрена
   3++D209 00          >  defb 0; 0 - ячейка еще не просмотрена
   3++D20A 00          >  defb 0; 0 - ячейка еще не просмотрена
   3++D20B 00          >  defb 0; 0 - ячейка еще не просмотрена
   3++D20C 00          >  defb 0; 0 - ячейка еще не просмотрена
   3++D20D 00          >  defb 0; 0 - ячейка еще не просмотрена
   3++D20E 00          >  defb 0; 0 - ячейка еще не просмотрена
   3++D20F 00          >  defb 0; 0 - ячейка еще не просмотрена
   3++D210 00          >  defb 0; 0 - ячейка еще не просмотрена
   3++D211 00          >  defb 0; 0 - ячейка еще не просмотрена
   3++D212 00          >  defb 0; 0 - ячейка еще не просмотрена
   3++D213 00          >  defb 0; 0 - ячейка еще не просмотрена
   3++D214 00          >  defb 0; 0 - ячейка еще не просмотрена
   3++D215 00          >  defb 0; 0 - ячейка еще не просмотрена
   3++D216 00          >  defb 0; 0 - ячейка еще не просмотрена
   3++D217 00          >  defb 0; 0 - ячейка еще не просмотрена
   3++D218 00          >  defb 0; 0 - ячейка еще не просмотрена
   3++D219 00          >  defb 0; 0 - ячейка еще не просмотрена
   3++D21A 00          >  defb 0; 0 - ячейка еще не просмотрена
   3++D21B 00          >  defb 0; 0 - ячейка еще не просмотрена
   3++D21C 00          >  defb 0; 0 - ячейка еще не просмотрена
   3++D21D 00          >  defb 0; 0 - ячейка еще не просмотрена
   3++D21E 00          >  defb 0; 0 - ячейка еще не просмотрена
   3++D21F 00          >  defb 0; 0 - ячейка еще не просмотрена
   3++D220 00          >  defb 0; 0 - ячейка еще не просмотрена
   3++D221 00          >  defb 0; 0 - ячейка еще не просмотрена
   3++D222 00          >  defb 0; 0 - ячейка еще не просмотрена
   3++D223 00          >  defb 0; 0 - ячейка еще не просмотрена
   3++D224 00          >  defb 0; 0 - ячейка еще не просмотрена
   3++D225 00          >  defb 0; 0 - ячейка еще не просмотрена
   3++D226 00          >  defb 0; 0 - ячейка еще не просмотрена
   3++D227 00          >  defb 0; 0 - ячейка еще не просмотрена
   3++D228 00          >  defb 0; 0 - ячейка еще не просмотрена
   3++D229 00          >  defb 0; 0 - ячейка еще не просмотрена
   3++D22A 00          >  defb 0; 0 - ячейка еще не просмотрена
   3++D22B 00          >  defb 0; 0 - ячейка еще не просмотрена
   3++D22C 00          >  defb 0; 0 - ячейка еще не просмотрена
   3++D22D 00          >  defb 0; 0 - ячейка еще не просмотрена
   3++D22E 00          >  defb 0; 0 - ячейка еще не просмотрена
   3++D22F 00          >  defb 0; 0 - ячейка еще не просмотрена
   3++D230 00          >  defb 0; 0 - ячейка еще не просмотрена
   3++D231 00          >  defb 0; 0 - ячейка еще не просмотрена
   3++D232 00          >  defb 0; 0 - ячейка еще не просмотрена
   3++D233 00          >  defb 0; 0 - ячейка еще не просмотрена
   3++D234 00          >  defb 0; 0 - ячейка еще не просмотрена
   3++D235 00          >  defb 0; 0 - ячейка еще не просмотрена
   3++D236 00          >  defb 0; 0 - ячейка еще не просмотрена
   3++D237 00          >  defb 0; 0 - ячейка еще не просмотрена
   3++D238 00          >  defb 0; 0 - ячейка еще не просмотрена
   3++D239 00          >  defb 0; 0 - ячейка еще не просмотрена
   3++D23A 00          >  defb 0; 0 - ячейка еще не просмотрена
   3++D23B 00          >  defb 0; 0 - ячейка еще не просмотрена
   3++D23C 00          >  defb 0; 0 - ячейка еще не просмотрена
   3++D23D 00          >  defb 0; 0 - ячейка еще не просмотрена
   3++D23E 00          >  defb 0; 0 - ячейка еще не просмотрена
   3++D23F 00          >  defb 0; 0 - ячейка еще не просмотрена
   3++D240 00          >  defb 0; 0 - ячейка еще не просмотрена
   3++D241 00          >  defb 0; 0 - ячейка еще не просмотрена
   3++D242 00          >  defb 0; 0 - ячейка еще не просмотрена
   3++D243 00          >  defb 0; 0 - ячейка еще не просмотрена
   3++D244 00          >  defb 0; 0 - ячейка еще не просмотрена
   3++D245 00          >  defb 0; 0 - ячейка еще не просмотрена
   3++D246 00          >  defb 0; 0 - ячейка еще не просмотрена
   3++D247 00          >  defb 0; 0 - ячейка еще не просмотрена
   3++D248 00          >  defb 0; 0 - ячейка еще не просмотрена
   3++D249 00          >  defb 0; 0 - ячейка еще не просмотрена
   3++D24A 00          >  defb 0; 0 - ячейка еще не просмотрена
   3++D24B 00          >  defb 0; 0 - ячейка еще не просмотрена
   3++D24C 00          >  defb 0; 0 - ячейка еще не просмотрена
   3++D24D 00          >  defb 0; 0 - ячейка еще не просмотрена
   3++D24E 00          >  defb 0; 0 - ячейка еще не просмотрена
   3++D24F 00          >  defb 0; 0 - ячейка еще не просмотрена
   3++D250 00          >  defb 0; 0 - ячейка еще не просмотрена
   3++D251 00          >  defb 0; 0 - ячейка еще не просмотрена
   3++D252 00          >  defb 0; 0 - ячейка еще не просмотрена
   3++D253 00          >  defb 0; 0 - ячейка еще не просмотрена
   3++D254 00          >  defb 0; 0 - ячейка еще не просмотрена
   3++D255 00          >  defb 0; 0 - ячейка еще не просмотрена
   3++D256 00          >  defb 0; 0 - ячейка еще не просмотрена
   3++D257 00          >  defb 0; 0 - ячейка еще не просмотрена
   3++D258 00          >  defb 0; 0 - ячейка еще не просмотрена
   3++D259 00          >  defb 0; 0 - ячейка еще не просмотрена
   3++D25A 00          >  defb 0; 0 - ячейка еще не просмотрена
   3++D25B 00          >  defb 0; 0 - ячейка еще не просмотрена
   3++D25C 00          >  defb 0; 0 - ячейка еще не просмотрена
   3++D25D 00          >  defb 0; 0 - ячейка еще не просмотрена
   3++D25E 00          >  defb 0; 0 - ячейка еще не просмотрена
   3++D25F 00          >  defb 0; 0 - ячейка еще не просмотрена
   3++D260 00          >  defb 0; 0 - ячейка еще не просмотрена
   3++D261 00          >  defb 0; 0 - ячейка еще не просмотрена
   3++D262 00          >  defb 0; 0 - ячейка еще не просмотрена
   3++D263 00          >  defb 0; 0 - ячейка еще не просмотрена
   3++D264 00          >  defb 0; 0 - ячейка еще не просмотрена
   3++D265 00          >  defb 0; 0 - ячейка еще не просмотрена
   3++D266 00          >  defb 0; 0 - ячейка еще не просмотрена
   3++D267 00          >  defb 0; 0 - ячейка еще не просмотрена
   3++D268 00          >  defb 0; 0 - ячейка еще не просмотрена
   3++D269 00          >  defb 0; 0 - ячейка еще не просмотрена
   3++D26A 00          >  defb 0; 0 - ячейка еще не просмотрена
   3++D26B 00          >  defb 0; 0 - ячейка еще не просмотрена
   3++D26C 00          >  defb 0; 0 - ячейка еще не просмотрена
   3++D26D 00          >  defb 0; 0 - ячейка еще не просмотрена
   3++D26E 00          >  defb 0; 0 - ячейка еще не просмотрена
   3++D26F 00          >  defb 0; 0 - ячейка еще не просмотрена
   3++D270 00          >  defb 0; 0 - ячейка еще не просмотрена
   3++D271 00          >  defb 0; 0 - ячейка еще не просмотрена
   3++D272 00          >  defb 0; 0 - ячейка еще не просмотрена
   3++D273 00          >  defb 0; 0 - ячейка еще не просмотрена
   3++D274 00          >  defb 0; 0 - ячейка еще не просмотрена
   3++D275 00          >  defb 0; 0 - ячейка еще не просмотрена
   3++D276 00          >  defb 0; 0 - ячейка еще не просмотрена
   3++D277 00          >  defb 0; 0 - ячейка еще не просмотрена
   3++D278 00          >  defb 0; 0 - ячейка еще не просмотрена
   3++D279 00          >  defb 0; 0 - ячейка еще не просмотрена
   3++D27A 00          >  defb 0; 0 - ячейка еще не просмотрена
   3++D27B 00          >  defb 0; 0 - ячейка еще не просмотрена
   3++D27C 00          >  defb 0; 0 - ячейка еще не просмотрена
   3++D27D 00          >  defb 0; 0 - ячейка еще не просмотрена
   3++D27E 00          >  defb 0; 0 - ячейка еще не просмотрена
   3++D27F 00          >  defb 0; 0 - ячейка еще не просмотрена
   3++D280 00          >  defb 0; 0 - ячейка еще не просмотрена
   3++D281 00          >  defb 0; 0 - ячейка еще не просмотрена
   3++D282 00          >  defb 0; 0 - ячейка еще не просмотрена
   3++D283 00          >  defb 0; 0 - ячейка еще не просмотрена
   3++D284 00          >  defb 0; 0 - ячейка еще не просмотрена
   3++D285 00          >  defb 0; 0 - ячейка еще не просмотрена
   3++D286 00          >  defb 0; 0 - ячейка еще не просмотрена
   3++D287 00          >  defb 0; 0 - ячейка еще не просмотрена
   3++D288 00          >  defb 0; 0 - ячейка еще не просмотрена
   3++D289 00          >  defb 0; 0 - ячейка еще не просмотрена
   3++D28A 00          >  defb 0; 0 - ячейка еще не просмотрена
   3++D28B 00          >  defb 0; 0 - ячейка еще не просмотрена
   3++D28C 00          >  defb 0; 0 - ячейка еще не просмотрена
   3++D28D 00          >  defb 0; 0 - ячейка еще не просмотрена
   3++D28E 00          >  defb 0; 0 - ячейка еще не просмотрена
   3++D28F 00          >  defb 0; 0 - ячейка еще не просмотрена
   3++D290 00          >  defb 0; 0 - ячейка еще не просмотрена
   3++D291 00          >  defb 0; 0 - ячейка еще не просмотрена
   3++D292 00          >  defb 0; 0 - ячейка еще не просмотрена
   3++D293 00          >  defb 0; 0 - ячейка еще не просмотрена
   3++D294 00          >  defb 0; 0 - ячейка еще не просмотрена
   3++D295 00          >  defb 0; 0 - ячейка еще не просмотрена
   3++D296 00          >  defb 0; 0 - ячейка еще не просмотрена
   3++D297 00          >  defb 0; 0 - ячейка еще не просмотрена
   3++D298 00          >  defb 0; 0 - ячейка еще не просмотрена
   3++D299 00          >  defb 0; 0 - ячейка еще не просмотрена
   3++D29A 00          >  defb 0; 0 - ячейка еще не просмотрена
   3++D29B 00          >  defb 0; 0 - ячейка еще не просмотрена
   3++D29C 00          >  defb 0; 0 - ячейка еще не просмотрена
   3++D29D 00          >  defb 0; 0 - ячейка еще не просмотрена
   3++D29E 00          >  defb 0; 0 - ячейка еще не просмотрена
   3++D29F 00          >  defb 0; 0 - ячейка еще не просмотрена
   3++D2A0 00          >  defb 0; 0 - ячейка еще не просмотрена
   3++D2A1 00          >  defb 0; 0 - ячейка еще не просмотрена
   3++D2A2 00          >  defb 0; 0 - ячейка еще не просмотрена
   3++D2A3 00          >  defb 0; 0 - ячейка еще не просмотрена
   3++D2A4 00          >  defb 0; 0 - ячейка еще не просмотрена
   3++D2A5 00          >  defb 0; 0 - ячейка еще не просмотрена
   3++D2A6 00          >  defb 0; 0 - ячейка еще не просмотрена
   3++D2A7 00          >  defb 0; 0 - ячейка еще не просмотрена
   3++D2A8 00          >  defb 0; 0 - ячейка еще не просмотрена
   3++D2A9 00          >  defb 0; 0 - ячейка еще не просмотрена
   3++D2AA 00          >  defb 0; 0 - ячейка еще не просмотрена
   3++D2AB 00          >  defb 0; 0 - ячейка еще не просмотрена
   3++D2AC 00          >  defb 0; 0 - ячейка еще не просмотрена
   3++D2AD 00          >  defb 0; 0 - ячейка еще не просмотрена
   3++D2AE 00          >  defb 0; 0 - ячейка еще не просмотрена
   3++D2AF 00          >  defb 0; 0 - ячейка еще не просмотрена
   3++D2B0 00          >  defb 0; 0 - ячейка еще не просмотрена
   3++D2B1 00          >  defb 0; 0 - ячейка еще не просмотрена
   3++D2B2 00          >  defb 0; 0 - ячейка еще не просмотрена
   3++D2B3 00          >  defb 0; 0 - ячейка еще не просмотрена
   3++D2B4 00          >  defb 0; 0 - ячейка еще не просмотрена
   3++D2B5 00          >  defb 0; 0 - ячейка еще не просмотрена
   3++D2B6 00          >  defb 0; 0 - ячейка еще не просмотрена
   3++D2B7 00          >  defb 0; 0 - ячейка еще не просмотрена
   3++D2B8 00          >  defb 0; 0 - ячейка еще не просмотрена
   3++D2B9 00          >  defb 0; 0 - ячейка еще не просмотрена
   3++D2BA 00          >  defb 0; 0 - ячейка еще не просмотрена
   3++D2BB 00          >  defb 0; 0 - ячейка еще не просмотрена
   3++D2BC 00          >  defb 0; 0 - ячейка еще не просмотрена
   3++D2BD 00          >  defb 0; 0 - ячейка еще не просмотрена
   3++D2BE 00          >  defb 0; 0 - ячейка еще не просмотрена
   3++D2BF 00          >  defb 0; 0 - ячейка еще не просмотрена
   3++D2C0 00          >  defb 0; 0 - ячейка еще не просмотрена
   3++D2C1 00          >  defb 0; 0 - ячейка еще не просмотрена
   3++D2C2 00          >  defb 0; 0 - ячейка еще не просмотрена
   3++D2C3 00          >  defb 0; 0 - ячейка еще не просмотрена
   3++D2C4 00          >  defb 0; 0 - ячейка еще не просмотрена
   3++D2C5 00          >  defb 0; 0 - ячейка еще не просмотрена
   3++D2C6 00          >  defb 0; 0 - ячейка еще не просмотрена
   3++D2C7 00          >  defb 0; 0 - ячейка еще не просмотрена
   3++D2C8 00          >  defb 0; 0 - ячейка еще не просмотрена
   3++D2C9 00          >  defb 0; 0 - ячейка еще не просмотрена
   3++D2CA 00          >  defb 0; 0 - ячейка еще не просмотрена
   3++D2CB 00          >  defb 0; 0 - ячейка еще не просмотрена
   3++D2CC 00          >  defb 0; 0 - ячейка еще не просмотрена
   3++D2CD 00          >  defb 0; 0 - ячейка еще не просмотрена
   3++D2CE 00          >  defb 0; 0 - ячейка еще не просмотрена
   3++D2CF 00          >  defb 0; 0 - ячейка еще не просмотрена
   3++D2D0 00          >  defb 0; 0 - ячейка еще не просмотрена
   3++D2D1 00          >  defb 0; 0 - ячейка еще не просмотрена
   3++D2D2 00          >  defb 0; 0 - ячейка еще не просмотрена
   3++D2D3 00          >  defb 0; 0 - ячейка еще не просмотрена
   3++D2D4 00          >  defb 0; 0 - ячейка еще не просмотрена
   3++D2D5 00          >  defb 0; 0 - ячейка еще не просмотрена
   3++D2D6 00          >  defb 0; 0 - ячейка еще не просмотрена
   3++D2D7 00          >  defb 0; 0 - ячейка еще не просмотрена
   3++D2D8 00          >  defb 0; 0 - ячейка еще не просмотрена
   3++D2D9 00          >  defb 0; 0 - ячейка еще не просмотрена
   3++D2DA 00          >  defb 0; 0 - ячейка еще не просмотрена
   3++D2DB 00          >  defb 0; 0 - ячейка еще не просмотрена
   3++D2DC 00          >  defb 0; 0 - ячейка еще не просмотрена
   3++D2DD 00          >  defb 0; 0 - ячейка еще не просмотрена
   3++D2DE 00          >  defb 0; 0 - ячейка еще не просмотрена
   3++D2DF 00          >  defb 0; 0 - ячейка еще не просмотрена
   3++D2E0 00          >  defb 0; 0 - ячейка еще не просмотрена
   3++D2E1 00          >  defb 0; 0 - ячейка еще не просмотрена
   3++D2E2 00          >  defb 0; 0 - ячейка еще не просмотрена
   3++D2E3 00          >  defb 0; 0 - ячейка еще не просмотрена
   3++D2E4 00          >  defb 0; 0 - ячейка еще не просмотрена
   3++D2E5 00          >  defb 0; 0 - ячейка еще не просмотрена
   3++D2E6 00          >  defb 0; 0 - ячейка еще не просмотрена
   3++D2E7 00          >  defb 0; 0 - ячейка еще не просмотрена
   3++D2E8 00          >  defb 0; 0 - ячейка еще не просмотрена
   3++D2E9 00          >  defb 0; 0 - ячейка еще не просмотрена
   3++D2EA 00          >  defb 0; 0 - ячейка еще не просмотрена
   3++D2EB 00          >  defb 0; 0 - ячейка еще не просмотрена
   3++D2EC 00          >  defb 0; 0 - ячейка еще не просмотрена
   3++D2ED 00          >  defb 0; 0 - ячейка еще не просмотрена
   3++D2EE 00          >  defb 0; 0 - ячейка еще не просмотрена
   3++D2EF 00          >  defb 0; 0 - ячейка еще не просмотрена
   3++D2F0 00          >  defb 0; 0 - ячейка еще не просмотрена
   3++D2F1 00          >  defb 0; 0 - ячейка еще не просмотрена
   3++D2F2 00          >  defb 0; 0 - ячейка еще не просмотрена
   3++D2F3 00          >  defb 0; 0 - ячейка еще не просмотрена
   3++D2F4 00          >  defb 0; 0 - ячейка еще не просмотрена
   3++D2F5 00          >  defb 0; 0 - ячейка еще не просмотрена
   3++D2F6 00          >  defb 0; 0 - ячейка еще не просмотрена
   3++D2F7 00          >  defb 0; 0 - ячейка еще не просмотрена
   3++D2F8 00          >  defb 0; 0 - ячейка еще не просмотрена
   3++D2F9 00          >  defb 0; 0 - ячейка еще не просмотрена
   3++D2FA 00          >  defb 0; 0 - ячейка еще не просмотрена
   3++D2FB 00          >  defb 0; 0 - ячейка еще не просмотрена
   3++D2FC 00          >  defb 0; 0 - ячейка еще не просмотрена
   3++D2FD 00          >  defb 0; 0 - ячейка еще не просмотрена
   3++D2FE 00          >  defb 0; 0 - ячейка еще не просмотрена
   3++D2FF 00          >  defb 0; 0 - ячейка еще не просмотрена
   3++D300 00          >  defb 0; 0 - ячейка еще не просмотрена
   3++D301 00          >  defb 0; 0 - ячейка еще не просмотрена
   3++D302 00          >  defb 0; 0 - ячейка еще не просмотрена
   3++D303 00          >  defb 0; 0 - ячейка еще не просмотрена
   3++D304 00          >  defb 0; 0 - ячейка еще не просмотрена
   3++D305 00          >  defb 0; 0 - ячейка еще не просмотрена
   3++D306 00          >  defb 0; 0 - ячейка еще не просмотрена
   3++D307 00          >  defb 0; 0 - ячейка еще не просмотрена
   3++D308 00          >  defb 0; 0 - ячейка еще не просмотрена
   3++D309 00          >  defb 0; 0 - ячейка еще не просмотрена
   3++D30A 00          >  defb 0; 0 - ячейка еще не просмотрена
   3++D30B 00          >  defb 0; 0 - ячейка еще не просмотрена
   3++D30C 00          >  defb 0; 0 - ячейка еще не просмотрена
   3++D30D 00          >  defb 0; 0 - ячейка еще не просмотрена
   3++D30E 00          >  defb 0; 0 - ячейка еще не просмотрена
   3++D30F 00          >  defb 0; 0 - ячейка еще не просмотрена
   3++D310 00          >  defb 0; 0 - ячейка еще не просмотрена
   3++D311 00          >  defb 0; 0 - ячейка еще не просмотрена
   3++D312 00          >  defb 0; 0 - ячейка еще не просмотрена
   3++D313 00          >  defb 0; 0 - ячейка еще не просмотрена
   3++D314 00          >  defb 0; 0 - ячейка еще не просмотрена
   3++D315 00          >  defb 0; 0 - ячейка еще не просмотрена
   3++D316 00          >  defb 0; 0 - ячейка еще не просмотрена
   3++D317 00          >  defb 0; 0 - ячейка еще не просмотрена
   3++D318 00          >  defb 0; 0 - ячейка еще не просмотрена
   3++D319 00          >  defb 0; 0 - ячейка еще не просмотрена
   3++D31A 00          >  defb 0; 0 - ячейка еще не просмотрена
   3++D31B 00          >  defb 0; 0 - ячейка еще не просмотрена
   3++D31C 00          >  defb 0; 0 - ячейка еще не просмотрена
   3++D31D 00          >  defb 0; 0 - ячейка еще не просмотрена
   3++D31E 00          >  defb 0; 0 - ячейка еще не просмотрена
   3++D31F 00          >  defb 0; 0 - ячейка еще не просмотрена
   3++D320 00          >  defb 0; 0 - ячейка еще не просмотрена
   3++D321 00          >  defb 0; 0 - ячейка еще не просмотрена
   3++D322 00          >  defb 0; 0 - ячейка еще не просмотрена
   3++D323 00          >  defb 0; 0 - ячейка еще не просмотрена
   3++D324 00          >  defb 0; 0 - ячейка еще не просмотрена
   3++D325 00          >  defb 0; 0 - ячейка еще не просмотрена
   3++D326 00          >  defb 0; 0 - ячейка еще не просмотрена
   3++D327 00          >  defb 0; 0 - ячейка еще не просмотрена
   3++D328 00          >  defb 0; 0 - ячейка еще не просмотрена
   3++D329 00          >  defb 0; 0 - ячейка еще не просмотрена
   3++D32A 00          >  defb 0; 0 - ячейка еще не просмотрена
   3++D32B 00          >  defb 0; 0 - ячейка еще не просмотрена
   3++D32C 00          >  defb 0; 0 - ячейка еще не просмотрена
   3++D32D 00          >  defb 0; 0 - ячейка еще не просмотрена
   3++D32E 00          >  defb 0; 0 - ячейка еще не просмотрена
   3++D32F 00          >  defb 0; 0 - ячейка еще не просмотрена
   3++D330 00          >  defb 0; 0 - ячейка еще не просмотрена
   3++D331 00          >  defb 0; 0 - ячейка еще не просмотрена
   3++D332 00          >  defb 0; 0 - ячейка еще не просмотрена
   3++D333 00          >  defb 0; 0 - ячейка еще не просмотрена
   3++D334 00          >  defb 0; 0 - ячейка еще не просмотрена
   3++D335 00          >  defb 0; 0 - ячейка еще не просмотрена
   3++D336 00          >  defb 0; 0 - ячейка еще не просмотрена
   3++D337 00          >  defb 0; 0 - ячейка еще не просмотрена
   3++D338 00          >  defb 0; 0 - ячейка еще не просмотрена
   3++D339 00          >  defb 0; 0 - ячейка еще не просмотрена
   3++D33A 00          >  defb 0; 0 - ячейка еще не просмотрена
   3++D33B 00          >  defb 0; 0 - ячейка еще не просмотрена
   3++D33C 00          >  defb 0; 0 - ячейка еще не просмотрена
   3++D33D 00          >  defb 0; 0 - ячейка еще не просмотрена
   3++D33E 00          >  defb 0; 0 - ячейка еще не просмотрена
   3++D33F 00          >  defb 0; 0 - ячейка еще не просмотрена
   3++D340 00          >  defb 0; 0 - ячейка еще не просмотрена
   3++D341 00          >  defb 0; 0 - ячейка еще не просмотрена
   3++D342 00          >  defb 0; 0 - ячейка еще не просмотрена
   3++D343 00          >  defb 0; 0 - ячейка еще не просмотрена
   3++D344 00          >  defb 0; 0 - ячейка еще не просмотрена
   3++D345 00          >  defb 0; 0 - ячейка еще не просмотрена
   3++D346 00          >  defb 0; 0 - ячейка еще не просмотрена
   3++D347 00          >  defb 0; 0 - ячейка еще не просмотрена
   3++D348 00          >  defb 0; 0 - ячейка еще не просмотрена
   3++D349 00          >  defb 0; 0 - ячейка еще не просмотрена
   3++D34A 00          >  defb 0; 0 - ячейка еще не просмотрена
   3++D34B 00          >  defb 0; 0 - ячейка еще не просмотрена
   3++D34C 00          >  defb 0; 0 - ячейка еще не просмотрена
   3++D34D 00          >  defb 0; 0 - ячейка еще не просмотрена
   3++D34E 00          >  defb 0; 0 - ячейка еще не просмотрена
   3++D34F 00          >  defb 0; 0 - ячейка еще не просмотрена
   3++D350 00          >  defb 0; 0 - ячейка еще не просмотрена
   3++D351 00          >  defb 0; 0 - ячейка еще не просмотрена
   3++D352 00          >  defb 0; 0 - ячейка еще не просмотрена
   3++D353 00          >  defb 0; 0 - ячейка еще не просмотрена
   3++D354 00          >  defb 0; 0 - ячейка еще не просмотрена
   3++D355 00          >  defb 0; 0 - ячейка еще не просмотрена
   3++D356 00          >  defb 0; 0 - ячейка еще не просмотрена
   3++D357 00          >  defb 0; 0 - ячейка еще не просмотрена
   3++D358 00          >  defb 0; 0 - ячейка еще не просмотрена
   3++D359 00          >  defb 0; 0 - ячейка еще не просмотрена
   3++D35A 00          >  defb 0; 0 - ячейка еще не просмотрена
   3++D35B 00          >  defb 0; 0 - ячейка еще не просмотрена
   3++D35C 00          >  defb 0; 0 - ячейка еще не просмотрена
   3++D35D 00          >  defb 0; 0 - ячейка еще не просмотрена
   3++D35E 00          >  defb 0; 0 - ячейка еще не просмотрена
   3++D35F 00          >  defb 0; 0 - ячейка еще не просмотрена
   3++D360 00          >  defb 0; 0 - ячейка еще не просмотрена
   3++D361 00          >  defb 0; 0 - ячейка еще не просмотрена
   3++D362 00          >  defb 0; 0 - ячейка еще не просмотрена
   3++D363 00          >  defb 0; 0 - ячейка еще не просмотрена
   3++D364 00          >  defb 0; 0 - ячейка еще не просмотрена
   3++D365 00          >  defb 0; 0 - ячейка еще не просмотрена
   3++D366 00          >  defb 0; 0 - ячейка еще не просмотрена
   3++D367 00          >  defb 0; 0 - ячейка еще не просмотрена
   3++D368 00          >  defb 0; 0 - ячейка еще не просмотрена
   3++D369 00          >  defb 0; 0 - ячейка еще не просмотрена
   3++D36A 00          >  defb 0; 0 - ячейка еще не просмотрена
   3++D36B 00          >  defb 0; 0 - ячейка еще не просмотрена
   3++D36C 00          >  defb 0; 0 - ячейка еще не просмотрена
   3++D36D 00          >  defb 0; 0 - ячейка еще не просмотрена
   3++D36E 00          >  defb 0; 0 - ячейка еще не просмотрена
   3++D36F 00          >  defb 0; 0 - ячейка еще не просмотрена
   3++D370 00          >  defb 0; 0 - ячейка еще не просмотрена
   3++D371 00          >  defb 0; 0 - ячейка еще не просмотрена
   3++D372 00          >  defb 0; 0 - ячейка еще не просмотрена
   3++D373 00          >  defb 0; 0 - ячейка еще не просмотрена
   3++D374 00          >  defb 0; 0 - ячейка еще не просмотрена
   3++D375 00          >  defb 0; 0 - ячейка еще не просмотрена
   3++D376 00          >  defb 0; 0 - ячейка еще не просмотрена
   3++D377 00          >  defb 0; 0 - ячейка еще не просмотрена
   3++D378 00          >  defb 0; 0 - ячейка еще не просмотрена
   3++D379 00          >  defb 0; 0 - ячейка еще не просмотрена
   3++D37A 00          >  defb 0; 0 - ячейка еще не просмотрена
   3++D37B 00          >  defb 0; 0 - ячейка еще не просмотрена
   3++D37C 00          >  defb 0; 0 - ячейка еще не просмотрена
   3++D37D 00          >  defb 0; 0 - ячейка еще не просмотрена
   3++D37E 00          >  defb 0; 0 - ячейка еще не просмотрена
   3++D37F 00          >  defb 0; 0 - ячейка еще не просмотрена
   3++D380 00          >  defb 0; 0 - ячейка еще не просмотрена
   3++D381 00          >  defb 0; 0 - ячейка еще не просмотрена
   3++D382 00          >  defb 0; 0 - ячейка еще не просмотрена
   3++D383 00          >  defb 0; 0 - ячейка еще не просмотрена
   3++D384 00          >  defb 0; 0 - ячейка еще не просмотрена
   3++D385 00          >  defb 0; 0 - ячейка еще не просмотрена
   3++D386 00          >  defb 0; 0 - ячейка еще не просмотрена
   3++D387 00          >  defb 0; 0 - ячейка еще не просмотрена
   3++D388 00          >  defb 0; 0 - ячейка еще не просмотрена
   3++D389 00          >  defb 0; 0 - ячейка еще не просмотрена
   3++D38A 00          >  defb 0; 0 - ячейка еще не просмотрена
   3++D38B 00          >  defb 0; 0 - ячейка еще не просмотрена
   3++D38C 00          >  defb 0; 0 - ячейка еще не просмотрена
   3++D38D 00          >  defb 0; 0 - ячейка еще не просмотрена
   3++D38E 00          >  defb 0; 0 - ячейка еще не просмотрена
   3++D38F 00          >  defb 0; 0 - ячейка еще не просмотрена
   3++D390 00          >  defb 0; 0 - ячейка еще не просмотрена
   3++D391 00          >  defb 0; 0 - ячейка еще не просмотрена
   3++D392 00          >  defb 0; 0 - ячейка еще не просмотрена
   3++D393 00          >  defb 0; 0 - ячейка еще не просмотрена
   3++D394 00          >  defb 0; 0 - ячейка еще не просмотрена
   3++D395 00          >  defb 0; 0 - ячейка еще не просмотрена
   3++D396 00          >  defb 0; 0 - ячейка еще не просмотрена
   3++D397 00          >  defb 0; 0 - ячейка еще не просмотрена
   3++D398 00          >  defb 0; 0 - ячейка еще не просмотрена
   3++D399 00          >  defb 0; 0 - ячейка еще не просмотрена
   3++D39A 00          >  defb 0; 0 - ячейка еще не просмотрена
   3++D39B 00          >  defb 0; 0 - ячейка еще не просмотрена
   3++D39C 00          >  defb 0; 0 - ячейка еще не просмотрена
   3++D39D 00          >  defb 0; 0 - ячейка еще не просмотрена
   3++D39E 00          >  defb 0; 0 - ячейка еще не просмотрена
   3++D39F 00          >  defb 0; 0 - ячейка еще не просмотрена
   3++D3A0 00          >  defb 0; 0 - ячейка еще не просмотрена
   3++D3A1 00          >  defb 0; 0 - ячейка еще не просмотрена
   3++D3A2 00          >  defb 0; 0 - ячейка еще не просмотрена
   3++D3A3 00          >  defb 0; 0 - ячейка еще не просмотрена
   3++D3A4 00          >  defb 0; 0 - ячейка еще не просмотрена
   3++D3A5 00          >  defb 0; 0 - ячейка еще не просмотрена
   3++D3A6 00          >  defb 0; 0 - ячейка еще не просмотрена
   3++D3A7 00          >  defb 0; 0 - ячейка еще не просмотрена
   3++D3A8 00          >  defb 0; 0 - ячейка еще не просмотрена
   3++D3A9 00          >  defb 0; 0 - ячейка еще не просмотрена
   3++D3AA 00          >  defb 0; 0 - ячейка еще не просмотрена
   3++D3AB 00          >  defb 0; 0 - ячейка еще не просмотрена
   3++D3AC 00          >  defb 0; 0 - ячейка еще не просмотрена
   3++D3AD 00          >  defb 0; 0 - ячейка еще не просмотрена
   3++D3AE 00          >  defb 0; 0 - ячейка еще не просмотрена
   3++D3AF 00          >  defb 0; 0 - ячейка еще не просмотрена
   3++D3B0 00          >  defb 0; 0 - ячейка еще не просмотрена
   3++D3B1 00          >  defb 0; 0 - ячейка еще не просмотрена
   3++D3B2 00          >  defb 0; 0 - ячейка еще не просмотрена
   3++D3B3 00          >  defb 0; 0 - ячейка еще не просмотрена
   3++D3B4 00          >  defb 0; 0 - ячейка еще не просмотрена
   3++D3B5 00          >  defb 0; 0 - ячейка еще не просмотрена
   3++D3B6 00          >  defb 0; 0 - ячейка еще не просмотрена
   3++D3B7 00          >  defb 0; 0 - ячейка еще не просмотрена
   3++D3B8 00          >  defb 0; 0 - ячейка еще не просмотрена
   3++D3B9 00          >  defb 0; 0 - ячейка еще не просмотрена
   3++D3BA 00          >  defb 0; 0 - ячейка еще не просмотрена
   3++D3BB 00          >  defb 0; 0 - ячейка еще не просмотрена
   3++D3BC 00          >  defb 0; 0 - ячейка еще не просмотрена
   3++D3BD 00          >  defb 0; 0 - ячейка еще не просмотрена
   3++D3BE 00          >  defb 0; 0 - ячейка еще не просмотрена
   3++D3BF 00          >  defb 0; 0 - ячейка еще не просмотрена
   3++D3C0 00          >  defb 0; 0 - ячейка еще не просмотрена
   3++D3C1 00          >  defb 0; 0 - ячейка еще не просмотрена
   3++D3C2 00          >  defb 0; 0 - ячейка еще не просмотрена
   3++D3C3 00          >  defb 0; 0 - ячейка еще не просмотрена
   3++D3C4 00          >  defb 0; 0 - ячейка еще не просмотрена
   3++D3C5 00          >  defb 0; 0 - ячейка еще не просмотрена
   3++D3C6 00          >  defb 0; 0 - ячейка еще не просмотрена
   3++D3C7 00          >  defb 0; 0 - ячейка еще не просмотрена
   3++D3C8 00          >  defb 0; 0 - ячейка еще не просмотрена
   3++D3C9 00          >  defb 0; 0 - ячейка еще не просмотрена
   3++D3CA 00          >  defb 0; 0 - ячейка еще не просмотрена
   3++D3CB 00          >  defb 0; 0 - ячейка еще не просмотрена
   3++D3CC 00          >  defb 0; 0 - ячейка еще не просмотрена
   3++D3CD 00          >  defb 0; 0 - ячейка еще не просмотрена
   3++D3CE 00          >  defb 0; 0 - ячейка еще не просмотрена
   3++D3CF 00          >  defb 0; 0 - ячейка еще не просмотрена
   3++D3D0 00          >  defb 0; 0 - ячейка еще не просмотрена
   3++D3D1 00          >  defb 0; 0 - ячейка еще не просмотрена
   3++D3D2 00          >  defb 0; 0 - ячейка еще не просмотрена
   3++D3D3 00          >  defb 0; 0 - ячейка еще не просмотрена
   3++D3D4 00          >  defb 0; 0 - ячейка еще не просмотрена
   3++D3D5 00          >  defb 0; 0 - ячейка еще не просмотрена
   3++D3D6 00          >  defb 0; 0 - ячейка еще не просмотрена
   3++D3D7 00          >  defb 0; 0 - ячейка еще не просмотрена
   3++D3D8 00          >  defb 0; 0 - ячейка еще не просмотрена
   3++D3D9 00          >  defb 0; 0 - ячейка еще не просмотрена
   3++D3DA 00          >  defb 0; 0 - ячейка еще не просмотрена
   3++D3DB 00          >  defb 0; 0 - ячейка еще не просмотрена
   3++D3DC 00          >  defb 0; 0 - ячейка еще не просмотрена
   3++D3DD 00          >  defb 0; 0 - ячейка еще не просмотрена
   3++D3DE 00          >  defb 0; 0 - ячейка еще не просмотрена
   3++D3DF 00          >  defb 0; 0 - ячейка еще не просмотрена
   3++D3E0 00          >  defb 0; 0 - ячейка еще не просмотрена
   3++D3E1 00          >  defb 0; 0 - ячейка еще не просмотрена
   3++D3E2 00          >  defb 0; 0 - ячейка еще не просмотрена
   3++D3E3 00          >  defb 0; 0 - ячейка еще не просмотрена
   3++D3E4 00          >  defb 0; 0 - ячейка еще не просмотрена
   3++D3E5 00          >  defb 0; 0 - ячейка еще не просмотрена
   3++D3E6 00          >  defb 0; 0 - ячейка еще не просмотрена
   3++D3E7 00          >  defb 0; 0 - ячейка еще не просмотрена
   3++D3E8 00          >  defb 0; 0 - ячейка еще не просмотрена
   3++D3E9 00          >  defb 0; 0 - ячейка еще не просмотрена
   3++D3EA 00          >  defb 0; 0 - ячейка еще не просмотрена
   3++D3EB 00          >  defb 0; 0 - ячейка еще не просмотрена
   3++D3EC 00          >  defb 0; 0 - ячейка еще не просмотрена
   3++D3ED 00          >  defb 0; 0 - ячейка еще не просмотрена
   3++D3EE 00          >  defb 0; 0 - ячейка еще не просмотрена
   3++D3EF 00          >  defb 0; 0 - ячейка еще не просмотрена
   3++D3F0 00          >  defb 0; 0 - ячейка еще не просмотрена
   3++D3F1 00          >  defb 0; 0 - ячейка еще не просмотрена
   3++D3F2 00          >  defb 0; 0 - ячейка еще не просмотрена
   3++D3F3 00          >  defb 0; 0 - ячейка еще не просмотрена
   3++D3F4 00          >  defb 0; 0 - ячейка еще не просмотрена
   3++D3F5 00          >  defb 0; 0 - ячейка еще не просмотрена
   3++D3F6 00          >  defb 0; 0 - ячейка еще не просмотрена
   3++D3F7 00          >  defb 0; 0 - ячейка еще не просмотрена
   3++D3F8 00          >  defb 0; 0 - ячейка еще не просмотрена
   3++D3F9 00          >  defb 0; 0 - ячейка еще не просмотрена
   3++D3FA 00          >  defb 0; 0 - ячейка еще не просмотрена
   3++D3FB 00          >  defb 0; 0 - ячейка еще не просмотрена
   3++D3FC 00          >  defb 0; 0 - ячейка еще не просмотрена
   3++D3FD 00          >  defb 0; 0 - ячейка еще не просмотрена
   3++D3FE 00          >  defb 0; 0 - ячейка еще не просмотрена
   3++D3FF 00          >  defb 0; 0 - ячейка еще не просмотрена
   3++D400 00          >  defb 0; 0 - ячейка еще не просмотрена
   3++D401 00          >  defb 0; 0 - ячейка еще не просмотрена
   3++D402 00          >  defb 0; 0 - ячейка еще не просмотрена
   3++D403 00          >  defb 0; 0 - ячейка еще не просмотрена
   3++D404 00          >  defb 0; 0 - ячейка еще не просмотрена
   3++D405 00          >  defb 0; 0 - ячейка еще не просмотрена
   3++D406 00          >  defb 0; 0 - ячейка еще не просмотрена
   3++D407 00          >  defb 0; 0 - ячейка еще не просмотрена
   3++D408 00          >  defb 0; 0 - ячейка еще не просмотрена
   3++D409 00          >  defb 0; 0 - ячейка еще не просмотрена
   3++D40A 00          >  defb 0; 0 - ячейка еще не просмотрена
   3++D40B 00          >  defb 0; 0 - ячейка еще не просмотрена
   3++D40C 00          >  defb 0; 0 - ячейка еще не просмотрена
   3++D40D 00          >  defb 0; 0 - ячейка еще не просмотрена
   3++D40E 00          >  defb 0; 0 - ячейка еще не просмотрена
   3++D40F 00          >  defb 0; 0 - ячейка еще не просмотрена
   3++D410 00          >  defb 0; 0 - ячейка еще не просмотрена
   3++D411 00          >  defb 0; 0 - ячейка еще не просмотрена
   3++D412 00          >  defb 0; 0 - ячейка еще не просмотрена
   4++D413                EDUP
   5++D413
   6++D413              MAP_SET:
   7++D413              	; include "data/maps/laboratory.asm"
   8++D413                ; include "data/maps/laboratory_old.asm"
   9++D413                ; include "data/maps/laboratory_demo.asm"
  10++D413                include "data/maps/laboratory3.asm"
# file opened: /Users/random/zx-engine/data/maps/laboratory3.asm
   1++D413 AF AF AF AF   defb 175,175,175,175,175,175,175,175,175,175,175,175,175,175,175,175,175,175,175,175,175,175,175,175,175,175,175,175,175,175,175,175
   1++D417 AF AF AF AF
   1++D41B AF AF AF AF
   1++D41F AF AF AF AF
   1++D423 AF AF AF AF
   1++D427 AF AF AF AF
   1++D42B AF AF AF AF
   1++D42F AF AF AF AF
   2++D433 AF 36 36 36   defb 175,54,54,54,54,54,54,54,54,54,54,54,54,54,54,54,54,54,54,54,54,54,54,54,72,54,175,54,54,54,54,175
   2++D437 36 36 36 36
   2++D43B 36 36 36 36
   2++D43F 36 36 36 36
   2++D443 36 36 36 36
   2++D447 36 36 36 36
   2++D44B 48 36 AF 36
   2++D44F 36 36 36 AF
   3++D453 AF 36 36 06   defb 175,54,54,6,6,6,6,6,54,6,6,6,6,6,54,6,6,6,6,6,6,6,6,6,175,54,175,54,71,59,82,175
   3++D457 06 06 06 06
   3++D45B 36 06 06 06
   3++D45F 06 06 36 06
   3++D463 06 06 06 06
   3++D467 06 06 06 06
   3++D46B AF 36 AF 36
   3++D46F 47 3B 52 AF
   4++D473 AF 36 3B 06   defb 175,54,59,6,19,3,20,6,59,6,19,3,4,6,59,6,19,85,20,6,3,3,51,20,175,54,175,54,54,54,54,175
   4++D477 13 03 14 06
   4++D47B 3B 06 13 03
   4++D47F 04 06 3B 06
   4++D483 13 55 14 06
   4++D487 03 03 33 14
   4++D48B AF 36 AF 36
   4++D48F 36 36 36 AF
   5++D493 AF 36 36 06   defb 175,54,54,6,3,3,51,6,6,6,3,3,51,6,6,6,104,3,51,6,3,35,35,35,175,54,175,72,175,175,175,175
   5++D497 03 03 33 06
   5++D49B 06 06 03 03
   5++D49F 33 06 06 06
   5++D4A3 68 03 33 06
   5++D4A7 03 23 23 23
   5++D4AB AF 36 AF 48
   5++D4AF AF AF AF AF
   6++D4B3 AF 36 AF 06   defb 175,54,175,6,2,6,6,6,24,6,2,6,6,6,24,6,2,6,6,6,3,51,51,51,175,54,175,54,54,54,54,175
   6++D4B7 02 06 06 06
   6++D4BB 18 06 02 06
   6++D4BF 06 06 18 06
   6++D4C3 02 06 06 06
   6++D4C7 03 33 33 33
   6++D4CB AF 36 AF 36
   6++D4CF 36 36 36 AF
   7++D4D3 AF 36 AF 06   defb 175,54,175,6,3,3,3,51,35,51,3,3,3,51,35,51,3,3,3,107,3,3,3,3,175,72,175,54,57,59,98,175
   7++D4D7 03 03 03 33
   7++D4DB 23 33 03 03
   7++D4DF 03 33 23 33
   7++D4E3 03 03 03 6B
   7++D4E7 03 03 03 03
   7++D4EB AF 48 AF 36
   7++D4EF 39 3B 62 AF
   8++D4F3 AF 36 AF 06   defb 175,54,175,6,3,3,3,3,3,3,3,3,3,3,3,3,3,3,3,6,6,6,6,6,175,54,72,54,54,54,54,175
   8++D4F7 03 03 03 03
   8++D4FB 03 03 03 03
   8++D4FF 03 03 03 03
   8++D503 03 03 03 06
   8++D507 06 06 06 06
   8++D50B AF 36 48 36
   8++D50F 36 36 36 AF
   9++D513 AF 36 AF 06   defb 175,54,175,6,3,3,3,51,35,51,3,3,3,51,35,51,3,3,3,107,41,41,175,175,175,54,175,54,57,59,98,175
   9++D517 03 03 03 33
   9++D51B 23 33 03 03
   9++D51F 03 33 23 33
   9++D523 03 03 03 6B
   9++D527 29 29 AF AF
   9++D52B AF 36 AF 36
   9++D52F 39 3B 62 AF
  10++D533 AF 36 AF 06   defb 175,54,175,6,2,6,6,6,24,6,2,6,6,6,24,6,6,6,6,6,41,41,108,190,175,54,175,54,54,54,54,175
  10++D537 02 06 06 06
  10++D53B 18 06 02 06
  10++D53F 06 06 18 06
  10++D543 06 06 06 06
  10++D547 29 29 6C BE
  10++D54B AF 36 AF 36
  10++D54F 36 36 36 AF
  11++D553 AF 36 36 06   defb 175,54,54,6,3,3,20,6,6,6,104,3,20,6,6,6,7,29,58,107,41,41,175,175,175,54,175,54,57,59,98,175
  11++D557 03 03 14 06
  11++D55B 06 06 68 03
  11++D55F 14 06 06 06
  11++D563 07 1D 3A 6B
  11++D567 29 29 AF AF
  11++D56B AF 36 AF 36
  11++D56F 39 3B 62 AF
  12++D573 AF 36 3B 06   defb 175,54,59,6,19,3,51,6,59,6,28,60,51,6,54,175,29,61,58,175,41,41,107,128,175,54,175,54,54,54,54,175
  12++D577 13 03 33 06
  12++D57B 3B 06 1C 3C
  12++D57F 33 06 36 AF
  12++D583 1D 3D 3A AF
  12++D587 29 29 6B 80
  12++D58B AF 36 AF 36
  12++D58F 36 36 36 AF
  13++D593 AF 36 36 06   defb 175,54,54,6,6,6,6,6,54,6,6,6,6,6,54,175,175,175,175,175,41,41,175,175,175,54,175,54,57,59,98,175
  13++D597 06 06 06 06
  13++D59B 36 06 06 06
  13++D59F 06 06 36 AF
  13++D5A3 AF AF AF AF
  13++D5A7 29 29 AF AF
  13++D5AB AF 36 AF 36
  13++D5AF 39 3B 62 AF
  14++D5B3 AF 36 36 36   defb 175,54,54,54,54,54,54,54,54,54,54,54,54,54,54,54,54,54,54,175,41,41,108,190,175,54,175,54,54,54,54,175
  14++D5B7 36 36 36 36
  14++D5BB 36 36 36 36
  14++D5BF 36 36 36 36
  14++D5C3 36 36 36 AF
  14++D5C7 29 29 6C BE
  14++D5CB AF 36 AF 36
  14++D5CF 36 36 36 AF
  15++D5D3 AF AF AF AF   defb 175,175,175,175,175,175,175,175,175,175,175,175,175,175,175,175,175,175,175,175,41,41,175,175,175,54,175,54,57,59,98,175
  15++D5D7 AF AF AF AF
  15++D5DB AF AF AF AF
  15++D5DF AF AF AF AF
  15++D5E3 AF AF AF AF
  15++D5E7 29 29 AF AF
  15++D5EB AF 36 AF 36
  15++D5EF 39 3B 62 AF
  16++D5F3 20 40 2C 40   defb 32,64,44,64,104,48,17,17,17,17,48,17,17,17,17,17,17,17,17,175,41,41,108,190,175,54,175,54,54,54,54,175
  16++D5F7 68 30 11 11
  16++D5FB 11 11 30 11
  16++D5FF 11 11 11 11
  16++D603 11 11 11 AF
  16++D607 29 29 6C BE
  16++D60B AF 36 AF 36
  16++D60F 36 36 36 AF
  17++D613 20 20 2C 30   defb 32,32,44,48,10,48,64,17,48,17,17,17,17,177,37,37,37,177,17,175,41,41,175,175,175,54,175,175,175,175,175,175
  17++D617 0A 30 40 11
  17++D61B 30 11 11 11
  17++D61F 11 B1 25 25
  17++D623 25 B1 11 AF
  17++D627 29 29 AF AF
  17++D62B AF 36 AF AF
  17++D62F AF AF AF AF
  18++D633 40 20 2C 30   defb 64,32,44,48,48,48,17,17,17,48,60,17,17,37,37,37,37,37,17,175,41,41,107,128,175,54,175,36,36,36,101,175
  18++D637 30 30 11 11
  18++D63B 11 30 3C 11
  18++D63F 11 25 25 25
  18++D643 25 25 11 AF
  18++D647 29 29 6B 80
  18++D64B AF 36 AF 24
  18++D64F 24 24 65 AF
  19++D653 20 20 2C 11   defb 32,32,44,17,64,48,17,17,17,29,17,17,17,177,37,37,37,177,80,175,99,175,175,175,175,54,72,54,83,54,104,175
  19++D657 40 30 11 11
  19++D65B 11 1D 11 11
  19++D65F 11 B1 25 25
  19++D663 25 B1 50 AF
  19++D667 63 AF AF AF
  19++D66B AF 36 48 36
  19++D66F 53 36 68 AF
  20++D673 40 20 2C 11   defb 64,32,44,17,17,17,17,17,36,80,80,80,80,80,80,17,17,17,17,175,58,58,58,20,175,54,175,54,175,175,175,175
  20++D677 11 11 11 11
  20++D67B 24 50 50 50
  20++D67F 50 50 50 11
  20++D683 11 11 11 AF
  20++D687 3A 3A 3A 14
  20++D68B AF 36 AF 36
  20++D68F AF AF AF AF
  21++D693 20 AF AF AF   defb 32,175,175,175,175,175,175,175,175,175,72,175,175,175,80,17,64,17,17,175,58,58,58,58,175,54,175,54,19,101,36,175
  21++D697 AF AF AF AF
  21++D69B AF AF 48 AF
  21++D69F AF AF 50 11
  21++D6A3 40 11 11 AF
  21++D6A7 3A 3A 3A 3A
  21++D6AB AF 36 AF 36
  21++D6AF 13 65 24 AF
  22++D6B3 20 AF 47 47   defb 32,175,71,71,71,175,71,71,175,58,10,58,58,175,80,17,17,17,17,175,175,175,100,175,175,54,175,54,54,54,51,175
  22++D6B7 47 AF 47 47
  22++D6BB AF 3A 0A 3A
  22++D6BF 3A AF 50 11
  22++D6C3 11 11 11 AF
  22++D6C7 AF AF 64 AF
  22++D6CB AF 36 AF 36
  22++D6CF 36 36 33 AF
  23++D6D3 20 AF 36 36   defb 32,175,54,54,54,175,54,54,175,36,58,58,58,175,80,80,80,80,80,80,80,80,80,20,175,54,175,175,175,175,175,175
  23++D6D7 36 AF 36 36
  23++D6DB AF 24 3A 3A
  23++D6DF 3A AF 50 50
  23++D6E3 50 50 50 50
  23++D6E7 50 50 50 14
  23++D6EB AF 36 AF AF
  23++D6EF AF AF AF AF
  24++D6F3 40 AF 48 AF   defb 64,175,72,175,175,175,72,175,175,175,175,175,72,175,17,175,175,175,107,175,175,175,17,17,175,54,72,41,41,175,175,175
  24++D6F7 AF AF 48 AF
  24++D6FB AF AF AF AF
  24++D6FF 48 AF 11 AF
  24++D703 AF AF 6B AF
  24++D707 AF AF 11 11
  24++D70B AF 36 48 29
  24++D70F 29 AF AF AF
  25++D713 20 AF 36 36   defb 32,175,54,54,54,54,54,54,175,41,41,41,41,175,17,175,58,58,58,58,20,175,64,17,175,54,175,41,41,107,144,175
  25++D717 36 36 36 36
  25++D71B AF 29 29 29
  25++D71F 29 AF 11 AF
  25++D723 3A 3A 3A 3A
  25++D727 14 AF 40 11
  25++D72B AF 36 AF 29
  25++D72F 29 6B 90 AF
  26++D733 20 AF 36 47   defb 32,175,54,71,81,81,29,54,175,41,41,41,41,175,17,175,58,29,73,29,58,175,17,17,175,54,175,41,41,175,175,175
  26++D737 51 51 1D 36
  26++D73B AF 29 29 29
  26++D73F 29 AF 11 AF
  26++D743 3A 1D 49 1D
  26++D747 3A AF 11 11
  26++D74B AF 36 AF 29
  26++D74F 29 AF AF AF
  27++D753 20 AF 36 36   defb 32,175,54,54,54,83,54,54,175,41,41,175,175,175,17,175,58,29,73,30,58,175,17,64,175,54,175,41,41,108,190,175
  27++D757 36 53 36 36
  27++D75B AF 29 29 AF
  27++D75F AF AF 11 AF
  27++D763 3A 1D 49 1E
  27++D767 3A AF 11 40
  27++D76B AF 36 AF 29
  27++D76F 29 6C BE AF
  28++D773 40 AF 36 69   defb 64,175,54,105,27,54,54,54,175,41,41,108,190,175,17,175,58,29,73,30,58,175,175,175,175,54,175,72,175,175,175,175
  28++D777 1B 36 36 36
  28++D77B AF 29 29 6C
  28++D77F BE AF 11 AF
  28++D783 3A 1D 49 1E
  28++D787 3A AF AF AF
  28++D78B AF 36 AF 48
  28++D78F AF AF AF AF
  29++D793 20 AF 36 47   defb 32,175,54,71,81,81,29,54,72,41,41,175,175,175,175,175,58,58,58,58,58,175,32,32,175,54,175,58,58,58,36,175
  29++D797 51 51 1D 36
  29++D79B 48 29 29 AF
  29++D79F AF AF AF AF
  29++D7A3 3A 3A 3A 3A
  29++D7A7 3A AF 20 20
  29++D7AB AF 36 AF 3A
  29++D7AF 3A 3A 24 AF
  30++D7B3 20 AF 36 36   defb 32,175,54,54,54,83,54,54,175,41,41,107,128,175,32,175,175,175,175,175,175,175,32,32,175,54,175,58,58,10,58,175
  30++D7B7 36 53 36 36
  30++D7BB AF 29 29 6B
  30++D7BF 80 AF 20 AF
  30++D7C3 AF AF AF AF
  30++D7C7 AF AF 20 20
  30++D7CB AF 36 AF 3A
  30++D7CF 3A 0A 3A AF
  31++D7D3 20 AF AF AF   defb 32,175,175,175,175,175,175,175,175,175,175,175,175,175,32,32,64,32,32,32,32,32,64,32,175,175,175,175,175,72,175,175
  31++D7D7 AF AF AF AF
  31++D7DB AF AF AF AF
  31++D7DF AF AF 20 20
  31++D7E3 40 20 20 20
  31++D7E7 20 20 40 20
  31++D7EB AF AF AF AF
  31++D7EF AF 48 AF AF
  32++D7F3 20 20 20 20   defb 32,32,32,32,64,32,32,32,32,32,64,32,32,32,32,32,32,32,32,64,32,32,32,32,32,32,32,32,80,80,80,80
  32++D7F7 40 20 20 20
  32++D7FB 20 20 40 20
  32++D7FF 20 20 20 20
  32++D803 20 20 20 40
  32++D807 20 20 20 20
  32++D80B 20 20 20 20
  32++D80F 50 50 50 50
  33++D813
# file closed: /Users/random/zx-engine/data/maps/laboratory3.asm
  11++D813                ; include "data/maps/test_lab.asm"
  12++D813
  13++D813              MAP_SET_END
  14++D813                include "data/heroes.asm"
# file opened: /Users/random/zx-engine/data/heroes.asm
   1++D813              PersonagesNum equ 1
   2++D813
   3++D813              CHARS_SET: ; описываем героев:
   4++D813              ; Hero1: Entities.Hero 31,31, 9, 0, 0, tHeroName1, 00
   5++D813 03 0A 00 A0  Hero2: Hero 3,10, 0, Hero09.spr, Hero09.spr, 0, 0, tHeroName2, 00
   5++D817 A0 00 00 90
   5++D81B A1 00 00
   6++D81E              ; Hero2: Hero 9, 27, 0, Scaf.spr, Scaf.spr, 0, 0, tHeroName2, 00
   7++D81E
   8++D81E              ITEM_ARRAY:
   9++D81E 01 04 06 03    Item Chair.item, 4,6, Floor.spr, #ff, 00
   9++D822 FF 00
  10++D824 01 04 0C 03    Item Chair.item, 4,12, Floor.spr, #ff, 00
  10++D828 FF 00
  11++D82A 01 04 12 03    Item Chair.item, 4,18, Floor.spr, #ff, 00
  11++D82E FF 00
  12++D830
  13++D830 01 0B 06 03    Item Chair.item, 11,6, Floor.spr, #ff, 00
  13++D834 FF 00
  14++D836 01 0B 0C 03    Item Chair.item, 11,12, Floor.spr, #ff, 00
  14++D83A FF 00
  15++D83C
  16++D83C 01 06 07 03    Item Chair.item, 6,7, Floor.spr, #ff, 00
  16++D840 FF 00
  17++D842 01 06 09 03    Item Chair.item, 6,9, Floor.spr, #ff, 00
  17++D846 FF 00
  18++D848 01 06 0D 03    Item Chair.item, 6,13, Floor.spr, #ff, 00
  18++D84C FF 00
  19++D84E 01 06 0F 03    Item Chair.item, 6,15, Floor.spr, #ff, 00
  19++D852 FF 00
  20++D854
  21++D854 01 08 07 03    Item Chair.item, 8,7, Floor.spr, #ff, 00
  21++D858 FF 00
  22++D85A 01 08 09 03    Item Chair.item, 8,9, Floor.spr, #ff, 00
  22++D85E FF 00
  23++D860 01 08 0D 03    Item Chair.item, 8,13, Floor.spr, #ff, 00
  23++D864 FF 00
  24++D866 01 08 0F 03    Item Chair.item, 8,15, Floor.spr, #ff, 00
  24++D86A FF 00
  25++D86C
  26++D86C 01 05 15 03    Item Chair.item, 5,21, Floor.spr, #ff, 00
  26++D870 FF 00
  27++D872 01 05 16 03    Item Chair.item, 5,22, Floor.spr, #ff, 00
  27++D876 FF 00
  28++D878 01 05 17 03    Item Chair.item, 5,23, Floor.spr, #ff, 00
  28++D87C FF 00
  29++D87E 01 03 16 03    Item Chair.item, 3,22, Floor.spr, #ff, 00
  29++D882 FF 00
  30++D884
  31++D884              ; тайник
  32++D884 01 15 1E 36    Item Chair.item, 21,30, FloorWhite.spr, #ff, 00
  32++D888 FF 00
  33++D88A
  34++D88A              ; склад
  35++D88A 03 0A 10 3A    Item Canister.item, 10,16, FloorRed.spr, #ff, 00
  35++D88E FF 00
  36++D890 04 0A 11 3A    Item CanisterEmpty.item, 10,17, FloorRed.spr, #ff, 00
  36++D894 FF 00
  37++D896 04 0B 10 3A    Item CanisterEmpty.item, 11,16, FloorRed.spr, #ff, 00
  37++D89A FF 00
  38++D89C
  39++D89C              ; лаборатория
  40++D89C 04 19 06 36    Item CanisterEmpty.item, 25,6, FloorWhite.spr, #ff, 00
  40++D8A0 FF 00
  41++D8A2 04 1C 06 36    Item CanisterEmpty.item, 28,6, FloorWhite.spr, #ff, 00
  41++D8A6 FF 00
  42++D8A8
  43++D8A8              ; генераторная
  44++D8A8 04 19 13 1E    Item CanisterEmpty.item, 25,19, Nipple.spr, #ff, 00
  44++D8AC FF 00
  45++D8AE 04 19 11 1E    Item CanisterEmpty.item, 25,17, Nipple.spr, #ff, 00
  45++D8B2 FF 00
  46++D8B4 04 1A 11 1E    Item CanisterEmpty.item, 26,17, Nipple.spr, #ff, 00
  46++D8B8 FF 00
  47++D8BA 04 1B 11 1E    Item CanisterEmpty.item, 27,17, Nipple.spr, #ff, 00
  47++D8BE FF 00
  48++D8C0
  49++D8C0              ; заросли
  50++D8C0 04 12 09 11    Item CanisterEmpty.item, 18,9, Grass.spr, #ff, 00
  50++D8C4 FF 00
  51++D8C6
  52++D8C6 05 0B 11 3A    Item Wrench.item, 11,17, FloorRed.spr, #ff, 00
  52++D8CA FF 00
  53++D8CC
  54++D8CC 02 0B 0B 03    Item Nippers.item, 11,11, Floor.spr, #ff, 00
  54++D8D0 FF 00
  55++D8D2 02 11 0A 11    Item Nippers.item, 17,10, Grass.spr, #ff, 00
  55++D8D6 FF 00
  56++D8D8
  57++D8D8 06 1B 03 36    Item RedCard.item, 27,3, FloorWhite.spr, #ff, 00
  57++D8DC FF 00
  58++D8DE
  59++D8DE                DUP Item*50
  60++D8DE FF          >    defb #ff; item.itemID = #ff - признак того что предмета нет
  60++D8DF FF          >    defb #ff; item.itemID = #ff - признак того что предмета нет
  60++D8E0 FF          >    defb #ff; item.itemID = #ff - признак того что предмета нет
  60++D8E1 FF          >    defb #ff; item.itemID = #ff - признак того что предмета нет
  60++D8E2 FF          >    defb #ff; item.itemID = #ff - признак того что предмета нет
  60++D8E3 FF          >    defb #ff; item.itemID = #ff - признак того что предмета нет
  60++D8E4 FF          >    defb #ff; item.itemID = #ff - признак того что предмета нет
  60++D8E5 FF          >    defb #ff; item.itemID = #ff - признак того что предмета нет
  60++D8E6 FF          >    defb #ff; item.itemID = #ff - признак того что предмета нет
  60++D8E7 FF          >    defb #ff; item.itemID = #ff - признак того что предмета нет
  60++D8E8 FF          >    defb #ff; item.itemID = #ff - признак того что предмета нет
  60++D8E9 FF          >    defb #ff; item.itemID = #ff - признак того что предмета нет
  60++D8EA FF          >    defb #ff; item.itemID = #ff - признак того что предмета нет
  60++D8EB FF          >    defb #ff; item.itemID = #ff - признак того что предмета нет
  60++D8EC FF          >    defb #ff; item.itemID = #ff - признак того что предмета нет
  60++D8ED FF          >    defb #ff; item.itemID = #ff - признак того что предмета нет
  60++D8EE FF          >    defb #ff; item.itemID = #ff - признак того что предмета нет
  60++D8EF FF          >    defb #ff; item.itemID = #ff - признак того что предмета нет
  60++D8F0 FF          >    defb #ff; item.itemID = #ff - признак того что предмета нет
  60++D8F1 FF          >    defb #ff; item.itemID = #ff - признак того что предмета нет
  60++D8F2 FF          >    defb #ff; item.itemID = #ff - признак того что предмета нет
  60++D8F3 FF          >    defb #ff; item.itemID = #ff - признак того что предмета нет
  60++D8F4 FF          >    defb #ff; item.itemID = #ff - признак того что предмета нет
  60++D8F5 FF          >    defb #ff; item.itemID = #ff - признак того что предмета нет
  60++D8F6 FF          >    defb #ff; item.itemID = #ff - признак того что предмета нет
  60++D8F7 FF          >    defb #ff; item.itemID = #ff - признак того что предмета нет
  60++D8F8 FF          >    defb #ff; item.itemID = #ff - признак того что предмета нет
  60++D8F9 FF          >    defb #ff; item.itemID = #ff - признак того что предмета нет
  60++D8FA FF          >    defb #ff; item.itemID = #ff - признак того что предмета нет
  60++D8FB FF          >    defb #ff; item.itemID = #ff - признак того что предмета нет
  60++D8FC FF          >    defb #ff; item.itemID = #ff - признак того что предмета нет
  60++D8FD FF          >    defb #ff; item.itemID = #ff - признак того что предмета нет
  60++D8FE FF          >    defb #ff; item.itemID = #ff - признак того что предмета нет
  60++D8FF FF          >    defb #ff; item.itemID = #ff - признак того что предмета нет
  60++D900 FF          >    defb #ff; item.itemID = #ff - признак того что предмета нет
  60++D901 FF          >    defb #ff; item.itemID = #ff - признак того что предмета нет
  60++D902 FF          >    defb #ff; item.itemID = #ff - признак того что предмета нет
  60++D903 FF          >    defb #ff; item.itemID = #ff - признак того что предмета нет
  60++D904 FF          >    defb #ff; item.itemID = #ff - признак того что предмета нет
  60++D905 FF          >    defb #ff; item.itemID = #ff - признак того что предмета нет
  60++D906 FF          >    defb #ff; item.itemID = #ff - признак того что предмета нет
  60++D907 FF          >    defb #ff; item.itemID = #ff - признак того что предмета нет
  60++D908 FF          >    defb #ff; item.itemID = #ff - признак того что предмета нет
  60++D909 FF          >    defb #ff; item.itemID = #ff - признак того что предмета нет
  60++D90A FF          >    defb #ff; item.itemID = #ff - признак того что предмета нет
  60++D90B FF          >    defb #ff; item.itemID = #ff - признак того что предмета нет
  60++D90C FF          >    defb #ff; item.itemID = #ff - признак того что предмета нет
  60++D90D FF          >    defb #ff; item.itemID = #ff - признак того что предмета нет
  60++D90E FF          >    defb #ff; item.itemID = #ff - признак того что предмета нет
  60++D90F FF          >    defb #ff; item.itemID = #ff - признак того что предмета нет
  60++D910 FF          >    defb #ff; item.itemID = #ff - признак того что предмета нет
  60++D911 FF          >    defb #ff; item.itemID = #ff - признак того что предмета нет
  60++D912 FF          >    defb #ff; item.itemID = #ff - признак того что предмета нет
  60++D913 FF          >    defb #ff; item.itemID = #ff - признак того что предмета нет
  60++D914 FF          >    defb #ff; item.itemID = #ff - признак того что предмета нет
  60++D915 FF          >    defb #ff; item.itemID = #ff - признак того что предмета нет
  60++D916 FF          >    defb #ff; item.itemID = #ff - признак того что предмета нет
  60++D917 FF          >    defb #ff; item.itemID = #ff - признак того что предмета нет
  60++D918 FF          >    defb #ff; item.itemID = #ff - признак того что предмета нет
  60++D919 FF          >    defb #ff; item.itemID = #ff - признак того что предмета нет
  60++D91A FF          >    defb #ff; item.itemID = #ff - признак того что предмета нет
  60++D91B FF          >    defb #ff; item.itemID = #ff - признак того что предмета нет
  60++D91C FF          >    defb #ff; item.itemID = #ff - признак того что предмета нет
  60++D91D FF          >    defb #ff; item.itemID = #ff - признак того что предмета нет
  60++D91E FF          >    defb #ff; item.itemID = #ff - признак того что предмета нет
  60++D91F FF          >    defb #ff; item.itemID = #ff - признак того что предмета нет
  60++D920 FF          >    defb #ff; item.itemID = #ff - признак того что предмета нет
  60++D921 FF          >    defb #ff; item.itemID = #ff - признак того что предмета нет
  60++D922 FF          >    defb #ff; item.itemID = #ff - признак того что предмета нет
  60++D923 FF          >    defb #ff; item.itemID = #ff - признак того что предмета нет
  60++D924 FF          >    defb #ff; item.itemID = #ff - признак того что предмета нет
  60++D925 FF          >    defb #ff; item.itemID = #ff - признак того что предмета нет
  60++D926 FF          >    defb #ff; item.itemID = #ff - признак того что предмета нет
  60++D927 FF          >    defb #ff; item.itemID = #ff - признак того что предмета нет
  60++D928 FF          >    defb #ff; item.itemID = #ff - признак того что предмета нет
  60++D929 FF          >    defb #ff; item.itemID = #ff - признак того что предмета нет
  60++D92A FF          >    defb #ff; item.itemID = #ff - признак того что предмета нет
  60++D92B FF          >    defb #ff; item.itemID = #ff - признак того что предмета нет
  60++D92C FF          >    defb #ff; item.itemID = #ff - признак того что предмета нет
  60++D92D FF          >    defb #ff; item.itemID = #ff - признак того что предмета нет
  60++D92E FF          >    defb #ff; item.itemID = #ff - признак того что предмета нет
  60++D92F FF          >    defb #ff; item.itemID = #ff - признак того что предмета нет
  60++D930 FF          >    defb #ff; item.itemID = #ff - признак того что предмета нет
  60++D931 FF          >    defb #ff; item.itemID = #ff - признак того что предмета нет
  60++D932 FF          >    defb #ff; item.itemID = #ff - признак того что предмета нет
  60++D933 FF          >    defb #ff; item.itemID = #ff - признак того что предмета нет
  60++D934 FF          >    defb #ff; item.itemID = #ff - признак того что предмета нет
  60++D935 FF          >    defb #ff; item.itemID = #ff - признак того что предмета нет
  60++D936 FF          >    defb #ff; item.itemID = #ff - признак того что предмета нет
  60++D937 FF          >    defb #ff; item.itemID = #ff - признак того что предмета нет
  60++D938 FF          >    defb #ff; item.itemID = #ff - признак того что предмета нет
  60++D939 FF          >    defb #ff; item.itemID = #ff - признак того что предмета нет
  60++D93A FF          >    defb #ff; item.itemID = #ff - признак того что предмета нет
  60++D93B FF          >    defb #ff; item.itemID = #ff - признак того что предмета нет
  60++D93C FF          >    defb #ff; item.itemID = #ff - признак того что предмета нет
  60++D93D FF          >    defb #ff; item.itemID = #ff - признак того что предмета нет
  60++D93E FF          >    defb #ff; item.itemID = #ff - признак того что предмета нет
  60++D93F FF          >    defb #ff; item.itemID = #ff - признак того что предмета нет
  60++D940 FF          >    defb #ff; item.itemID = #ff - признак того что предмета нет
  60++D941 FF          >    defb #ff; item.itemID = #ff - признак того что предмета нет
  60++D942 FF          >    defb #ff; item.itemID = #ff - признак того что предмета нет
  60++D943 FF          >    defb #ff; item.itemID = #ff - признак того что предмета нет
  60++D944 FF          >    defb #ff; item.itemID = #ff - признак того что предмета нет
  60++D945 FF          >    defb #ff; item.itemID = #ff - признак того что предмета нет
  60++D946 FF          >    defb #ff; item.itemID = #ff - признак того что предмета нет
  60++D947 FF          >    defb #ff; item.itemID = #ff - признак того что предмета нет
  60++D948 FF          >    defb #ff; item.itemID = #ff - признак того что предмета нет
  60++D949 FF          >    defb #ff; item.itemID = #ff - признак того что предмета нет
  60++D94A FF          >    defb #ff; item.itemID = #ff - признак того что предмета нет
  60++D94B FF          >    defb #ff; item.itemID = #ff - признак того что предмета нет
  60++D94C FF          >    defb #ff; item.itemID = #ff - признак того что предмета нет
  60++D94D FF          >    defb #ff; item.itemID = #ff - признак того что предмета нет
  60++D94E FF          >    defb #ff; item.itemID = #ff - признак того что предмета нет
  60++D94F FF          >    defb #ff; item.itemID = #ff - признак того что предмета нет
  60++D950 FF          >    defb #ff; item.itemID = #ff - признак того что предмета нет
  60++D951 FF          >    defb #ff; item.itemID = #ff - признак того что предмета нет
  60++D952 FF          >    defb #ff; item.itemID = #ff - признак того что предмета нет
  60++D953 FF          >    defb #ff; item.itemID = #ff - признак того что предмета нет
  60++D954 FF          >    defb #ff; item.itemID = #ff - признак того что предмета нет
  60++D955 FF          >    defb #ff; item.itemID = #ff - признак того что предмета нет
  60++D956 FF          >    defb #ff; item.itemID = #ff - признак того что предмета нет
  60++D957 FF          >    defb #ff; item.itemID = #ff - признак того что предмета нет
  60++D958 FF          >    defb #ff; item.itemID = #ff - признак того что предмета нет
  60++D959 FF          >    defb #ff; item.itemID = #ff - признак того что предмета нет
  60++D95A FF          >    defb #ff; item.itemID = #ff - признак того что предмета нет
  60++D95B FF          >    defb #ff; item.itemID = #ff - признак того что предмета нет
  60++D95C FF          >    defb #ff; item.itemID = #ff - признак того что предмета нет
  60++D95D FF          >    defb #ff; item.itemID = #ff - признак того что предмета нет
  60++D95E FF          >    defb #ff; item.itemID = #ff - признак того что предмета нет
  60++D95F FF          >    defb #ff; item.itemID = #ff - признак того что предмета нет
  60++D960 FF          >    defb #ff; item.itemID = #ff - признак того что предмета нет
  60++D961 FF          >    defb #ff; item.itemID = #ff - признак того что предмета нет
  60++D962 FF          >    defb #ff; item.itemID = #ff - признак того что предмета нет
  60++D963 FF          >    defb #ff; item.itemID = #ff - признак того что предмета нет
  60++D964 FF          >    defb #ff; item.itemID = #ff - признак того что предмета нет
  60++D965 FF          >    defb #ff; item.itemID = #ff - признак того что предмета нет
  60++D966 FF          >    defb #ff; item.itemID = #ff - признак того что предмета нет
  60++D967 FF          >    defb #ff; item.itemID = #ff - признак того что предмета нет
  60++D968 FF          >    defb #ff; item.itemID = #ff - признак того что предмета нет
  60++D969 FF          >    defb #ff; item.itemID = #ff - признак того что предмета нет
  60++D96A FF          >    defb #ff; item.itemID = #ff - признак того что предмета нет
  60++D96B FF          >    defb #ff; item.itemID = #ff - признак того что предмета нет
  60++D96C FF          >    defb #ff; item.itemID = #ff - признак того что предмета нет
  60++D96D FF          >    defb #ff; item.itemID = #ff - признак того что предмета нет
  60++D96E FF          >    defb #ff; item.itemID = #ff - признак того что предмета нет
  60++D96F FF          >    defb #ff; item.itemID = #ff - признак того что предмета нет
  60++D970 FF          >    defb #ff; item.itemID = #ff - признак того что предмета нет
  60++D971 FF          >    defb #ff; item.itemID = #ff - признак того что предмета нет
  60++D972 FF          >    defb #ff; item.itemID = #ff - признак того что предмета нет
  60++D973 FF          >    defb #ff; item.itemID = #ff - признак того что предмета нет
  60++D974 FF          >    defb #ff; item.itemID = #ff - признак того что предмета нет
  60++D975 FF          >    defb #ff; item.itemID = #ff - признак того что предмета нет
  60++D976 FF          >    defb #ff; item.itemID = #ff - признак того что предмета нет
  60++D977 FF          >    defb #ff; item.itemID = #ff - признак того что предмета нет
  60++D978 FF          >    defb #ff; item.itemID = #ff - признак того что предмета нет
  60++D979 FF          >    defb #ff; item.itemID = #ff - признак того что предмета нет
  60++D97A FF          >    defb #ff; item.itemID = #ff - признак того что предмета нет
  60++D97B FF          >    defb #ff; item.itemID = #ff - признак того что предмета нет
  60++D97C FF          >    defb #ff; item.itemID = #ff - признак того что предмета нет
  60++D97D FF          >    defb #ff; item.itemID = #ff - признак того что предмета нет
  60++D97E FF          >    defb #ff; item.itemID = #ff - признак того что предмета нет
  60++D97F FF          >    defb #ff; item.itemID = #ff - признак того что предмета нет
  60++D980 FF          >    defb #ff; item.itemID = #ff - признак того что предмета нет
  60++D981 FF          >    defb #ff; item.itemID = #ff - признак того что предмета нет
  60++D982 FF          >    defb #ff; item.itemID = #ff - признак того что предмета нет
  60++D983 FF          >    defb #ff; item.itemID = #ff - признак того что предмета нет
  60++D984 FF          >    defb #ff; item.itemID = #ff - признак того что предмета нет
  60++D985 FF          >    defb #ff; item.itemID = #ff - признак того что предмета нет
  60++D986 FF          >    defb #ff; item.itemID = #ff - признак того что предмета нет
  60++D987 FF          >    defb #ff; item.itemID = #ff - признак того что предмета нет
  60++D988 FF          >    defb #ff; item.itemID = #ff - признак того что предмета нет
  60++D989 FF          >    defb #ff; item.itemID = #ff - признак того что предмета нет
  60++D98A FF          >    defb #ff; item.itemID = #ff - признак того что предмета нет
  60++D98B FF          >    defb #ff; item.itemID = #ff - признак того что предмета нет
  60++D98C FF          >    defb #ff; item.itemID = #ff - признак того что предмета нет
  60++D98D FF          >    defb #ff; item.itemID = #ff - признак того что предмета нет
  60++D98E FF          >    defb #ff; item.itemID = #ff - признак того что предмета нет
  60++D98F FF          >    defb #ff; item.itemID = #ff - признак того что предмета нет
  60++D990 FF          >    defb #ff; item.itemID = #ff - признак того что предмета нет
  60++D991 FF          >    defb #ff; item.itemID = #ff - признак того что предмета нет
  60++D992 FF          >    defb #ff; item.itemID = #ff - признак того что предмета нет
  60++D993 FF          >    defb #ff; item.itemID = #ff - признак того что предмета нет
  60++D994 FF          >    defb #ff; item.itemID = #ff - признак того что предмета нет
  60++D995 FF          >    defb #ff; item.itemID = #ff - признак того что предмета нет
  60++D996 FF          >    defb #ff; item.itemID = #ff - признак того что предмета нет
  60++D997 FF          >    defb #ff; item.itemID = #ff - признак того что предмета нет
  60++D998 FF          >    defb #ff; item.itemID = #ff - признак того что предмета нет
  60++D999 FF          >    defb #ff; item.itemID = #ff - признак того что предмета нет
  60++D99A FF          >    defb #ff; item.itemID = #ff - признак того что предмета нет
  60++D99B FF          >    defb #ff; item.itemID = #ff - признак того что предмета нет
  60++D99C FF          >    defb #ff; item.itemID = #ff - признак того что предмета нет
  60++D99D FF          >    defb #ff; item.itemID = #ff - признак того что предмета нет
  60++D99E FF          >    defb #ff; item.itemID = #ff - признак того что предмета нет
  60++D99F FF          >    defb #ff; item.itemID = #ff - признак того что предмета нет
  60++D9A0 FF          >    defb #ff; item.itemID = #ff - признак того что предмета нет
  60++D9A1 FF          >    defb #ff; item.itemID = #ff - признак того что предмета нет
  60++D9A2 FF          >    defb #ff; item.itemID = #ff - признак того что предмета нет
  60++D9A3 FF          >    defb #ff; item.itemID = #ff - признак того что предмета нет
  60++D9A4 FF          >    defb #ff; item.itemID = #ff - признак того что предмета нет
  60++D9A5 FF          >    defb #ff; item.itemID = #ff - признак того что предмета нет
  60++D9A6 FF          >    defb #ff; item.itemID = #ff - признак того что предмета нет
  60++D9A7 FF          >    defb #ff; item.itemID = #ff - признак того что предмета нет
  60++D9A8 FF          >    defb #ff; item.itemID = #ff - признак того что предмета нет
  60++D9A9 FF          >    defb #ff; item.itemID = #ff - признак того что предмета нет
  60++D9AA FF          >    defb #ff; item.itemID = #ff - признак того что предмета нет
  60++D9AB FF          >    defb #ff; item.itemID = #ff - признак того что предмета нет
  60++D9AC FF          >    defb #ff; item.itemID = #ff - признак того что предмета нет
  60++D9AD FF          >    defb #ff; item.itemID = #ff - признак того что предмета нет
  60++D9AE FF          >    defb #ff; item.itemID = #ff - признак того что предмета нет
  60++D9AF FF          >    defb #ff; item.itemID = #ff - признак того что предмета нет
  60++D9B0 FF          >    defb #ff; item.itemID = #ff - признак того что предмета нет
  60++D9B1 FF          >    defb #ff; item.itemID = #ff - признак того что предмета нет
  60++D9B2 FF          >    defb #ff; item.itemID = #ff - признак того что предмета нет
  60++D9B3 FF          >    defb #ff; item.itemID = #ff - признак того что предмета нет
  60++D9B4 FF          >    defb #ff; item.itemID = #ff - признак того что предмета нет
  60++D9B5 FF          >    defb #ff; item.itemID = #ff - признак того что предмета нет
  60++D9B6 FF          >    defb #ff; item.itemID = #ff - признак того что предмета нет
  60++D9B7 FF          >    defb #ff; item.itemID = #ff - признак того что предмета нет
  60++D9B8 FF          >    defb #ff; item.itemID = #ff - признак того что предмета нет
  60++D9B9 FF          >    defb #ff; item.itemID = #ff - признак того что предмета нет
  60++D9BA FF          >    defb #ff; item.itemID = #ff - признак того что предмета нет
  60++D9BB FF          >    defb #ff; item.itemID = #ff - признак того что предмета нет
  60++D9BC FF          >    defb #ff; item.itemID = #ff - признак того что предмета нет
  60++D9BD FF          >    defb #ff; item.itemID = #ff - признак того что предмета нет
  60++D9BE FF          >    defb #ff; item.itemID = #ff - признак того что предмета нет
  60++D9BF FF          >    defb #ff; item.itemID = #ff - признак того что предмета нет
  60++D9C0 FF          >    defb #ff; item.itemID = #ff - признак того что предмета нет
  60++D9C1 FF          >    defb #ff; item.itemID = #ff - признак того что предмета нет
  60++D9C2 FF          >    defb #ff; item.itemID = #ff - признак того что предмета нет
  60++D9C3 FF          >    defb #ff; item.itemID = #ff - признак того что предмета нет
  60++D9C4 FF          >    defb #ff; item.itemID = #ff - признак того что предмета нет
  60++D9C5 FF          >    defb #ff; item.itemID = #ff - признак того что предмета нет
  60++D9C6 FF          >    defb #ff; item.itemID = #ff - признак того что предмета нет
  60++D9C7 FF          >    defb #ff; item.itemID = #ff - признак того что предмета нет
  60++D9C8 FF          >    defb #ff; item.itemID = #ff - признак того что предмета нет
  60++D9C9 FF          >    defb #ff; item.itemID = #ff - признак того что предмета нет
  60++D9CA FF          >    defb #ff; item.itemID = #ff - признак того что предмета нет
  60++D9CB FF          >    defb #ff; item.itemID = #ff - признак того что предмета нет
  60++D9CC FF          >    defb #ff; item.itemID = #ff - признак того что предмета нет
  60++D9CD FF          >    defb #ff; item.itemID = #ff - признак того что предмета нет
  60++D9CE FF          >    defb #ff; item.itemID = #ff - признак того что предмета нет
  60++D9CF FF          >    defb #ff; item.itemID = #ff - признак того что предмета нет
  60++D9D0 FF          >    defb #ff; item.itemID = #ff - признак того что предмета нет
  60++D9D1 FF          >    defb #ff; item.itemID = #ff - признак того что предмета нет
  60++D9D2 FF          >    defb #ff; item.itemID = #ff - признак того что предмета нет
  60++D9D3 FF          >    defb #ff; item.itemID = #ff - признак того что предмета нет
  60++D9D4 FF          >    defb #ff; item.itemID = #ff - признак того что предмета нет
  60++D9D5 FF          >    defb #ff; item.itemID = #ff - признак того что предмета нет
  60++D9D6 FF          >    defb #ff; item.itemID = #ff - признак того что предмета нет
  60++D9D7 FF          >    defb #ff; item.itemID = #ff - признак того что предмета нет
  60++D9D8 FF          >    defb #ff; item.itemID = #ff - признак того что предмета нет
  60++D9D9 FF          >    defb #ff; item.itemID = #ff - признак того что предмета нет
  60++D9DA FF          >    defb #ff; item.itemID = #ff - признак того что предмета нет
  60++D9DB FF          >    defb #ff; item.itemID = #ff - признак того что предмета нет
  60++D9DC FF          >    defb #ff; item.itemID = #ff - признак того что предмета нет
  60++D9DD FF          >    defb #ff; item.itemID = #ff - признак того что предмета нет
  60++D9DE FF          >    defb #ff; item.itemID = #ff - признак того что предмета нет
  60++D9DF FF          >    defb #ff; item.itemID = #ff - признак того что предмета нет
  60++D9E0 FF          >    defb #ff; item.itemID = #ff - признак того что предмета нет
  60++D9E1 FF          >    defb #ff; item.itemID = #ff - признак того что предмета нет
  60++D9E2 FF          >    defb #ff; item.itemID = #ff - признак того что предмета нет
  60++D9E3 FF          >    defb #ff; item.itemID = #ff - признак того что предмета нет
  60++D9E4 FF          >    defb #ff; item.itemID = #ff - признак того что предмета нет
  60++D9E5 FF          >    defb #ff; item.itemID = #ff - признак того что предмета нет
  60++D9E6 FF          >    defb #ff; item.itemID = #ff - признак того что предмета нет
  60++D9E7 FF          >    defb #ff; item.itemID = #ff - признак того что предмета нет
  60++D9E8 FF          >    defb #ff; item.itemID = #ff - признак того что предмета нет
  60++D9E9 FF          >    defb #ff; item.itemID = #ff - признак того что предмета нет
  60++D9EA FF          >    defb #ff; item.itemID = #ff - признак того что предмета нет
  60++D9EB FF          >    defb #ff; item.itemID = #ff - признак того что предмета нет
  60++D9EC FF          >    defb #ff; item.itemID = #ff - признак того что предмета нет
  60++D9ED FF          >    defb #ff; item.itemID = #ff - признак того что предмета нет
  60++D9EE FF          >    defb #ff; item.itemID = #ff - признак того что предмета нет
  60++D9EF FF          >    defb #ff; item.itemID = #ff - признак того что предмета нет
  60++D9F0 FF          >    defb #ff; item.itemID = #ff - признак того что предмета нет
  60++D9F1 FF          >    defb #ff; item.itemID = #ff - признак того что предмета нет
  60++D9F2 FF          >    defb #ff; item.itemID = #ff - признак того что предмета нет
  60++D9F3 FF          >    defb #ff; item.itemID = #ff - признак того что предмета нет
  60++D9F4 FF          >    defb #ff; item.itemID = #ff - признак того что предмета нет
  60++D9F5 FF          >    defb #ff; item.itemID = #ff - признак того что предмета нет
  60++D9F6 FF          >    defb #ff; item.itemID = #ff - признак того что предмета нет
  60++D9F7 FF          >    defb #ff; item.itemID = #ff - признак того что предмета нет
  60++D9F8 FF          >    defb #ff; item.itemID = #ff - признак того что предмета нет
  60++D9F9 FF          >    defb #ff; item.itemID = #ff - признак того что предмета нет
  60++D9FA FF          >    defb #ff; item.itemID = #ff - признак того что предмета нет
  60++D9FB FF          >    defb #ff; item.itemID = #ff - признак того что предмета нет
  60++D9FC FF          >    defb #ff; item.itemID = #ff - признак того что предмета нет
  60++D9FD FF          >    defb #ff; item.itemID = #ff - признак того что предмета нет
  60++D9FE FF          >    defb #ff; item.itemID = #ff - признак того что предмета нет
  60++D9FF FF          >    defb #ff; item.itemID = #ff - признак того что предмета нет
  60++DA00 FF          >    defb #ff; item.itemID = #ff - признак того что предмета нет
  60++DA01 FF          >    defb #ff; item.itemID = #ff - признак того что предмета нет
  60++DA02 FF          >    defb #ff; item.itemID = #ff - признак того что предмета нет
  60++DA03 FF          >    defb #ff; item.itemID = #ff - признак того что предмета нет
  60++DA04 FF          >    defb #ff; item.itemID = #ff - признак того что предмета нет
  60++DA05 FF          >    defb #ff; item.itemID = #ff - признак того что предмета нет
  60++DA06 FF          >    defb #ff; item.itemID = #ff - признак того что предмета нет
  60++DA07 FF          >    defb #ff; item.itemID = #ff - признак того что предмета нет
  60++DA08 FF          >    defb #ff; item.itemID = #ff - признак того что предмета нет
  60++DA09 FF          >    defb #ff; item.itemID = #ff - признак того что предмета нет
  61++DA0A                 EDUP
  62++DA0A
  63++DA0A              ItemArraySize equ 50; максимальное число предметов
  64++DA0A
# file closed: /Users/random/zx-engine/data/heroes.asm
  15++DA0A
# file closed: /Users/random/zx-engine/dynamic.asm
   8+ DA0A
   9+ DA0A              pack_dynamic:
  10+ DA0A
  11+ DA0A              _all_end:
  12+ DA0A
  13+ DA0A              display /D, _all_end-code, " size, ", /D, INT_VECTOR-_all_end, " free"
  14+ DA0A
  15+ DA0A              display "----- code start: ", code
  16+ DA0A              display "engine size: ", /D, static-code, ", code end: ", static
  17+ DA0A              display "static data size: ", /D, dynamic-static, ", static end: ", dynamic
  18+ DA0A              display "font addr: ", p68_font, ", pre-font unused size: ", /D, p68_font - LANG_SET_END
  19+ DA0A              display "dynamic data size: ", /D, _all_end-dynamic, ", dynamic end: ", _all_end
  20+ DA0A              display "interrupt:  ", INT_VECTOR, " ", INT_VECTOR+256
  21+ DA0A              display "----- all end: ", _all_end
  22+ DA0A
  23+ DA0A              ; display binary_calc_hero_cursor_pos
  24+ DA0A              ; display CELL_TYPES
  25+ DA0A              ; display Computer_cell_name
  26+ DA0A              ; display ComputerBreak.computer_break_script
  27+ DA0A              ; LABELSLIST "mylabels.txt"
  28+ DA0A
  29+ DA0A                ; прикрепляем к engine скрипты и определения
  30+ DA0A                ; SAVEBIN "static.bin", code, dynamic-code
  31+ DA0A                ; SAVEBIN "dynamic.bin", dynamic, _all_end-dynamic
  32+ DA0A
  33+ DA0A              ; SAVESNA "cell3326.sna",code
  34+ DA0A
  35+ DA0A              ; LOAD_ADDR equ #8000
  36+ DA0A              ; boot.begin equ LOAD_ADDR
  37+ DA0A              ; boot.end equ _all_end
  38+ DA0A              ; include "core/routines/basic_boot_trd.asm"
  39+ DA0A
  40+ DA0A                ; EMPTYTRD "cell3326.trd" ;create empty TRD image
  41+ DA0A              	; SAVETRD "cell3326.trd", "CELL3326.B", boot.Basic, boot.EndBasic - boot.Basic
  42+ DA0A                ; SAVETRD "cell3326.trd","CELL3326.C",boot.begin,boot.end-boot.begin
  43+ DA0A
# file closed: /Users/random/zx-engine/main.asm
   7  DA0A
   8  DA0A                SAVEBIN "static.bin", code, dynamic-code
   9  DA0A                SAVEBIN "dynamic.bin", dynamic, _all_end-dynamic
  10  DA0A                ; SAVEBIN "fullgame.bin", code, _all_end-code
# file closed: /Users/random/zx-engine/parts.asm
